	.file	"adler32.c"
	.text
.Ltext0:
	.p2align 2,,3
	.globl	adler32
	.type	adler32, @function
adler32:
.LFB26:
	.file 1 "adler32.c"
	.loc 1 69 0
	.cfi_startproc
.LVL0:
	pushl	%ebp
.LCFI0:
	.cfi_def_cfa_offset 8
	.cfi_offset 5, -8
	pushl	%edi
.LCFI1:
	.cfi_def_cfa_offset 12
	.cfi_offset 7, -12
	pushl	%esi
.LCFI2:
	.cfi_def_cfa_offset 16
	.cfi_offset 6, -16
	pushl	%ebx
.LCFI3:
	.cfi_def_cfa_offset 20
	.cfi_offset 3, -20
	movl	20(%esp), %ecx
	movl	24(%esp), %esi
	movl	28(%esp), %edi
	.loc 1 74 0
	movl	%ecx, %ebx
	shrl	$16, %ebx
.LVL1:
	.loc 1 75 0
	andl	$65535, %ecx
.LVL2:
	.loc 1 78 0
	cmpl	$1, %edi
	je	.L30
	.loc 1 89 0
	testl	%esi, %esi
	je	.L20
	.loc 1 93 0
	cmpl	$15, %edi
	jbe	.L6
	.loc 1 105 0 discriminator 1
	cmpl	$5551, %edi
	jbe	.L8
	.loc 1 112 0
	movl	$65521, %ebp
.LVL3:
.L22:
	.loc 1 106 0
	subl	$5552, %edi
.LVL4:
	.loc 1 65 0
	leal	5552(%esi), %eax
.LVL5:
	.p2align 2,,3
.L12:
	.loc 1 109 0 discriminator 1
	movzbl	(%esi), %edx
	addl	%edx, %ecx
.LVL6:
	addl	%ecx, %ebx
.LVL7:
	movzbl	1(%esi), %edx
	addl	%edx, %ecx
.LVL8:
	addl	%ecx, %ebx
.LVL9:
	movzbl	2(%esi), %edx
	addl	%edx, %ecx
.LVL10:
	addl	%ecx, %ebx
.LVL11:
	movzbl	3(%esi), %edx
	addl	%edx, %ecx
.LVL12:
	addl	%ecx, %ebx
.LVL13:
	movzbl	4(%esi), %edx
	addl	%edx, %ecx
.LVL14:
	addl	%ecx, %ebx
.LVL15:
	movzbl	5(%esi), %edx
	addl	%edx, %ecx
.LVL16:
	addl	%ecx, %ebx
.LVL17:
	movzbl	6(%esi), %edx
	addl	%edx, %ecx
.LVL18:
	addl	%ecx, %ebx
.LVL19:
	movzbl	7(%esi), %edx
	addl	%edx, %ecx
.LVL20:
	addl	%ecx, %ebx
.LVL21:
	movzbl	8(%esi), %edx
	addl	%edx, %ecx
.LVL22:
	addl	%ecx, %ebx
.LVL23:
	movzbl	9(%esi), %edx
	addl	%edx, %ecx
.LVL24:
	addl	%ecx, %ebx
.LVL25:
	movzbl	10(%esi), %edx
	addl	%edx, %ecx
.LVL26:
	addl	%ecx, %ebx
.LVL27:
	movzbl	11(%esi), %edx
	addl	%edx, %ecx
.LVL28:
	addl	%ecx, %ebx
.LVL29:
	movzbl	12(%esi), %edx
	addl	%edx, %ecx
.LVL30:
	addl	%ecx, %ebx
.LVL31:
	movzbl	13(%esi), %edx
	addl	%edx, %ecx
.LVL32:
	addl	%ecx, %ebx
.LVL33:
	movzbl	14(%esi), %edx
	addl	%edx, %ecx
.LVL34:
	addl	%ecx, %ebx
.LVL35:
	movzbl	15(%esi), %edx
	addl	%edx, %ecx
.LVL36:
	addl	%ecx, %ebx
.LVL37:
	.loc 1 110 0 discriminator 1
	addl	$16, %esi
.LVL38:
	.loc 1 111 0 discriminator 1
	cmpl	%eax, %esi
	jne	.L12
	.loc 1 112 0
	movl	%ecx, %eax
	xorl	%edx, %edx
	divl	%ebp
	movl	%edx, %ecx
.LVL39:
	.loc 1 113 0
	movl	%ebx, %eax
	xorl	%edx, %edx
.LVL40:
	divl	%ebp
	movl	%edx, %ebx
.LVL41:
	.loc 1 105 0
	cmpl	$5551, %edi
	ja	.L22
	.loc 1 117 0
	testl	%edi, %edi
	jne	.L31
	.loc 1 132 0
	movl	%ebx, %edx
	sall	$16, %edx
.LVL42:
	orl	%ecx, %edx
.LVL43:
.L32:
	.loc 1 133 0
	movl	%edx, %eax
	popl	%ebx
	.cfi_remember_state
	.cfi_restore 3
.LCFI4:
	.cfi_def_cfa_offset 16
.LVL44:
	popl	%esi
	.cfi_restore 6
.LCFI5:
	.cfi_def_cfa_offset 12
	popl	%edi
	.cfi_restore 7
.LCFI6:
	.cfi_def_cfa_offset 8
	popl	%ebp
	.cfi_restore 5
.LCFI7:
	.cfi_def_cfa_offset 4
	ret
.LVL45:
.L6:
.LCFI8:
	.cfi_restore_state
	.loc 1 94 0 discriminator 1
	testl	%edi, %edi
	je	.L9
.LVL46:
.L21:
	.loc 1 95 0
	movzbl	(%esi), %eax
	addl	%eax, %ecx
.LVL47:
	incl	%esi
.LVL48:
	.loc 1 96 0
	addl	%ecx, %ebx
.LVL49:
	.loc 1 94 0
	decl	%edi
	jne	.L21
.L9:
	.loc 1 98 0
	cmpl	$65520, %ecx
	jbe	.L11
	.loc 1 99 0
	subl	$65521, %ecx
.LVL50:
.L11:
	.loc 1 100 0
	movl	$65521, %esi
.LVL51:
	movl	%ebx, %eax
	xorl	%edx, %edx
	divl	%esi
.LVL52:
.L28:
	.loc 1 101 0
	sall	$16, %edx
.LVL53:
	orl	%ecx, %edx
.L5:
	.loc 1 133 0
	movl	%edx, %eax
	popl	%ebx
	.cfi_remember_state
.LCFI9:
	.cfi_def_cfa_offset 16
	.cfi_restore 3
	popl	%esi
.LCFI10:
	.cfi_def_cfa_offset 12
	.cfi_restore 6
	popl	%edi
.LCFI11:
	.cfi_def_cfa_offset 8
	.cfi_restore 7
	popl	%ebp
.LCFI12:
	.cfi_def_cfa_offset 4
	.cfi_restore 5
	ret
.LVL54:
.L30:
.LCFI13:
	.cfi_restore_state
	.loc 1 79 0
	movzbl	(%esi), %eax
	addl	%eax, %ecx
.LVL55:
	.loc 1 80 0
	cmpl	$65520, %ecx
	jbe	.L3
	.loc 1 81 0
	subl	$65521, %ecx
.LVL56:
.L3:
	.loc 1 82 0
	leal	(%ecx,%ebx), %edx
.LVL57:
	.loc 1 83 0
	cmpl	$65520, %edx
	jbe	.L28
	.loc 1 84 0
	subl	$65521, %edx
.LVL58:
	jmp	.L28
.LVL59:
.L31:
	.loc 1 118 0 discriminator 1
	cmpl	$15, %edi
	jbe	.L15
.LVL60:
.L8:
	.loc 1 106 0
	movl	%edi, %edx
	movl	%esi, %eax
.LVL61:
.L16:
	.loc 1 119 0
	subl	$16, %edx
.LVL62:
	.loc 1 120 0
	movzbl	(%eax), %ebp
	addl	%ebp, %ecx
.LVL63:
	addl	%ecx, %ebx
.LVL64:
	movzbl	1(%eax), %ebp
	addl	%ebp, %ecx
.LVL65:
	addl	%ecx, %ebx
.LVL66:
	movzbl	2(%eax), %ebp
	addl	%ebp, %ecx
.LVL67:
	addl	%ecx, %ebx
.LVL68:
	movzbl	3(%eax), %ebp
	addl	%ebp, %ecx
.LVL69:
	addl	%ecx, %ebx
.LVL70:
	movzbl	4(%eax), %ebp
	addl	%ebp, %ecx
.LVL71:
	addl	%ecx, %ebx
.LVL72:
	movzbl	5(%eax), %ebp
	addl	%ebp, %ecx
.LVL73:
	addl	%ecx, %ebx
.LVL74:
	movzbl	6(%eax), %ebp
	addl	%ebp, %ecx
.LVL75:
	addl	%ecx, %ebx
.LVL76:
	movzbl	7(%eax), %ebp
	addl	%ebp, %ecx
.LVL77:
	addl	%ecx, %ebx
.LVL78:
	movzbl	8(%eax), %ebp
	addl	%ebp, %ecx
.LVL79:
	addl	%ecx, %ebx
.LVL80:
	movzbl	9(%eax), %ebp
	addl	%ebp, %ecx
.LVL81:
	addl	%ecx, %ebx
.LVL82:
	movzbl	10(%eax), %ebp
	addl	%ebp, %ecx
.LVL83:
	addl	%ecx, %ebx
.LVL84:
	movzbl	11(%eax), %ebp
	addl	%ebp, %ecx
.LVL85:
	addl	%ecx, %ebx
.LVL86:
	movzbl	12(%eax), %ebp
	addl	%ebp, %ecx
.LVL87:
	addl	%ecx, %ebx
.LVL88:
	movzbl	13(%eax), %ebp
	addl	%ebp, %ecx
.LVL89:
	addl	%ecx, %ebx
.LVL90:
	movzbl	14(%eax), %ebp
	addl	%ebp, %ecx
.LVL91:
	addl	%ecx, %ebx
.LVL92:
	movzbl	15(%eax), %ebp
	addl	%ebp, %ecx
.LVL93:
	addl	%ecx, %ebx
.LVL94:
	.loc 1 121 0
	addl	$16, %eax
.LVL95:
	.loc 1 118 0
	cmpl	$15, %edx
	ja	.L16
	.loc 1 65 0
	leal	-16(%edi), %eax
.LVL96:
	andl	$-16, %eax
	.loc 1 118 0
	leal	16(%esi,%eax), %esi
.LVL97:
	.loc 1 123 0
	andl	$15, %edi
.LVL98:
	je	.L17
.L15:
.LVL99:
	decl	%edi
.LVL100:
	.loc 1 106 0
	xorl	%eax, %eax
	incl	%edi
.LVL101:
.L19:
	.loc 1 124 0
	movzbl	(%esi,%eax), %edx
	addl	%edx, %ecx
.LVL102:
	.loc 1 125 0
	addl	%ecx, %ebx
.LVL103:
	incl	%eax
	.loc 1 123 0
	cmpl	%edi, %eax
	jne	.L19
.L17:
	.loc 1 127 0
	movl	$65521, %esi
	movl	%ecx, %eax
	xorl	%edx, %edx
	divl	%esi
	movl	%edx, %ecx
.LVL104:
	.loc 1 128 0
	movl	%ebx, %eax
	xorl	%edx, %edx
.LVL105:
	divl	%esi
	movl	%edx, %ebx
.LVL106:
	.loc 1 132 0
	movl	%ebx, %edx
	sall	$16, %edx
.LVL107:
	orl	%ecx, %edx
	jmp	.L32
.LVL108:
.L20:
	.loc 1 90 0
	movl	$1, %edx
	jmp	.L5
	.cfi_endproc
.LFE26:
	.size	adler32, .-adler32
	.p2align 2,,3
	.globl	adler32_combine
	.type	adler32_combine, @function
adler32_combine:
.LFB28:
	.loc 1 169 0
	.cfi_startproc
.LVL109:
	pushl	%ebp
.LCFI14:
	.cfi_def_cfa_offset 8
	.cfi_offset 5, -8
	pushl	%edi
.LCFI15:
	.cfi_def_cfa_offset 12
	.cfi_offset 7, -12
	pushl	%esi
.LCFI16:
	.cfi_def_cfa_offset 16
	.cfi_offset 6, -16
	pushl	%ebx
.LCFI17:
	.cfi_def_cfa_offset 20
	.cfi_offset 3, -20
	movl	24(%esp), %esi
	movl	28(%esp), %eax
.LVL110:
.LBB10:
.LBB11:
	.loc 1 146 0
	testl	%eax, %eax
	js	.L38
.LVL111:
.LBB12:
.LBB13:
	.loc 1 150 0
	movl	$65521, %ecx
	cltd
	idivl	%ecx
.LVL112:
	.loc 1 152 0
	movzwl	20(%esp), %ebx
.LVL113:
	.loc 1 153 0
	movl	%edx, %eax
	imull	%ebx, %eax
.LVL114:
	.loc 1 155 0
	movl	%esi, %edi
	andl	$65535, %edi
.LVL115:
	.loc 1 156 0
	shrl	$16, %esi
	movl	20(%esp), %ebp
	shrl	$16, %ebp
	addl	%ebp, %esi
	subl	%edx, %esi
	.loc 1 154 0
	xorl	%edx, %edx
	divl	%ecx
.LVL116:
	.loc 1 156 0
	addl	%edx, %esi
	leal	65521(%esi), %eax
.LVL117:
	.loc 1 157 0
	addl	%edi, %ebx
.LVL118:
	jne	.L40
	movl	$65520, %ecx
.L35:
.LVL119:
	.loc 1 159 0
	cmpl	$131041, %eax
	jbe	.L36
	leal	-65521(%esi), %eax
.LVL120:
.L36:
	.loc 1 160 0
	cmpl	$65520, %eax
	jbe	.L37
	subl	$65521, %eax
.LVL121:
.L37:
	.loc 1 161 0
	sall	$16, %eax
.LVL122:
	orl	%ecx, %eax
.LBE13:
.LBE12:
.LBE11:
.LBE10:
	.loc 1 171 0
	popl	%ebx
	.cfi_remember_state
.LCFI18:
	.cfi_def_cfa_offset 16
	.cfi_restore 3
	popl	%esi
.LCFI19:
	.cfi_def_cfa_offset 12
	.cfi_restore 6
	popl	%edi
.LCFI20:
	.cfi_def_cfa_offset 8
	.cfi_restore 7
	popl	%ebp
.LCFI21:
	.cfi_def_cfa_offset 4
	.cfi_restore 5
	ret
.LVL123:
	.p2align 2,,3
.L40:
.LCFI22:
	.cfi_restore_state
.LBB17:
.LBB16:
.LBB15:
.LBB14:
	.loc 1 157 0
	leal	-1(%ebx), %ecx
.LVL124:
	.loc 1 158 0
	cmpl	$65520, %ecx
	jbe	.L35
	leal	-65522(%ebx), %ecx
.LVL125:
	jmp	.L35
.LVL126:
	.p2align 2,,3
.L38:
.LBE14:
.LBE15:
	.loc 1 147 0
	movl	$-1, %eax
.LBE16:
.LBE17:
	.loc 1 171 0
	popl	%ebx
	.cfi_restore 3
.LCFI23:
	.cfi_def_cfa_offset 16
	popl	%esi
	.cfi_restore 6
.LCFI24:
	.cfi_def_cfa_offset 12
	popl	%edi
	.cfi_restore 7
.LCFI25:
	.cfi_def_cfa_offset 8
	popl	%ebp
	.cfi_restore 5
.LCFI26:
	.cfi_def_cfa_offset 4
	ret
	.cfi_endproc
.LFE28:
	.size	adler32_combine, .-adler32_combine
	.p2align 2,,3
	.globl	adler32_combine64
	.type	adler32_combine64, @function
adler32_combine64:
.LFB29:
	.loc 1 177 0
	.cfi_startproc
.LVL127:
	pushl	%ebp
.LCFI27:
	.cfi_def_cfa_offset 8
	.cfi_offset 5, -8
	pushl	%edi
.LCFI28:
	.cfi_def_cfa_offset 12
	.cfi_offset 7, -12
	pushl	%esi
.LCFI29:
	.cfi_def_cfa_offset 16
	.cfi_offset 6, -16
	pushl	%ebx
.LCFI30:
	.cfi_def_cfa_offset 20
	.cfi_offset 3, -20
	movl	24(%esp), %esi
	movl	28(%esp), %eax
.LVL128:
.LBB22:
.LBB23:
	.loc 1 146 0
	testl	%eax, %eax
	js	.L46
.LVL129:
.LBB24:
.LBB25:
	.loc 1 150 0
	movl	$65521, %ecx
	cltd
	idivl	%ecx
.LVL130:
	.loc 1 152 0
	movzwl	20(%esp), %ebx
.LVL131:
	.loc 1 153 0
	movl	%edx, %eax
	imull	%ebx, %eax
.LVL132:
	.loc 1 155 0
	movl	%esi, %edi
	andl	$65535, %edi
.LVL133:
	.loc 1 156 0
	shrl	$16, %esi
	movl	20(%esp), %ebp
	shrl	$16, %ebp
	addl	%ebp, %esi
	subl	%edx, %esi
	.loc 1 154 0
	xorl	%edx, %edx
	divl	%ecx
.LVL134:
	.loc 1 156 0
	addl	%edx, %esi
	leal	65521(%esi), %eax
.LVL135:
	.loc 1 157 0
	addl	%edi, %ebx
.LVL136:
	jne	.L48
	movl	$65520, %ecx
.L43:
.LVL137:
	.loc 1 159 0
	cmpl	$131041, %eax
	jbe	.L44
	leal	-65521(%esi), %eax
.LVL138:
.L44:
	.loc 1 160 0
	cmpl	$65520, %eax
	jbe	.L45
	subl	$65521, %eax
.LVL139:
.L45:
	.loc 1 161 0
	sall	$16, %eax
.LVL140:
	orl	%ecx, %eax
.LBE25:
.LBE24:
.LBE23:
.LBE22:
	.loc 1 179 0
	popl	%ebx
	.cfi_remember_state
.LCFI31:
	.cfi_def_cfa_offset 16
	.cfi_restore 3
	popl	%esi
.LCFI32:
	.cfi_def_cfa_offset 12
	.cfi_restore 6
	popl	%edi
.LCFI33:
	.cfi_def_cfa_offset 8
	.cfi_restore 7
	popl	%ebp
.LCFI34:
	.cfi_def_cfa_offset 4
	.cfi_restore 5
	ret
.LVL141:
	.p2align 2,,3
.L48:
.LCFI35:
	.cfi_restore_state
.LBB29:
.LBB28:
.LBB27:
.LBB26:
	.loc 1 157 0
	leal	-1(%ebx), %ecx
.LVL142:
	.loc 1 158 0
	cmpl	$65520, %ecx
	jbe	.L43
	leal	-65522(%ebx), %ecx
.LVL143:
	jmp	.L43
.LVL144:
	.p2align 2,,3
.L46:
.LBE26:
.LBE27:
	.loc 1 147 0
	movl	$-1, %eax
.LBE28:
.LBE29:
	.loc 1 179 0
	popl	%ebx
	.cfi_restore 3
.LCFI36:
	.cfi_def_cfa_offset 16
	popl	%esi
	.cfi_restore 6
.LCFI37:
	.cfi_def_cfa_offset 12
	popl	%edi
	.cfi_restore 7
.LCFI38:
	.cfi_def_cfa_offset 8
	popl	%ebp
	.cfi_restore 5
.LCFI39:
	.cfi_def_cfa_offset 4
	ret
	.cfi_endproc
.LFE29:
	.size	adler32_combine64, .-adler32_combine64
.Letext0:
	.file 2 "zconf.h"
	.file 3 "/home/anton/workspace/embox-trunk/./src/compat/posix/include/sys/types.h"
	.file 4 "/home/anton/workspace/embox-trunk/./src/include/../util/dlist_debug.h"
	.section	.note.GNU-stack,"",@progbits
