	.file	"compress.c"
	.text
.Ltext0:
	.section	.rodata.str1.1,"aMS",@progbits,1
.LC0:
	.string	"1.2.8"
	.text
	.p2align 2,,3
	.globl	compress2
	.type	compress2, @function
compress2:
.LFB21:
	.file 1 "compress.c"
	.loc 1 28 0
	.cfi_startproc
.LVL0:
	pushl	%edi
.LCFI0:
	.cfi_def_cfa_offset 8
	.cfi_offset 7, -8
	pushl	%esi
.LCFI1:
	.cfi_def_cfa_offset 12
	.cfi_offset 6, -12
	pushl	%ebx
.LCFI2:
	.cfi_def_cfa_offset 16
	.cfi_offset 3, -16
	subl	$80, %esp
.LCFI3:
	.cfi_def_cfa_offset 96
	movl	100(%esp), %edi
	.loc 1 32 0
	movl	104(%esp), %eax
	movl	%eax, 24(%esp)
	.loc 1 33 0
	movl	108(%esp), %eax
	movl	%eax, 28(%esp)
	.loc 1 38 0
	movl	96(%esp), %eax
	movl	%eax, 36(%esp)
	.loc 1 39 0
	movl	(%edi), %eax
	movl	%eax, 40(%esp)
	.loc 1 42 0
	movl	$0, 56(%esp)
	.loc 1 43 0
	movl	$0, 60(%esp)
	.loc 1 44 0
	movl	$0, 64(%esp)
	.loc 1 46 0
	movl	$56, 12(%esp)
	movl	$.LC0, 8(%esp)
	movl	112(%esp), %eax
	movl	%eax, 4(%esp)
	leal	24(%esp), %esi
	movl	%esi, (%esp)
	call	deflateInit_
	movl	%eax, %ebx
.LVL1:
	.loc 1 47 0
	testl	%eax, %eax
	je	.L5
.LVL2:
.L2:
	.loc 1 58 0
	movl	%ebx, %eax
	addl	$80, %esp
	.cfi_remember_state
.LCFI4:
	.cfi_def_cfa_offset 16
	popl	%ebx
.LCFI5:
	.cfi_def_cfa_offset 12
	.cfi_restore 3
	popl	%esi
.LCFI6:
	.cfi_def_cfa_offset 8
	.cfi_restore 6
	popl	%edi
.LCFI7:
	.cfi_def_cfa_offset 4
	.cfi_restore 7
	ret
.LVL3:
	.p2align 2,,3
.L5:
.LCFI8:
	.cfi_restore_state
	.loc 1 49 0
	movl	$4, 4(%esp)
	movl	%esi, (%esp)
	call	deflate
.LVL4:
	movl	%eax, %ebx
.LVL5:
	.loc 1 50 0
	cmpl	$1, %eax
	je	.L3
	.loc 1 51 0
	movl	%esi, (%esp)
	call	deflateEnd
.LVL6:
	.loc 1 52 0
	testl	%ebx, %ebx
	jne	.L2
	movl	$-5, %ebx
.LVL7:
	jmp	.L2
.LVL8:
	.p2align 2,,3
.L3:
	.loc 1 54 0
	movl	44(%esp), %eax
.LVL9:
	movl	%eax, (%edi)
	.loc 1 56 0
	movl	%esi, (%esp)
	call	deflateEnd
	movl	%eax, %ebx
.LVL10:
	.loc 1 57 0
	jmp	.L2
	.cfi_endproc
.LFE21:
	.size	compress2, .-compress2
	.p2align 2,,3
	.globl	compress
	.type	compress, @function
compress:
.LFB22:
	.loc 1 67 0
	.cfi_startproc
.LVL11:
	pushl	%edi
.LCFI9:
	.cfi_def_cfa_offset 8
	.cfi_offset 7, -8
	pushl	%esi
.LCFI10:
	.cfi_def_cfa_offset 12
	.cfi_offset 6, -12
	pushl	%ebx
.LCFI11:
	.cfi_def_cfa_offset 16
	.cfi_offset 3, -16
	subl	$80, %esp
.LCFI12:
	.cfi_def_cfa_offset 96
	movl	100(%esp), %edi
.LVL12:
.LBB4:
.LBB5:
	.loc 1 32 0
	movl	104(%esp), %eax
	movl	%eax, 24(%esp)
	.loc 1 33 0
	movl	108(%esp), %eax
	movl	%eax, 28(%esp)
	.loc 1 38 0
	movl	96(%esp), %eax
	movl	%eax, 36(%esp)
	.loc 1 39 0
	movl	(%edi), %eax
	movl	%eax, 40(%esp)
	.loc 1 42 0
	movl	$0, 56(%esp)
	.loc 1 43 0
	movl	$0, 60(%esp)
	.loc 1 44 0
	movl	$0, 64(%esp)
	.loc 1 46 0
	movl	$56, 12(%esp)
	movl	$.LC0, 8(%esp)
	movl	$-1, 4(%esp)
	leal	24(%esp), %esi
	movl	%esi, (%esp)
	call	deflateInit_
	movl	%eax, %ebx
.LVL13:
	.loc 1 47 0
	testl	%eax, %eax
	je	.L9
.LVL14:
.L7:
.LBE5:
.LBE4:
	.loc 1 69 0
	movl	%ebx, %eax
	addl	$80, %esp
	.cfi_remember_state
.LCFI13:
	.cfi_def_cfa_offset 16
	popl	%ebx
.LCFI14:
	.cfi_def_cfa_offset 12
	.cfi_restore 3
	popl	%esi
.LCFI15:
	.cfi_def_cfa_offset 8
	.cfi_restore 6
	popl	%edi
.LCFI16:
	.cfi_def_cfa_offset 4
	.cfi_restore 7
	ret
.LVL15:
	.p2align 2,,3
.L9:
.LCFI17:
	.cfi_restore_state
.LBB7:
.LBB6:
	.loc 1 49 0
	movl	$4, 4(%esp)
	movl	%esi, (%esp)
	call	deflate
.LVL16:
	movl	%eax, %ebx
.LVL17:
	.loc 1 50 0
	cmpl	$1, %eax
	je	.L8
	.loc 1 51 0
	movl	%esi, (%esp)
	call	deflateEnd
.LVL18:
	.loc 1 52 0
	testl	%ebx, %ebx
	jne	.L7
	movl	$-5, %ebx
.LVL19:
	jmp	.L7
.LVL20:
	.p2align 2,,3
.L8:
	.loc 1 54 0
	movl	44(%esp), %eax
.LVL21:
	movl	%eax, (%edi)
	.loc 1 56 0
	movl	%esi, (%esp)
	call	deflateEnd
	movl	%eax, %ebx
.LVL22:
	jmp	.L7
.LBE6:
.LBE7:
	.cfi_endproc
.LFE22:
	.size	compress, .-compress
	.p2align 2,,3
	.globl	compressBound
	.type	compressBound, @function
compressBound:
.LFB23:
	.loc 1 77 0
	.cfi_startproc
.LVL23:
	movl	4(%esp), %edx
	.loc 1 78 0
	movl	%edx, %eax
	shrl	$12, %eax
	leal	13(%edx,%eax), %ecx
	movl	%edx, %eax
	shrl	$14, %eax
	addl	%ecx, %eax
	.loc 1 79 0
	shrl	$25, %edx
	.loc 1 78 0
	addl	%edx, %eax
	.loc 1 80 0
	ret
	.cfi_endproc
.LFE23:
	.size	compressBound, .-compressBound
.Letext0:
	.file 2 "zconf.h"
	.file 3 "zlib.h"
	.file 4 "/home/anton/workspace/embox-trunk/./src/include/../util/dlist_debug.h"
	.section	.note.GNU-stack,"",@progbits
