	.file	"example.c"
	.text
.Ltext0:
	.section	.rodata.str1.1,"aMS",@progbits,1
.LC0:
	.string	"compress"
.LC1:
	.string	"%s error: %d\n"
.LC2:
	.string	"uncompress"
.LC3:
	.string	"bad uncompress\n"
.LC4:
	.string	"uncompress(): %s\n"
	.text
	.p2align 2,,3
	.globl	test_compress
	.type	test_compress, @function
test_compress:
.LFB27:
	.file 1 "test/example.c"
	.loc 1 91 0
	.cfi_startproc
.LVL0:
	pushl	%edi
.LCFI0:
	.cfi_def_cfa_offset 8
	.cfi_offset 7, -8
	pushl	%esi
.LCFI1:
	.cfi_def_cfa_offset 12
	.cfi_offset 6, -12
	pushl	%ebx
.LCFI2:
	.cfi_def_cfa_offset 16
	.cfi_offset 3, -16
	subl	$16, %esp
.LCFI3:
	.cfi_def_cfa_offset 32
	movl	32(%esp), %esi
	movl	40(%esp), %ebx
	.loc 1 93 0
	movl	$hello, %edi
	xorl	%eax, %eax
	movl	$-1, %ecx
	repnz scasb
	notl	%ecx
	.loc 1 95 0
	movl	%ecx, 12(%esp)
	movl	$hello, 8(%esp)
	leal	36(%esp), %eax
	movl	%eax, 4(%esp)
	movl	%esi, (%esp)
	call	compress
.LVL1:
	.loc 1 96 0
	testl	%eax, %eax
	jne	.L7
	.loc 1 98 0
	movl	$1651663207, (%ebx)
	movl	$6645601, 4(%ebx)
	.loc 1 100 0
	movl	36(%esp), %eax
.LVL2:
	movl	%eax, 12(%esp)
	movl	%esi, 8(%esp)
	leal	44(%esp), %eax
	movl	%eax, 4(%esp)
	movl	%ebx, (%esp)
	call	uncompress
.LVL3:
	.loc 1 101 0
	testl	%eax, %eax
	jne	.L8
	.loc 1 103 0
	movl	$hello, 4(%esp)
	movl	%ebx, (%esp)
	call	strcmp
.LVL4:
	testl	%eax, %eax
	jne	.L9
	.loc 1 107 0
	movl	%ebx, 4(%esp)
	movl	$.LC4, (%esp)
	call	printf
	.loc 1 109 0
	addl	$16, %esp
	.cfi_remember_state
.LCFI4:
	.cfi_def_cfa_offset 16
	popl	%ebx
.LCFI5:
	.cfi_def_cfa_offset 12
	.cfi_restore 3
	popl	%esi
.LCFI6:
	.cfi_def_cfa_offset 8
	.cfi_restore 6
	popl	%edi
.LCFI7:
	.cfi_def_cfa_offset 4
	.cfi_restore 7
	ret
.LVL5:
.L7:
.LCFI8:
	.cfi_restore_state
	.loc 1 96 0 discriminator 1
	movl	%eax, 12(%esp)
	movl	$.LC0, 8(%esp)
.L5:
	.loc 1 101 0 discriminator 1
	movl	$.LC1, 4(%esp)
	movl	stderr, %eax
.LVL6:
	movl	%eax, (%esp)
	call	fprintf
.LVL7:
	movl	$1, (%esp)
	call	exit
.L9:
	.loc 1 104 0
	movl	stderr, %eax
	movl	%eax, 12(%esp)
	movl	$15, 8(%esp)
	movl	$1, 4(%esp)
	movl	$.LC3, (%esp)
	call	fwrite
	.loc 1 105 0
	movl	$1, (%esp)
	call	exit
.LVL8:
.L8:
	.loc 1 101 0 discriminator 1
	movl	%eax, 12(%esp)
	movl	$.LC2, 8(%esp)
	jmp	.L5
	.cfi_endproc
.LFE27:
	.size	test_compress, .-test_compress
	.section	.rodata.str1.1
.LC5:
	.string	"wb"
.LC6:
	.string	"gzopen error\n"
.LC7:
	.string	"ello"
.LC8:
	.string	"gzputs err: %s\n"
.LC9:
	.string	"hello"
.LC10:
	.string	", %s!"
.LC11:
	.string	"gzprintf err: %s\n"
.LC12:
	.string	"rb"
.LC13:
	.string	"gzread err: %s\n"
.LC14:
	.string	"bad gzread: %s\n"
.LC15:
	.string	"gzread(): %s\n"
	.section	.rodata.str1.4,"aMS",@progbits,1
	.align 4
.LC16:
	.string	"gzseek error, pos=%ld, gztell=%ld\n"
	.section	.rodata.str1.1
.LC17:
	.string	"gzgetc error\n"
.LC18:
	.string	"gzungetc error\n"
.LC19:
	.string	"gzgets err after gzseek: %s\n"
.LC20:
	.string	"bad gzgets after gzseek\n"
.LC21:
	.string	"gzgets() after gzseek: %s\n"
	.text
	.p2align 2,,3
	.globl	test_gzio
	.type	test_gzio, @function
test_gzio:
.LFB28:
	.loc 1 118 0
	.cfi_startproc
.LVL9:
	pushl	%ebp
.LCFI9:
	.cfi_def_cfa_offset 8
	.cfi_offset 5, -8
	pushl	%edi
.LCFI10:
	.cfi_def_cfa_offset 12
	.cfi_offset 7, -12
	pushl	%esi
.LCFI11:
	.cfi_def_cfa_offset 16
	.cfi_offset 6, -16
	pushl	%ebx
.LCFI12:
	.cfi_def_cfa_offset 20
	.cfi_offset 3, -20
	subl	$60, %esp
.LCFI13:
	.cfi_def_cfa_offset 80
	movl	80(%esp), %ebx
	movl	84(%esp), %esi
	.loc 1 123 0
	movl	$hello, %edi
	xorl	%eax, %eax
	movl	$-1, %ecx
	repnz scasb
	movl	%ecx, %ebp
	notl	%ebp
	.loc 1 127 0
	movl	$.LC5, 4(%esp)
	movl	%ebx, (%esp)
	call	gzopen
	movl	%eax, %edi
.LVL10:
	.loc 1 128 0
	testl	%eax, %eax
	je	.L25
	.loc 1 132 0
	movl	$104, 4(%esp)
	movl	%eax, (%esp)
	call	gzputc
.LVL11:
	.loc 1 133 0
	movl	$.LC7, 4(%esp)
	movl	%edi, (%esp)
	call	gzputs
	cmpl	$4, %eax
	jne	.L27
	.loc 1 137 0
	movl	$.LC9, 8(%esp)
	movl	$.LC10, 4(%esp)
	movl	%edi, (%esp)
	call	gzprintf
	cmpl	$8, %eax
	jne	.L28
	.loc 1 141 0
	movl	$1, 8(%esp)
	movl	$1, 4(%esp)
	movl	%edi, (%esp)
	call	gzseek
	.loc 1 142 0
	movl	%edi, (%esp)
	call	gzclose
	.loc 1 144 0
	movl	$.LC12, 4(%esp)
	movl	%ebx, (%esp)
	call	gzopen
	movl	%eax, %ebx
.LVL12:
	.loc 1 145 0
	testl	%eax, %eax
	je	.L25
	.loc 1 149 0
	movl	$1651663207, (%esi)
	movl	$6645601, 4(%esi)
	.loc 1 151 0
	movl	88(%esp), %eax
.LVL13:
	movl	%eax, 8(%esp)
	movl	%esi, 4(%esp)
	movl	%ebx, (%esp)
	call	gzread
	cmpl	%ebp, %eax
	jne	.L29
	.loc 1 155 0
	movl	$hello, 4(%esp)
	movl	%esi, (%esp)
	call	strcmp
	testl	%eax, %eax
	jne	.L30
	.loc 1 159 0
	movl	%esi, 4(%esp)
	movl	$.LC15, (%esp)
	call	printf
	.loc 1 162 0
	movl	$1, 8(%esp)
	movl	$-8, 4(%esp)
	movl	%ebx, (%esp)
	call	gzseek
	movl	%eax, %edi
.LVL14:
	.loc 1 163 0
	cmpl	$6, %eax
	jne	.L17
	.loc 1 163 0 is_stmt 0 discriminator 1
	movl	%ebx, (%esp)
	call	gztell
.LVL15:
	cmpl	$6, %eax
	jne	.L17
	.loc 1 169 0 is_stmt 1
	movl	(%ebx), %eax
	testl	%eax, %eax
	je	.L19
	.loc 1 169 0 is_stmt 0 discriminator 1
	decl	%eax
	movl	%eax, (%ebx)
	incl	8(%ebx)
	movl	4(%ebx), %eax
	cmpb	$32, (%eax)
	setne	31(%esp)
	incl	%eax
	movl	%eax, 4(%ebx)
.L20:
	.loc 1 169 0 discriminator 3
	cmpb	$0, 31(%esp)
	jne	.L31
	.loc 1 174 0 is_stmt 1
	movl	%ebx, 4(%esp)
	movl	$32, (%esp)
	call	gzungetc
	cmpl	$32, %eax
	jne	.L32
	.loc 1 179 0
	movl	88(%esp), %eax
	movl	%eax, 8(%esp)
	movl	%esi, 4(%esp)
	movl	%ebx, (%esp)
	call	gzgets
	.loc 1 180 0
	movl	$-1, %ecx
	movl	%esi, %edi
.LVL16:
	movb	31(%esp), %al
	repnz scasb
.LVL17:
	cmpl	$-9, %ecx
	jne	.L33
	.loc 1 184 0
	movl	$hello+6, 4(%esp)
	movl	%esi, (%esp)
	call	strcmp
	testl	%eax, %eax
	jne	.L34
	.loc 1 188 0
	movl	%esi, 4(%esp)
	movl	$.LC21, (%esp)
	call	printf
	.loc 1 191 0
	movl	%ebx, (%esp)
	call	gzclose
	.loc 1 193 0
	addl	$60, %esp
	.cfi_remember_state
.LCFI14:
	.cfi_def_cfa_offset 20
	popl	%ebx
.LCFI15:
	.cfi_def_cfa_offset 16
	.cfi_restore 3
.LVL18:
	popl	%esi
.LCFI16:
	.cfi_def_cfa_offset 12
	.cfi_restore 6
	popl	%edi
.LCFI17:
	.cfi_def_cfa_offset 8
	.cfi_restore 7
	popl	%ebp
.LCFI18:
	.cfi_def_cfa_offset 4
	.cfi_restore 5
	ret
.LVL19:
	.p2align 2,,3
.L19:
.LCFI19:
	.cfi_restore_state
	.loc 1 169 0 discriminator 2
	movl	%ebx, (%esp)
	call	gzgetc
	cmpl	$32, %eax
	setne	31(%esp)
	jmp	.L20
.L17:
	.loc 1 165 0
	movl	%ebx, (%esp)
	call	gztell
	.loc 1 164 0
	movl	%eax, 12(%esp)
	movl	%edi, 8(%esp)
	movl	$.LC16, 4(%esp)
	movl	stderr, %eax
	movl	%eax, (%esp)
	call	fprintf
	.loc 1 166 0
	movl	$1, (%esp)
	call	exit
.LVL20:
.L25:
	.loc 1 146 0
	movl	stderr, %eax
.LVL21:
	movl	%eax, 12(%esp)
	movl	$13, 8(%esp)
	movl	$1, 4(%esp)
	movl	$.LC6, (%esp)
	call	fwrite
	.loc 1 147 0
	movl	$1, (%esp)
	call	exit
.LVL22:
.L28:
	.loc 1 138 0
	leal	44(%esp), %eax
	movl	%eax, 4(%esp)
	movl	%edi, (%esp)
	call	gzerror
	movl	%eax, 8(%esp)
	movl	$.LC11, 4(%esp)
.LVL23:
.L26:
	movl	stderr, %eax
	movl	%eax, (%esp)
	call	fprintf
	.loc 1 139 0
	movl	$1, (%esp)
	call	exit
.LVL24:
.L31:
	.loc 1 170 0
	movl	stderr, %eax
	movl	%eax, 12(%esp)
	movl	$13, 8(%esp)
	movl	$1, 4(%esp)
	movl	$.LC17, (%esp)
	call	fwrite
	.loc 1 171 0
	movl	$1, (%esp)
	call	exit
.LVL25:
.L29:
	.loc 1 152 0
	leal	44(%esp), %eax
	movl	%eax, 4(%esp)
	movl	%ebx, (%esp)
	call	gzerror
	movl	%eax, 8(%esp)
	movl	$.LC13, 4(%esp)
	jmp	.L26
.L30:
	.loc 1 156 0
	movl	%esi, 8(%esp)
	movl	$.LC14, 4(%esp)
	jmp	.L26
.LVL26:
.L34:
	.loc 1 185 0
	movl	stderr, %eax
	movl	%eax, 12(%esp)
	movl	$24, 8(%esp)
	movl	$1, 4(%esp)
	movl	$.LC20, (%esp)
	call	fwrite
	.loc 1 186 0
	movl	$1, (%esp)
	call	exit
.L33:
	.loc 1 181 0
	leal	44(%esp), %eax
	movl	%eax, 4(%esp)
	movl	%ebx, (%esp)
	call	gzerror
	movl	%eax, 8(%esp)
	movl	$.LC19, 4(%esp)
	jmp	.L26
.LVL27:
.L32:
	.loc 1 175 0
	movl	stderr, %eax
	movl	%eax, 12(%esp)
	movl	$15, 8(%esp)
	movl	$1, 4(%esp)
	movl	$.LC18, (%esp)
	call	fwrite
	.loc 1 176 0
	movl	$1, (%esp)
	call	exit
.LVL28:
.L27:
	.loc 1 134 0
	leal	44(%esp), %eax
	movl	%eax, 4(%esp)
	movl	%edi, (%esp)
	call	gzerror
	movl	%eax, 8(%esp)
	movl	$.LC8, 4(%esp)
	jmp	.L26
	.cfi_endproc
.LFE28:
	.size	test_gzio, .-test_gzio
	.section	.rodata.str1.1
.LC22:
	.string	"1.2.8"
.LC23:
	.string	"deflateInit"
.LC24:
	.string	"deflate"
.LC25:
	.string	"deflateEnd"
	.text
	.p2align 2,,3
	.globl	test_deflate
	.type	test_deflate, @function
test_deflate:
.LFB29:
	.loc 1 203 0
	.cfi_startproc
.LVL29:
	pushl	%edi
.LCFI20:
	.cfi_def_cfa_offset 8
	.cfi_offset 7, -8
	pushl	%esi
.LCFI21:
	.cfi_def_cfa_offset 12
	.cfi_offset 6, -12
	pushl	%ebx
.LCFI22:
	.cfi_def_cfa_offset 16
	.cfi_offset 3, -16
	subl	$80, %esp
.LCFI23:
	.cfi_def_cfa_offset 96
	movl	100(%esp), %ebx
	.loc 1 206 0
	movl	$hello, %edi
	xorl	%eax, %eax
	movl	$-1, %ecx
	repnz scasb
	movl	%ecx, %esi
	notl	%esi
.LVL30:
	.loc 1 208 0
	movl	$0, 56(%esp)
	.loc 1 209 0
	movl	$0, 60(%esp)
	.loc 1 210 0
	movl	$0, 64(%esp)
	.loc 1 212 0
	movl	$56, 12(%esp)
	movl	$.LC22, 8(%esp)
	movl	$-1, 4(%esp)
	leal	24(%esp), %edi
	movl	%edi, (%esp)
	call	deflateInit_
.LVL31:
	.loc 1 213 0
	testl	%eax, %eax
	jne	.L47
	.loc 1 215 0
	movl	$hello, 24(%esp)
	.loc 1 216 0
	movl	96(%esp), %eax
.LVL32:
	movl	%eax, 36(%esp)
	.loc 1 218 0
	jmp	.L37
	.p2align 2,,3
.L48:
	.loc 1 218 0 is_stmt 0 discriminator 2
	cmpl	%ebx, 44(%esp)
	jae	.L42
	.loc 1 219 0 is_stmt 1
	movl	$1, 40(%esp)
	movl	$1, 28(%esp)
	.loc 1 220 0
	movl	$0, 4(%esp)
	movl	%edi, (%esp)
	call	deflate
.LVL33:
	.loc 1 221 0
	testl	%eax, %eax
	jne	.L46
.LVL34:
.L37:
	.loc 1 218 0 discriminator 1
	cmpl	%esi, 32(%esp)
	jne	.L48
	jmp	.L42
.LVL35:
	.p2align 2,,3
.L49:
	.loc 1 228 0
	testl	%eax, %eax
	jne	.L46
.LVL36:
.L42:
	.loc 1 225 0
	movl	$1, 40(%esp)
	.loc 1 226 0
	movl	$4, 4(%esp)
	movl	%edi, (%esp)
	call	deflate
.LVL37:
	.loc 1 227 0
	cmpl	$1, %eax
	jne	.L49
	.loc 1 231 0
	movl	%edi, (%esp)
	call	deflateEnd
.LVL38:
	.loc 1 232 0
	testl	%eax, %eax
	jne	.L50
	.loc 1 233 0
	addl	$80, %esp
	.cfi_remember_state
.LCFI24:
	.cfi_def_cfa_offset 16
	popl	%ebx
.LCFI25:
	.cfi_def_cfa_offset 12
	.cfi_restore 3
	popl	%esi
.LCFI26:
	.cfi_def_cfa_offset 8
	.cfi_restore 6
.LVL39:
	popl	%edi
.LCFI27:
	.cfi_def_cfa_offset 4
	.cfi_restore 7
	ret
.LVL40:
.L46:
.LCFI28:
	.cfi_restore_state
	.loc 1 221 0
	movl	%eax, 12(%esp)
	movl	$.LC24, 8(%esp)
.L45:
	movl	$.LC1, 4(%esp)
	movl	stderr, %eax
.LVL41:
	movl	%eax, (%esp)
	call	fprintf
.LVL42:
	movl	$1, (%esp)
	call	exit
.LVL43:
.L47:
	.loc 1 213 0 discriminator 1
	movl	%eax, 12(%esp)
	movl	$.LC23, 8(%esp)
	jmp	.L45
.L50:
	.loc 1 232 0 discriminator 1
	movl	%eax, 12(%esp)
	movl	$.LC25, 8(%esp)
	jmp	.L45
	.cfi_endproc
.LFE29:
	.size	test_deflate, .-test_deflate
	.section	.rodata.str1.1
.LC26:
	.string	"inflateInit"
.LC27:
	.string	"inflate"
.LC28:
	.string	"inflateEnd"
.LC29:
	.string	"bad inflate\n"
.LC30:
	.string	"inflate(): %s\n"
	.text
	.p2align 2,,3
	.globl	test_inflate
	.type	test_inflate, @function
test_inflate:
.LFB30:
	.loc 1 241 0
	.cfi_startproc
.LVL44:
	pushl	%ebp
.LCFI29:
	.cfi_def_cfa_offset 8
	.cfi_offset 5, -8
	pushl	%edi
.LCFI30:
	.cfi_def_cfa_offset 12
	.cfi_offset 7, -12
	pushl	%esi
.LCFI31:
	.cfi_def_cfa_offset 16
	.cfi_offset 6, -16
	pushl	%ebx
.LCFI32:
	.cfi_def_cfa_offset 20
	.cfi_offset 3, -20
	subl	$92, %esp
.LCFI33:
	.cfi_def_cfa_offset 112
	movl	116(%esp), %edi
	movl	120(%esp), %ebp
	movl	124(%esp), %esi
	.loc 1 245 0
	movl	$1651663207, 0(%ebp)
	movl	$6645601, 4(%ebp)
	.loc 1 247 0
	movl	$0, 56(%esp)
	.loc 1 248 0
	movl	$0, 60(%esp)
	.loc 1 249 0
	movl	$0, 64(%esp)
	.loc 1 251 0
	movl	112(%esp), %eax
	movl	%eax, 24(%esp)
	.loc 1 252 0
	movl	$0, 28(%esp)
	.loc 1 253 0
	movl	%ebp, 36(%esp)
	.loc 1 255 0
	movl	$56, 8(%esp)
	movl	$.LC22, 4(%esp)
	leal	24(%esp), %ebx
	movl	%ebx, (%esp)
	call	inflateInit_
.LVL45:
	.loc 1 256 0
	testl	%eax, %eax
	je	.L57
	jmp	.L65
	.p2align 2,,3
.L62:
	.loc 1 258 0 discriminator 2
	cmpl	%edi, 32(%esp)
	jae	.L53
	.loc 1 259 0
	movl	$1, 40(%esp)
	movl	$1, 28(%esp)
	.loc 1 260 0
	movl	$0, 4(%esp)
	movl	%ebx, (%esp)
	call	inflate
.LVL46:
	.loc 1 261 0
	cmpl	$1, %eax
	je	.L53
	.loc 1 262 0
	testl	%eax, %eax
	jne	.L61
.L57:
	.loc 1 258 0 discriminator 1
	cmpl	%esi, 44(%esp)
	jb	.L62
.L53:
	.loc 1 265 0
	movl	%ebx, (%esp)
	call	inflateEnd
.LVL47:
	.loc 1 266 0
	testl	%eax, %eax
	jne	.L63
	.loc 1 268 0
	movl	$hello, 4(%esp)
	movl	%ebp, (%esp)
	call	strcmp
.LVL48:
	testl	%eax, %eax
	jne	.L64
	.loc 1 272 0
	movl	%ebp, 4(%esp)
	movl	$.LC30, (%esp)
	call	printf
	.loc 1 274 0
	addl	$92, %esp
	.cfi_remember_state
.LCFI34:
	.cfi_def_cfa_offset 20
	popl	%ebx
.LCFI35:
	.cfi_def_cfa_offset 16
	.cfi_restore 3
	popl	%esi
.LCFI36:
	.cfi_def_cfa_offset 12
	.cfi_restore 6
	popl	%edi
.LCFI37:
	.cfi_def_cfa_offset 8
	.cfi_restore 7
	popl	%ebp
.LCFI38:
	.cfi_def_cfa_offset 4
	.cfi_restore 5
	ret
.LVL49:
.L61:
.LCFI39:
	.cfi_restore_state
	.loc 1 262 0
	movl	%eax, 12(%esp)
	movl	$.LC27, 8(%esp)
.L59:
	movl	$.LC1, 4(%esp)
	movl	stderr, %eax
.LVL50:
	movl	%eax, (%esp)
	call	fprintf
.LVL51:
	movl	$1, (%esp)
	call	exit
.LVL52:
.L65:
	.loc 1 256 0 discriminator 1
	movl	%eax, 12(%esp)
	movl	$.LC26, 8(%esp)
	jmp	.L59
.LVL53:
.L64:
	.loc 1 269 0
	movl	stderr, %eax
	movl	%eax, 12(%esp)
	movl	$12, 8(%esp)
	movl	$1, 4(%esp)
	movl	$.LC29, (%esp)
	call	fwrite
	.loc 1 270 0
	movl	$1, (%esp)
	call	exit
.LVL54:
.L63:
	.loc 1 266 0 discriminator 1
	movl	%eax, 12(%esp)
	movl	$.LC28, 8(%esp)
	jmp	.L59
	.cfi_endproc
.LFE30:
	.size	test_inflate, .-test_inflate
	.section	.rodata.str1.1
.LC31:
	.string	"deflate not greedy\n"
	.section	.rodata.str1.4
	.align 4
.LC32:
	.string	"deflate should report Z_STREAM_END\n"
	.text
	.p2align 2,,3
	.globl	test_large_deflate
	.type	test_large_deflate, @function
test_large_deflate:
.LFB31:
	.loc 1 282 0
	.cfi_startproc
.LVL55:
	pushl	%ebp
.LCFI40:
	.cfi_def_cfa_offset 8
	.cfi_offset 5, -8
	pushl	%edi
.LCFI41:
	.cfi_def_cfa_offset 12
	.cfi_offset 7, -12
	pushl	%esi
.LCFI42:
	.cfi_def_cfa_offset 16
	.cfi_offset 6, -16
	pushl	%ebx
.LCFI43:
	.cfi_def_cfa_offset 20
	.cfi_offset 3, -20
	subl	$92, %esp
.LCFI44:
	.cfi_def_cfa_offset 112
	movl	116(%esp), %ebp
	movl	120(%esp), %edi
	movl	124(%esp), %esi
	.loc 1 286 0
	movl	$0, 56(%esp)
	.loc 1 287 0
	movl	$0, 60(%esp)
	.loc 1 288 0
	movl	$0, 64(%esp)
	.loc 1 290 0
	movl	$56, 12(%esp)
	movl	$.LC22, 8(%esp)
	movl	$1, 4(%esp)
	leal	24(%esp), %ebx
	movl	%ebx, (%esp)
	call	deflateInit_
.LVL56:
	.loc 1 291 0
	testl	%eax, %eax
	jne	.L76
	.loc 1 293 0
	movl	112(%esp), %eax
.LVL57:
	movl	%eax, 36(%esp)
	.loc 1 294 0
	movl	%ebp, 40(%esp)
	.loc 1 299 0
	movl	%edi, 24(%esp)
	.loc 1 300 0
	movl	%esi, 28(%esp)
	.loc 1 301 0
	movl	$0, 4(%esp)
	movl	%ebx, (%esp)
	call	deflate
.LVL58:
	.loc 1 302 0
	testl	%eax, %eax
	jne	.L75
	.loc 1 303 0
	movl	28(%esp), %eax
.LVL59:
	testl	%eax, %eax
	jne	.L77
	.loc 1 309 0
	movl	$0, 8(%esp)
	movl	$0, 4(%esp)
	movl	%ebx, (%esp)
	call	deflateParams
	.loc 1 310 0
	movl	112(%esp), %eax
	movl	%eax, 24(%esp)
	.loc 1 311 0
	shrl	%ebp
	movl	%ebp, 28(%esp)
	.loc 1 312 0
	movl	$0, 4(%esp)
	movl	%ebx, (%esp)
	call	deflate
.LVL60:
	.loc 1 313 0
	testl	%eax, %eax
	jne	.L75
	.loc 1 316 0
	movl	$1, 8(%esp)
	movl	$9, 4(%esp)
	movl	%ebx, (%esp)
	call	deflateParams
.LVL61:
	.loc 1 317 0
	movl	%edi, 24(%esp)
	.loc 1 318 0
	movl	%esi, 28(%esp)
	.loc 1 319 0
	movl	$0, 4(%esp)
	movl	%ebx, (%esp)
	call	deflate
.LVL62:
	.loc 1 320 0
	testl	%eax, %eax
	jne	.L75
	.loc 1 322 0
	movl	$4, 4(%esp)
	movl	%ebx, (%esp)
	call	deflate
.LVL63:
	.loc 1 323 0
	decl	%eax
.LVL64:
	jne	.L78
	.loc 1 327 0
	movl	%ebx, (%esp)
	call	deflateEnd
.LVL65:
	.loc 1 328 0
	testl	%eax, %eax
	jne	.L79
	.loc 1 329 0
	addl	$92, %esp
	.cfi_remember_state
.LCFI45:
	.cfi_def_cfa_offset 20
	popl	%ebx
.LCFI46:
	.cfi_def_cfa_offset 16
	.cfi_restore 3
	popl	%esi
.LCFI47:
	.cfi_def_cfa_offset 12
	.cfi_restore 6
	popl	%edi
.LCFI48:
	.cfi_def_cfa_offset 8
	.cfi_restore 7
	popl	%ebp
.LCFI49:
	.cfi_def_cfa_offset 4
	.cfi_restore 5
	ret
.L75:
.LCFI50:
	.cfi_restore_state
	.loc 1 302 0 discriminator 1
	movl	%eax, 12(%esp)
	movl	$.LC24, 8(%esp)
.L74:
	movl	$.LC1, 4(%esp)
	movl	stderr, %eax
.LVL66:
	movl	%eax, (%esp)
	call	fprintf
.LVL67:
	movl	$1, (%esp)
	call	exit
.LVL68:
.L76:
	.loc 1 291 0 discriminator 1
	movl	%eax, 12(%esp)
	movl	$.LC23, 8(%esp)
	jmp	.L74
.L79:
	.loc 1 328 0 discriminator 1
	movl	%eax, 12(%esp)
	movl	$.LC25, 8(%esp)
	jmp	.L74
.LVL69:
.L78:
	.loc 1 324 0
	movl	stderr, %eax
	movl	%eax, 12(%esp)
	movl	$35, 8(%esp)
	movl	$1, 4(%esp)
	movl	$.LC32, (%esp)
	call	fwrite
	.loc 1 325 0
	movl	$1, (%esp)
	call	exit
.L77:
	.loc 1 304 0
	movl	stderr, %eax
	movl	%eax, 12(%esp)
	movl	$19, 8(%esp)
	movl	$1, 4(%esp)
	movl	$.LC31, (%esp)
	call	fwrite
	.loc 1 305 0
	movl	$1, (%esp)
	call	exit
	.cfi_endproc
.LFE31:
	.size	test_large_deflate, .-test_large_deflate
	.section	.rodata.str1.1
.LC33:
	.string	"large inflate"
.LC34:
	.string	"bad large inflate: %ld\n"
.LC35:
	.string	"large_inflate(): OK"
	.text
	.p2align 2,,3
	.globl	test_large_inflate
	.type	test_large_inflate, @function
test_large_inflate:
.LFB32:
	.loc 1 337 0
	.cfi_startproc
.LVL70:
	pushl	%ebp
.LCFI51:
	.cfi_def_cfa_offset 8
	.cfi_offset 5, -8
	pushl	%edi
.LCFI52:
	.cfi_def_cfa_offset 12
	.cfi_offset 7, -12
	pushl	%esi
.LCFI53:
	.cfi_def_cfa_offset 16
	.cfi_offset 6, -16
	pushl	%ebx
.LCFI54:
	.cfi_def_cfa_offset 20
	.cfi_offset 3, -20
	subl	$92, %esp
.LCFI55:
	.cfi_def_cfa_offset 112
	movl	116(%esp), %ebp
	movl	120(%esp), %esi
	movl	124(%esp), %edi
	.loc 1 341 0
	movl	$1651663207, (%esi)
	movl	$6645601, 4(%esi)
	.loc 1 343 0
	movl	$0, 56(%esp)
	.loc 1 344 0
	movl	$0, 60(%esp)
	.loc 1 345 0
	movl	$0, 64(%esp)
	.loc 1 347 0
	movl	112(%esp), %eax
	movl	%eax, 24(%esp)
	.loc 1 348 0
	movl	%ebp, 28(%esp)
	.loc 1 350 0
	movl	$56, 8(%esp)
	movl	$.LC22, 4(%esp)
	leal	24(%esp), %ebx
	movl	%ebx, (%esp)
	call	inflateInit_
.LVL71:
	.loc 1 351 0
	testl	%eax, %eax
	je	.L85
	jmp	.L93
	.p2align 2,,3
.L90:
	.loc 1 358 0
	testl	%eax, %eax
	jne	.L89
.L85:
	.loc 1 354 0
	movl	%esi, 36(%esp)
	.loc 1 355 0
	movl	%edi, 40(%esp)
	.loc 1 356 0
	movl	$0, 4(%esp)
	movl	%ebx, (%esp)
	call	inflate
.LVL72:
	.loc 1 357 0
	cmpl	$1, %eax
	jne	.L90
	.loc 1 361 0
	movl	%ebx, (%esp)
	call	inflateEnd
.LVL73:
	.loc 1 362 0
	testl	%eax, %eax
	jne	.L91
	.loc 1 364 0
	movl	44(%esp), %eax
.LVL74:
	shrl	%ebp
	leal	0(%ebp,%edi,2), %edx
	cmpl	%edx, %eax
	jne	.L92
	.loc 1 368 0
	movl	$.LC35, (%esp)
	call	puts
	.loc 1 370 0
	addl	$92, %esp
	.cfi_remember_state
.LCFI56:
	.cfi_def_cfa_offset 20
	popl	%ebx
.LCFI57:
	.cfi_def_cfa_offset 16
	.cfi_restore 3
	popl	%esi
.LCFI58:
	.cfi_def_cfa_offset 12
	.cfi_restore 6
	popl	%edi
.LCFI59:
	.cfi_def_cfa_offset 8
	.cfi_restore 7
	popl	%ebp
.LCFI60:
	.cfi_def_cfa_offset 4
	.cfi_restore 5
	ret
.LVL75:
.L89:
.LCFI61:
	.cfi_restore_state
	.loc 1 358 0
	movl	%eax, 12(%esp)
	movl	$.LC33, 8(%esp)
.L87:
	movl	$.LC1, 4(%esp)
	movl	stderr, %eax
.LVL76:
	movl	%eax, (%esp)
	call	fprintf
.LVL77:
	movl	$1, (%esp)
	call	exit
.LVL78:
.L93:
	.loc 1 351 0 discriminator 1
	movl	%eax, 12(%esp)
	movl	$.LC26, 8(%esp)
	jmp	.L87
.LVL79:
.L92:
	.loc 1 365 0
	movl	%eax, 8(%esp)
	movl	$.LC34, 4(%esp)
	movl	stderr, %eax
	movl	%eax, (%esp)
	call	fprintf
	.loc 1 366 0
	movl	$1, (%esp)
	call	exit
.LVL80:
.L91:
	.loc 1 362 0 discriminator 1
	movl	%eax, 12(%esp)
	movl	$.LC28, 8(%esp)
	jmp	.L87
	.cfi_endproc
.LFE32:
	.size	test_large_inflate, .-test_large_inflate
	.p2align 2,,3
	.globl	test_flush
	.type	test_flush, @function
test_flush:
.LFB33:
	.loc 1 378 0
	.cfi_startproc
.LVL81:
	pushl	%ebp
.LCFI62:
	.cfi_def_cfa_offset 8
	.cfi_offset 5, -8
	pushl	%edi
.LCFI63:
	.cfi_def_cfa_offset 12
	.cfi_offset 7, -12
	pushl	%esi
.LCFI64:
	.cfi_def_cfa_offset 16
	.cfi_offset 6, -16
	pushl	%ebx
.LCFI65:
	.cfi_def_cfa_offset 20
	.cfi_offset 3, -20
	subl	$92, %esp
.LCFI66:
	.cfi_def_cfa_offset 112
	movl	112(%esp), %ebx
	movl	116(%esp), %esi
	.loc 1 381 0
	movl	$hello, %edi
	xorl	%eax, %eax
	movl	$-1, %ecx
	repnz scasb
	movl	%ecx, %ebp
	notl	%ebp
	.loc 1 383 0
	movl	$0, 56(%esp)
	.loc 1 384 0
	movl	$0, 60(%esp)
	.loc 1 385 0
	movl	$0, 64(%esp)
	.loc 1 387 0
	movl	$56, 12(%esp)
	movl	$.LC22, 8(%esp)
	movl	$-1, 4(%esp)
	leal	24(%esp), %edi
	movl	%edi, (%esp)
	call	deflateInit_
.LVL82:
	.loc 1 388 0
	testl	%eax, %eax
	jne	.L101
	.loc 1 390 0
	movl	$hello, 24(%esp)
	.loc 1 391 0
	movl	%ebx, 36(%esp)
	.loc 1 392 0
	movl	$3, 28(%esp)
	.loc 1 393 0
	movl	(%esi), %eax
.LVL83:
	movl	%eax, 40(%esp)
	.loc 1 394 0
	movl	$3, 4(%esp)
	movl	%edi, (%esp)
	call	deflate
.LVL84:
	.loc 1 395 0
	testl	%eax, %eax
	jne	.L100
	.loc 1 397 0
	incb	3(%ebx)
	.loc 1 398 0
	subl	$3, %ebp
	movl	%ebp, 28(%esp)
	.loc 1 400 0
	movl	$4, 4(%esp)
	movl	%edi, (%esp)
	call	deflate
.LVL85:
	.loc 1 401 0
	cmpl	$1, %eax
	je	.L97
	.loc 1 402 0
	testl	%eax, %eax
	jne	.L100
.L97:
	.loc 1 404 0
	movl	%edi, (%esp)
	call	deflateEnd
.LVL86:
	.loc 1 405 0
	testl	%eax, %eax
	jne	.L102
	.loc 1 407 0
	movl	44(%esp), %eax
.LVL87:
	movl	%eax, (%esi)
	.loc 1 408 0
	addl	$92, %esp
	.cfi_remember_state
.LCFI67:
	.cfi_def_cfa_offset 20
	popl	%ebx
.LCFI68:
	.cfi_def_cfa_offset 16
	.cfi_restore 3
	popl	%esi
.LCFI69:
	.cfi_def_cfa_offset 12
	.cfi_restore 6
	popl	%edi
.LCFI70:
	.cfi_def_cfa_offset 8
	.cfi_restore 7
	popl	%ebp
.LCFI71:
	.cfi_def_cfa_offset 4
	.cfi_restore 5
	ret
.LVL88:
.L100:
.LCFI72:
	.cfi_restore_state
	.loc 1 395 0 discriminator 1
	movl	%eax, 12(%esp)
	movl	$.LC24, 8(%esp)
.L99:
	movl	$.LC1, 4(%esp)
	movl	stderr, %eax
.LVL89:
	movl	%eax, (%esp)
	call	fprintf
.LVL90:
	movl	$1, (%esp)
	call	exit
.LVL91:
.L101:
	.loc 1 388 0 discriminator 1
	movl	%eax, 12(%esp)
	movl	$.LC23, 8(%esp)
	jmp	.L99
.L102:
	.loc 1 405 0 discriminator 1
	movl	%eax, 12(%esp)
	movl	$.LC25, 8(%esp)
	jmp	.L99
	.cfi_endproc
.LFE33:
	.size	test_flush, .-test_flush
	.section	.rodata.str1.1
.LC36:
	.string	"inflateSync"
	.section	.rodata.str1.4
	.align 4
.LC37:
	.string	"inflate should report DATA_ERROR\n"
	.section	.rodata.str1.1
.LC38:
	.string	"after inflateSync(): hel%s\n"
	.text
	.p2align 2,,3
	.globl	test_sync
	.type	test_sync, @function
test_sync:
.LFB34:
	.loc 1 416 0
	.cfi_startproc
.LVL92:
	pushl	%esi
.LCFI73:
	.cfi_def_cfa_offset 8
	.cfi_offset 6, -8
	pushl	%ebx
.LCFI74:
	.cfi_def_cfa_offset 12
	.cfi_offset 3, -12
	subl	$84, %esp
.LCFI75:
	.cfi_def_cfa_offset 96
	movl	104(%esp), %esi
	.loc 1 420 0
	movl	$1651663207, (%esi)
	movl	$6645601, 4(%esi)
	.loc 1 422 0
	movl	$0, 56(%esp)
	.loc 1 423 0
	movl	$0, 60(%esp)
	.loc 1 424 0
	movl	$0, 64(%esp)
	.loc 1 426 0
	movl	96(%esp), %eax
	movl	%eax, 24(%esp)
	.loc 1 427 0
	movl	$2, 28(%esp)
	.loc 1 429 0
	movl	$56, 8(%esp)
	movl	$.LC22, 4(%esp)
	leal	24(%esp), %ebx
	movl	%ebx, (%esp)
	call	inflateInit_
.LVL93:
	.loc 1 430 0
	testl	%eax, %eax
	jne	.L109
	.loc 1 432 0
	movl	%esi, 36(%esp)
	.loc 1 433 0
	movl	108(%esp), %eax
.LVL94:
	movl	%eax, 40(%esp)
	.loc 1 435 0
	movl	$0, 4(%esp)
	movl	%ebx, (%esp)
	call	inflate
	.loc 1 438 0
	movl	100(%esp), %eax
	subl	$2, %eax
	movl	%eax, 28(%esp)
	.loc 1 439 0
	movl	%ebx, (%esp)
	call	inflateSync
.LVL95:
	.loc 1 440 0
	testl	%eax, %eax
	jne	.L110
	.loc 1 442 0
	movl	$4, 4(%esp)
	movl	%ebx, (%esp)
	call	inflate
.LVL96:
	.loc 1 443 0
	cmpl	$-3, %eax
	jne	.L111
	.loc 1 448 0
	movl	%ebx, (%esp)
	call	inflateEnd
.LVL97:
	.loc 1 449 0
	testl	%eax, %eax
	jne	.L112
	.loc 1 451 0
	movl	%esi, 4(%esp)
	movl	$.LC38, (%esp)
	call	printf
.LVL98:
	.loc 1 452 0
	addl	$84, %esp
	.cfi_remember_state
.LCFI76:
	.cfi_def_cfa_offset 12
	popl	%ebx
.LCFI77:
	.cfi_def_cfa_offset 8
	.cfi_restore 3
	popl	%esi
.LCFI78:
	.cfi_def_cfa_offset 4
	.cfi_restore 6
	ret
.LVL99:
.L109:
.LCFI79:
	.cfi_restore_state
	.loc 1 430 0 discriminator 1
	movl	%eax, 12(%esp)
	movl	$.LC26, 8(%esp)
.L108:
	.loc 1 440 0 discriminator 1
	movl	$.LC1, 4(%esp)
	movl	stderr, %eax
.LVL100:
	movl	%eax, (%esp)
	call	fprintf
.LVL101:
	movl	$1, (%esp)
	call	exit
.LVL102:
.L112:
	.loc 1 449 0 discriminator 1
	movl	%eax, 12(%esp)
	movl	$.LC28, 8(%esp)
	jmp	.L108
.L111:
	.loc 1 444 0
	movl	stderr, %eax
.LVL103:
	movl	%eax, 12(%esp)
	movl	$33, 8(%esp)
	movl	$1, 4(%esp)
	movl	$.LC37, (%esp)
	call	fwrite
	.loc 1 446 0
	movl	$1, (%esp)
	call	exit
.LVL104:
.L110:
	.loc 1 440 0 discriminator 1
	movl	%eax, 12(%esp)
	movl	$.LC36, 8(%esp)
	jmp	.L108
	.cfi_endproc
.LFE34:
	.size	test_sync, .-test_sync
	.section	.rodata.str1.1
.LC39:
	.string	"deflateSetDictionary"
	.text
	.p2align 2,,3
	.globl	test_dict_deflate
	.type	test_dict_deflate, @function
test_dict_deflate:
.LFB35:
	.loc 1 460 0
	.cfi_startproc
.LVL105:
	pushl	%edi
.LCFI80:
	.cfi_def_cfa_offset 8
	.cfi_offset 7, -8
	pushl	%ebx
.LCFI81:
	.cfi_def_cfa_offset 12
	.cfi_offset 3, -12
	subl	$84, %esp
.LCFI82:
	.cfi_def_cfa_offset 96
	.loc 1 464 0
	movl	$0, 56(%esp)
	.loc 1 465 0
	movl	$0, 60(%esp)
	.loc 1 466 0
	movl	$0, 64(%esp)
	.loc 1 468 0
	movl	$56, 12(%esp)
	movl	$.LC22, 8(%esp)
	movl	$9, 4(%esp)
	leal	24(%esp), %ebx
	movl	%ebx, (%esp)
	call	deflateInit_
.LVL106:
	.loc 1 469 0
	testl	%eax, %eax
	jne	.L119
	.loc 1 471 0
	movl	$6, 8(%esp)
	movl	$dictionary, 4(%esp)
	movl	%ebx, (%esp)
	call	deflateSetDictionary
.LVL107:
	.loc 1 473 0
	testl	%eax, %eax
	jne	.L120
	.loc 1 475 0
	movl	72(%esp), %eax
.LVL108:
	movl	%eax, dictId
	.loc 1 476 0
	movl	96(%esp), %eax
	movl	%eax, 36(%esp)
	.loc 1 477 0
	movl	100(%esp), %eax
	movl	%eax, 40(%esp)
	.loc 1 479 0
	movl	$hello, 24(%esp)
	.loc 1 480 0
	movl	$hello, %edi
	xorl	%eax, %eax
	movl	$-1, %ecx
	repnz scasb
	notl	%ecx
	movl	%ecx, 28(%esp)
	.loc 1 482 0
	movl	$4, 4(%esp)
	movl	%ebx, (%esp)
	call	deflate
.LVL109:
	.loc 1 483 0
	decl	%eax
.LVL110:
	jne	.L121
	.loc 1 487 0
	movl	%ebx, (%esp)
	call	deflateEnd
.LVL111:
	.loc 1 488 0
	testl	%eax, %eax
	jne	.L122
	.loc 1 489 0
	addl	$84, %esp
	.cfi_remember_state
.LCFI83:
	.cfi_def_cfa_offset 12
	popl	%ebx
.LCFI84:
	.cfi_def_cfa_offset 8
	.cfi_restore 3
	popl	%edi
.LCFI85:
	.cfi_def_cfa_offset 4
	.cfi_restore 7
	ret
.L119:
.LCFI86:
	.cfi_restore_state
	.loc 1 469 0 discriminator 1
	movl	%eax, 12(%esp)
	movl	$.LC23, 8(%esp)
.L118:
	.loc 1 473 0 discriminator 1
	movl	$.LC1, 4(%esp)
	movl	stderr, %eax
.LVL112:
	movl	%eax, (%esp)
	call	fprintf
.LVL113:
	movl	$1, (%esp)
	call	exit
.LVL114:
.L122:
	.loc 1 488 0 discriminator 1
	movl	%eax, 12(%esp)
	movl	$.LC25, 8(%esp)
	jmp	.L118
.LVL115:
.L121:
	.loc 1 484 0
	movl	stderr, %eax
	movl	%eax, 12(%esp)
	movl	$35, 8(%esp)
	movl	$1, 4(%esp)
	movl	$.LC32, (%esp)
	call	fwrite
	.loc 1 485 0
	movl	$1, (%esp)
	call	exit
.LVL116:
.L120:
	.loc 1 473 0 discriminator 1
	movl	%eax, 12(%esp)
	movl	$.LC39, 8(%esp)
	jmp	.L118
	.cfi_endproc
.LFE35:
	.size	test_dict_deflate, .-test_dict_deflate
	.section	.rodata.str1.1
.LC40:
	.string	"unexpected dictionary"
.LC41:
	.string	"inflate with dict"
.LC42:
	.string	"bad inflate with dict\n"
.LC43:
	.string	"inflate with dictionary: %s\n"
	.text
	.p2align 2,,3
	.globl	test_dict_inflate
	.type	test_dict_inflate, @function
test_dict_inflate:
.LFB36:
	.loc 1 497 0
	.cfi_startproc
.LVL117:
	pushl	%esi
.LCFI87:
	.cfi_def_cfa_offset 8
	.cfi_offset 6, -8
	pushl	%ebx
.LCFI88:
	.cfi_def_cfa_offset 12
	.cfi_offset 3, -12
	subl	$84, %esp
.LCFI89:
	.cfi_def_cfa_offset 96
	movl	104(%esp), %esi
	.loc 1 501 0
	movl	$1651663207, (%esi)
	movl	$6645601, 4(%esi)
	.loc 1 503 0
	movl	$0, 56(%esp)
	.loc 1 504 0
	movl	$0, 60(%esp)
	.loc 1 505 0
	movl	$0, 64(%esp)
	.loc 1 507 0
	movl	96(%esp), %eax
	movl	%eax, 24(%esp)
	.loc 1 508 0
	movl	100(%esp), %eax
	movl	%eax, 28(%esp)
	.loc 1 510 0
	movl	$56, 8(%esp)
	movl	$.LC22, 4(%esp)
	leal	24(%esp), %ebx
	movl	%ebx, (%esp)
	call	inflateInit_
.LVL118:
	.loc 1 511 0
	testl	%eax, %eax
	jne	.L133
	.loc 1 513 0
	movl	%esi, 36(%esp)
	.loc 1 514 0
	movl	108(%esp), %eax
.LVL119:
	movl	%eax, 40(%esp)
	jmp	.L128
.LVL120:
	.p2align 2,,3
.L126:
	.loc 1 527 0
	testl	%eax, %eax
	jne	.L134
.LVL121:
.L128:
	.loc 1 517 0
	movl	$0, 4(%esp)
	movl	%ebx, (%esp)
	call	inflate
.LVL122:
	.loc 1 518 0
	cmpl	$1, %eax
	je	.L125
	.loc 1 519 0
	cmpl	$2, %eax
	jne	.L126
	.loc 1 520 0
	movl	dictId, %eax
.LVL123:
	cmpl	%eax, 72(%esp)
	jne	.L135
	.loc 1 524 0
	movl	$6, 8(%esp)
	movl	$dictionary, 4(%esp)
	movl	%ebx, (%esp)
	call	inflateSetDictionary
.LVL124:
	jmp	.L126
	.p2align 2,,3
.L125:
	.loc 1 530 0
	movl	%ebx, (%esp)
	call	inflateEnd
.LVL125:
	.loc 1 531 0
	testl	%eax, %eax
	jne	.L136
	.loc 1 533 0
	movl	$hello, 4(%esp)
	movl	%esi, (%esp)
	call	strcmp
.LVL126:
	testl	%eax, %eax
	jne	.L137
	.loc 1 537 0
	movl	%esi, 4(%esp)
	movl	$.LC43, (%esp)
	call	printf
	.loc 1 539 0
	addl	$84, %esp
	.cfi_remember_state
.LCFI90:
	.cfi_def_cfa_offset 12
	popl	%ebx
.LCFI91:
	.cfi_def_cfa_offset 8
	.cfi_restore 3
	popl	%esi
.LCFI92:
	.cfi_def_cfa_offset 4
	.cfi_restore 6
	ret
.LVL127:
.L134:
.LCFI93:
	.cfi_restore_state
	.loc 1 527 0
	movl	%eax, 12(%esp)
	movl	$.LC41, 8(%esp)
.L132:
	movl	$.LC1, 4(%esp)
	movl	stderr, %eax
.LVL128:
	movl	%eax, (%esp)
	call	fprintf
.LVL129:
	movl	$1, (%esp)
	call	exit
.L135:
	.loc 1 521 0
	movl	stderr, %eax
	movl	%eax, 12(%esp)
	movl	$21, 8(%esp)
	movl	$1, 4(%esp)
	movl	$.LC40, (%esp)
	call	fwrite
	.loc 1 522 0
	movl	$1, (%esp)
	call	exit
.LVL130:
.L136:
	.loc 1 531 0 discriminator 1
	movl	%eax, 12(%esp)
	movl	$.LC28, 8(%esp)
	jmp	.L132
.L133:
	.loc 1 511 0 discriminator 1
	movl	%eax, 12(%esp)
	movl	$.LC26, 8(%esp)
	jmp	.L132
.LVL131:
.L137:
	.loc 1 534 0
	movl	stderr, %eax
	movl	%eax, 12(%esp)
	movl	$22, 8(%esp)
	movl	$1, 4(%esp)
	movl	$.LC42, (%esp)
	call	fwrite
	.loc 1 535 0
	movl	$1, (%esp)
	call	exit
	.cfi_endproc
.LFE36:
	.size	test_dict_inflate, .-test_dict_inflate
	.section	.rodata.str1.1
.LC44:
	.string	"foo.gz"
.LC45:
	.string	"incompatible zlib version\n"
	.section	.rodata.str1.4
	.align 4
.LC46:
	.string	"warning: different zlib version\n"
	.align 4
.LC47:
	.string	"zlib version %s = 0x%04x, compile flags = 0x%lx\n"
	.section	.rodata.str1.1
.LC48:
	.string	"out of memory"
	.text
	.p2align 2,,3
	.globl	main_example
	.type	main_example, @function
main_example:
.LFB37:
	.loc 1 548 0
	.cfi_startproc
.LVL132:
	pushl	%edi
.LCFI94:
	.cfi_def_cfa_offset 8
	.cfi_offset 7, -8
	pushl	%esi
.LCFI95:
	.cfi_def_cfa_offset 12
	.cfi_offset 6, -12
	pushl	%ebx
.LCFI96:
	.cfi_def_cfa_offset 16
	.cfi_offset 3, -16
	subl	$32, %esp
.LCFI97:
	.cfi_def_cfa_offset 48
	.loc 1 550 0
	movl	$40000, 28(%esp)
.LVL133:
	.loc 1 554 0
	call	zlibVersion
	cmpb	$49, (%eax)
	jne	.L145
	.loc 1 558 0
	call	zlibVersion
	movl	%eax, %esi
	movl	$.LC22, %edi
	movl	$6, %ecx
	repz cmpsb
	jne	.L146
.L140:
	.loc 1 562 0
	call	zlibCompileFlags
	movl	%eax, 12(%esp)
	movl	$4736, 8(%esp)
	movl	$.LC22, 4(%esp)
	movl	$.LC47, (%esp)
	call	printf
	.loc 1 565 0
	movl	28(%esp), %edi
	movl	$1, 4(%esp)
	movl	%edi, (%esp)
	call	calloc
	movl	%eax, %esi
.LVL134:
	.loc 1 566 0
	movl	$1, 4(%esp)
	movl	$40000, (%esp)
	call	calloc
.LVL135:
	movl	%eax, %ebx
.LVL136:
	.loc 1 570 0
	testl	%esi, %esi
	je	.L141
	.loc 1 570 0 is_stmt 0 discriminator 1
	testl	%eax, %eax
	je	.L141
	.loc 1 578 0 is_stmt 1
	movl	$40000, 12(%esp)
	movl	%eax, 8(%esp)
	movl	%edi, 4(%esp)
	movl	%esi, (%esp)
	call	test_compress
.LVL137:
	.loc 1 580 0
	cmpl	$1, 48(%esp)
	jle	.L144
	.loc 1 580 0 is_stmt 0 discriminator 1
	movl	52(%esp), %eax
	movl	4(%eax), %eax
.L143:
	.loc 1 580 0 discriminator 3
	movl	$40000, 8(%esp)
	movl	%ebx, 4(%esp)
	movl	%eax, (%esp)
	call	test_gzio
	.loc 1 584 0 is_stmt 1 discriminator 3
	movl	28(%esp), %eax
	movl	%eax, 4(%esp)
	movl	%esi, (%esp)
	call	test_deflate
	.loc 1 585 0 discriminator 3
	movl	$40000, 12(%esp)
	movl	%ebx, 8(%esp)
	movl	28(%esp), %eax
	movl	%eax, 4(%esp)
	movl	%esi, (%esp)
	call	test_inflate
	.loc 1 587 0 discriminator 3
	movl	$40000, 12(%esp)
	movl	%ebx, 8(%esp)
	movl	28(%esp), %eax
	movl	%eax, 4(%esp)
	movl	%esi, (%esp)
	call	test_large_deflate
	.loc 1 588 0 discriminator 3
	movl	$40000, 12(%esp)
	movl	%ebx, 8(%esp)
	movl	28(%esp), %eax
	movl	%eax, 4(%esp)
	movl	%esi, (%esp)
	call	test_large_inflate
	.loc 1 590 0 discriminator 3
	leal	28(%esp), %eax
	movl	%eax, 4(%esp)
	movl	%esi, (%esp)
	call	test_flush
	.loc 1 591 0 discriminator 3
	movl	$40000, 12(%esp)
	movl	%ebx, 8(%esp)
	movl	28(%esp), %eax
	movl	%eax, 4(%esp)
	movl	%esi, (%esp)
	call	test_sync
	.loc 1 592 0 discriminator 3
	movl	$40000, 28(%esp)
	.loc 1 594 0 discriminator 3
	movl	$40000, 4(%esp)
	movl	%esi, (%esp)
	call	test_dict_deflate
	.loc 1 595 0 discriminator 3
	movl	$40000, 12(%esp)
	movl	%ebx, 8(%esp)
	movl	28(%esp), %eax
	movl	%eax, 4(%esp)
	movl	%esi, (%esp)
	call	test_dict_inflate
	.loc 1 597 0 discriminator 3
	movl	%esi, (%esp)
	call	free
	.loc 1 598 0 discriminator 3
	movl	%ebx, (%esp)
	call	free
	.loc 1 601 0 discriminator 3
	xorl	%eax, %eax
	addl	$32, %esp
	.cfi_remember_state
.LCFI98:
	.cfi_def_cfa_offset 16
	popl	%ebx
.LCFI99:
	.cfi_def_cfa_offset 12
	.cfi_restore 3
.LVL138:
	popl	%esi
.LCFI100:
	.cfi_def_cfa_offset 8
	.cfi_restore 6
.LVL139:
	popl	%edi
.LCFI101:
	.cfi_def_cfa_offset 4
	.cfi_restore 7
	ret
	.p2align 2,,3
.L146:
.LCFI102:
	.cfi_restore_state
	.loc 1 559 0
	movl	stderr, %eax
	movl	%eax, 12(%esp)
	movl	$32, 8(%esp)
	movl	$1, 4(%esp)
	movl	$.LC46, (%esp)
	call	fwrite
	jmp	.L140
.LVL140:
	.p2align 2,,3
.L144:
	.loc 1 580 0
	movl	$.LC44, %eax
	jmp	.L143
.L141:
	.loc 1 571 0
	movl	$.LC48, (%esp)
	call	puts
	.loc 1 572 0
	movl	$1, (%esp)
	call	exit
.LVL141:
.L145:
	.loc 1 555 0
	movl	stderr, %eax
	movl	%eax, 12(%esp)
	movl	$26, 8(%esp)
	movl	$1, 4(%esp)
	movl	$.LC45, (%esp)
	call	fwrite
	.loc 1 556 0
	movl	$1, (%esp)
	call	exit
	.cfi_endproc
.LFE37:
	.size	main_example, .-main_example
	.globl	dictId
	.bss
	.align 4
	.type	dictId, @object
	.size	dictId, 4
dictId:
	.zero	4
	.globl	dictionary
	.section	.rodata
	.type	dictionary, @object
	.size	dictionary, 6
dictionary:
	.string	"hello"
	.globl	hello
	.data
	.type	hello, @object
	.size	hello, 14
hello:
	.string	"hello, hello!"
	.text
.Letext0:
	.file 2 "./zconf.h"
	.file 3 "/home/user/workspace/embox/./src/compat/posix/include/sys/types.h"
	.file 4 "./zlib.h"
	.file 5 "/home/user/workspace/embox/./src/include/stdio.h"
	.file 6 "/home/user/workspace/embox/./src/include/../util/dlist_debug.h"
	.section	.note.GNU-stack,"",@progbits
