	.file	"gzlib.c"
	.text
.Ltext0:
	.section	.rodata.str1.1,"aMS",@progbits,1
.LC0:
	.string	"%s"
	.text
	.p2align 2,,3
	.type	gz_open, @function
gz_open:
.LFB28:
	.file 1 "gzlib.c"
	.loc 1 95 0
	.cfi_startproc
.LVL0:
	pushl	%ebp
.LCFI0:
	.cfi_def_cfa_offset 8
	.cfi_offset 5, -8
	pushl	%edi
.LCFI1:
	.cfi_def_cfa_offset 12
	.cfi_offset 7, -12
	pushl	%esi
.LCFI2:
	.cfi_def_cfa_offset 16
	.cfi_offset 6, -16
	pushl	%ebx
.LCFI3:
	.cfi_def_cfa_offset 20
	.cfi_offset 3, -20
	subl	$44, %esp
.LCFI4:
	.cfi_def_cfa_offset 64
	movl	%eax, %esi
	movl	%edx, %ebp
	movl	%ecx, %edi
.LVL1:
	.loc 1 107 0
	testl	%eax, %eax
	je	.L35
	.loc 1 111 0
	movl	$140, (%esp)
	call	malloc
.LVL2:
	movl	%eax, %ebx
.LVL3:
	.loc 1 112 0
	testl	%eax, %eax
	je	.L2
	.loc 1 114 0
	movl	$0, 24(%eax)
	.loc 1 115 0
	movl	$8192, 28(%eax)
	.loc 1 116 0
	movl	$0, 80(%eax)
	.loc 1 119 0
	movl	$0, 12(%eax)
	.loc 1 120 0
	movl	$-1, 60(%eax)
	.loc 1 121 0
	movl	$0, 64(%eax)
	.loc 1 122 0
	movl	$0, 40(%eax)
	.loc 1 123 0
	movb	(%edi), %al
.LVL4:
	testb	%al, %al
	je	.L42
	movl	$0, 28(%esp)
	jmp	.L17
.LVL5:
	.p2align 2,,3
.L45:
	.loc 1 125 0
	movsbl	%al, %eax
	subl	$48, %eax
	movl	%eax, 60(%ebx)
.L5:
.LVL6:
	.loc 1 172 0
	incl	%edi
.LVL7:
	.loc 1 123 0
	movb	(%edi), %al
	testb	%al, %al
	je	.L44
.LVL8:
.L17:
	.loc 1 124 0
	leal	-48(%eax), %edx
	cmpb	$9, %dl
	jbe	.L45
	.loc 1 127 0
	subl	$43, %eax
	cmpb	$77, %al
	ja	.L5
	movzbl	%al, %eax
	jmp	*.L16(,%eax,4)
	.section	.rodata
	.align 4
	.align 4
.L16:
	.long	.L42
	.long	.L5
	.long	.L5
	.long	.L5
	.long	.L5
	.long	.L5
	.long	.L5
	.long	.L5
	.long	.L5
	.long	.L5
	.long	.L5
	.long	.L5
	.long	.L5
	.long	.L5
	.long	.L5
	.long	.L5
	.long	.L5
	.long	.L5
	.long	.L5
	.long	.L5
	.long	.L5
	.long	.L5
	.long	.L5
	.long	.L5
	.long	.L5
	.long	.L5
	.long	.L5
	.long	.L8
	.long	.L5
	.long	.L5
	.long	.L5
	.long	.L5
	.long	.L5
	.long	.L5
	.long	.L5
	.long	.L5
	.long	.L5
	.long	.L5
	.long	.L5
	.long	.L9
	.long	.L5
	.long	.L10
	.long	.L5
	.long	.L5
	.long	.L5
	.long	.L5
	.long	.L5
	.long	.L5
	.long	.L5
	.long	.L5
	.long	.L5
	.long	.L5
	.long	.L5
	.long	.L5
	.long	.L11
	.long	.L5
	.long	.L5
	.long	.L5
	.long	.L5
	.long	.L12
	.long	.L5
	.long	.L13
	.long	.L5
	.long	.L5
	.long	.L5
	.long	.L5
	.long	.L5
	.long	.L5
	.long	.L5
	.long	.L5
	.long	.L5
	.long	.L14
	.long	.L5
	.long	.L5
	.long	.L5
	.long	.L5
	.long	.L15
	.long	.L36
	.text
.LVL9:
.L50:
	.loc 1 247 0
	movl	20(%ebx), %eax
	movl	%eax, (%esp)
	call	free
.LVL10:
	.p2align 2,,3
.L42:
	.loc 1 248 0
	movl	%ebx, (%esp)
	call	free
	.loc 1 249 0
	xorl	%ebx, %ebx
.LVL11:
.L2:
	.loc 1 265 0
	movl	%ebx, %eax
	addl	$44, %esp
	.cfi_remember_state
.LCFI5:
	.cfi_def_cfa_offset 20
	popl	%ebx
.LCFI6:
	.cfi_def_cfa_offset 16
	.cfi_restore 3
	popl	%esi
.LCFI7:
	.cfi_def_cfa_offset 12
	.cfi_restore 6
	popl	%edi
.LCFI8:
	.cfi_def_cfa_offset 8
	.cfi_restore 7
	popl	%ebp
.LCFI9:
	.cfi_def_cfa_offset 4
	.cfi_restore 5
	ret
.LVL12:
	.p2align 2,,3
.L15:
.LCFI10:
	.cfi_restore_state
	.loc 1 133 0
	movl	$31153, 12(%ebx)
.LVL13:
	.loc 1 172 0
	incl	%edi
.LVL14:
	.loc 1 123 0
	movb	(%edi), %al
	testb	%al, %al
	jne	.L17
	.p2align 2,,3
.L44:
	movl	12(%ebx), %eax
	.loc 1 176 0
	testl	%eax, %eax
	je	.L42
	.loc 1 182 0
	cmpl	$7247, %eax
	jne	.L19
	.loc 1 183 0
	movl	40(%ebx), %eax
	testl	%eax, %eax
	jne	.L42
	.loc 1 187 0
	movl	$1, 40(%ebx)
.L19:
	.loc 1 199 0
	xorl	%eax, %eax
	movl	$-1, %ecx
	movl	%esi, %edi
.LVL15:
	repnz scasb
.LVL16:
	notl	%ecx
	.loc 1 200 0
	movl	%ecx, (%esp)
	movl	%ecx, 24(%esp)
	call	malloc
	movl	%eax, 20(%ebx)
	.loc 1 201 0
	testl	%eax, %eax
	movl	24(%esp), %ecx
	je	.L42
	.loc 1 214 0
	movl	%esi, 12(%esp)
	movl	$.LC0, 8(%esp)
	movl	%ecx, 4(%esp)
	movl	%eax, (%esp)
	call	snprintf
	.loc 1 230 0
	movl	12(%ebx), %eax
	.loc 1 231 0
	cmpl	$7247, %eax
	je	.L37
	.loc 1 232 0
	cmpl	$1, 28(%esp)
	sbbl	%ecx, %ecx
	andl	$-1024, %ecx
	addl	$1793, %ecx
	cmpl	$1, 28(%esp)
	sbbl	%edx, %edx
	andl	$-1024, %edx
	addl	$1289, %edx
	.loc 1 237 0
	cmpl	$31153, %eax
	je	.L46
.L22:
.LVL17:
	.loc 1 241 0
	testl	%ebp, %ebp
	js	.L47
	movl	%ebp, 16(%ebx)
.LVL18:
.L34:
	.loc 1 251 0
	cmpl	$1, %eax
	je	.L48
	.loc 1 255 0
	cmpl	$7247, %eax
	je	.L49
.L28:
.LVL19:
.LBB14:
.LBB15:
	.loc 1 78 0
	movl	$0, (%ebx)
.L31:
	.loc 1 84 0
	movl	$0, 72(%ebx)
.LVL20:
.LBB16:
.LBB17:
	.loc 1 581 0
	movl	80(%ebx), %eax
	testl	%eax, %eax
	je	.L32
	.loc 1 582 0
	cmpl	$-4, 76(%ebx)
	je	.L33
	.loc 1 583 0
	movl	%eax, (%esp)
	call	free
.L33:
	.loc 1 584 0
	movl	$0, 80(%ebx)
.L32:
	.loc 1 592 0
	movl	$0, 76(%ebx)
.LBE17:
.LBE16:
	.loc 1 86 0
	movl	$0, 8(%ebx)
	.loc 1 87 0
	movl	$0, 88(%ebx)
.LBE15:
.LBE14:
	.loc 1 265 0
	movl	%ebx, %eax
	addl	$44, %esp
	.cfi_remember_state
.LCFI11:
	.cfi_def_cfa_offset 20
	popl	%ebx
	.cfi_restore 3
.LCFI12:
	.cfi_def_cfa_offset 16
.LVL21:
	popl	%esi
	.cfi_restore 6
.LCFI13:
	.cfi_def_cfa_offset 12
	popl	%edi
	.cfi_restore 7
.LCFI14:
	.cfi_def_cfa_offset 8
	popl	%ebp
	.cfi_restore 5
.LCFI15:
	.cfi_def_cfa_offset 4
	ret
.LVL22:
	.p2align 2,,3
.L14:
.LCFI16:
	.cfi_restore_state
	.loc 1 129 0
	movl	$7247, 12(%ebx)
	.loc 1 130 0
	jmp	.L5
	.p2align 2,,3
.L13:
	.loc 1 158 0
	movl	$2, 64(%ebx)
	.loc 1 159 0
	jmp	.L5
	.p2align 2,,3
.L12:
	.loc 1 155 0
	movl	$1, 64(%ebx)
	.loc 1 156 0
	jmp	.L5
	.p2align 2,,3
.L36:
	.loc 1 151 0
	movl	$1, 28(%esp)
	jmp	.L5
	.p2align 2,,3
.L11:
	.loc 1 136 0
	movl	$1, 12(%ebx)
	.loc 1 137 0
	jmp	.L5
	.p2align 2,,3
.L10:
	.loc 1 167 0
	movl	$1, 40(%ebx)
	.loc 1 168 0
	jmp	.L5
	.p2align 2,,3
.L9:
	.loc 1 161 0
	movl	$3, 64(%ebx)
	.loc 1 162 0
	jmp	.L5
	.p2align 2,,3
.L8:
	.loc 1 164 0
	movl	$4, 64(%ebx)
	.loc 1 165 0
	jmp	.L5
.LVL23:
	.p2align 2,,3
.L37:
	.loc 1 231 0
	xorl	%edx, %edx
	jmp	.L22
.LVL24:
	.p2align 2,,3
.L48:
	.loc 1 252 0
	movl	$31153, 12(%ebx)
	jmp	.L28
.LVL25:
.L46:
	.loc 1 237 0
	movl	%ecx, %edx
	jmp	.L22
.LVL26:
.L49:
	.loc 1 256 0
	movl	$1, 8(%esp)
	movl	$0, 4(%esp)
	movl	%ebp, (%esp)
	call	lseek
	movl	%eax, 48(%ebx)
	.loc 1 257 0
	incl	%eax
	je	.L29
.L41:
	.loc 1 257 0 is_stmt 0 discriminator 1
	movl	12(%ebx), %eax
.LVL27:
.LBB19:
.LBB18:
	.loc 1 78 0 is_stmt 1 discriminator 1
	movl	$0, (%ebx)
	.loc 1 79 0 discriminator 1
	cmpl	$7247, %eax
	jne	.L31
	.loc 1 80 0
	movl	$0, 52(%ebx)
	.loc 1 81 0
	movl	$0, 56(%ebx)
	.loc 1 82 0
	movl	$0, 44(%ebx)
	jmp	.L31
.LVL28:
.L47:
.LBE18:
.LBE19:
	.loc 1 241 0 discriminator 1
	movl	$438, 8(%esp)
	movl	%edx, 4(%esp)
	movl	%esi, (%esp)
	call	open
.LVL29:
	movl	%eax, %ebp
.LVL30:
	movl	%eax, 16(%ebx)
	.loc 1 246 0 discriminator 1
	cmpl	$-1, %eax
	je	.L50
	.loc 1 249 0
	movl	12(%ebx), %eax
	jmp	.L34
.L29:
	.loc 1 257 0 discriminator 1
	movl	$0, 48(%ebx)
	jmp	.L41
.LVL31:
.L35:
	.loc 1 108 0
	xorl	%ebx, %ebx
	jmp	.L2
	.cfi_endproc
.LFE28:
	.size	gz_open, .-gz_open
	.p2align 2,,3
	.globl	gzopen
	.type	gzopen, @function
gzopen:
.LFB29:
	.loc 1 271 0
	.cfi_startproc
.LVL32:
	.loc 1 272 0
	movl	8(%esp), %ecx
	movl	$-1, %edx
	movl	4(%esp), %eax
	jmp	gz_open
	.cfi_endproc
.LFE29:
	.size	gzopen, .-gzopen
	.p2align 2,,3
	.globl	gzopen64
	.type	gzopen64, @function
gzopen64:
.LFB30:
	.loc 1 279 0
	.cfi_startproc
.LVL33:
	.loc 1 280 0
	movl	8(%esp), %ecx
	movl	$-1, %edx
	movl	4(%esp), %eax
	jmp	gz_open
	.cfi_endproc
.LFE30:
	.size	gzopen64, .-gzopen64
	.section	.rodata.str1.1
.LC1:
	.string	"<fd:%d>"
	.text
	.p2align 2,,3
	.globl	gzdopen
	.type	gzdopen, @function
gzdopen:
.LFB31:
	.loc 1 287 0
	.cfi_startproc
.LVL34:
	pushl	%esi
.LCFI17:
	.cfi_def_cfa_offset 8
	.cfi_offset 6, -8
	pushl	%ebx
.LCFI18:
	.cfi_def_cfa_offset 12
	.cfi_offset 3, -12
	subl	$36, %esp
.LCFI19:
	.cfi_def_cfa_offset 48
	movl	48(%esp), %esi
	.loc 1 291 0
	cmpl	$-1, %esi
	je	.L56
	.loc 1 291 0 is_stmt 0 discriminator 1
	movl	$19, (%esp)
	call	malloc
	movl	%eax, %ebx
.LVL35:
	testl	%eax, %eax
	je	.L56
	.loc 1 294 0 is_stmt 1
	movl	%esi, 12(%esp)
	movl	$.LC1, 8(%esp)
	movl	$19, 4(%esp)
	movl	%eax, (%esp)
	call	snprintf
.LVL36:
	.loc 1 298 0
	movl	52(%esp), %ecx
	movl	%esi, %edx
	movl	%ebx, %eax
	call	gz_open
.LVL37:
	.loc 1 299 0
	movl	%ebx, (%esp)
	movl	%eax, 28(%esp)
	call	free
.LVL38:
	.loc 1 300 0
	movl	28(%esp), %eax
	.loc 1 301 0
	addl	$36, %esp
	.cfi_remember_state
.LCFI20:
	.cfi_def_cfa_offset 12
	popl	%ebx
.LCFI21:
	.cfi_def_cfa_offset 8
	.cfi_restore 3
.LVL39:
	popl	%esi
.LCFI22:
	.cfi_def_cfa_offset 4
	.cfi_restore 6
	ret
	.p2align 2,,3
.L56:
.LCFI23:
	.cfi_restore_state
	.loc 1 292 0
	xorl	%eax, %eax
	.loc 1 301 0
	addl	$36, %esp
.LCFI24:
	.cfi_def_cfa_offset 12
	popl	%ebx
	.cfi_restore 3
.LCFI25:
	.cfi_def_cfa_offset 8
	popl	%esi
	.cfi_restore 6
.LCFI26:
	.cfi_def_cfa_offset 4
	ret
	.cfi_endproc
.LFE31:
	.size	gzdopen, .-gzdopen
	.p2align 2,,3
	.globl	gzbuffer
	.type	gzbuffer, @function
gzbuffer:
.LFB32:
	.loc 1 317 0
	.cfi_startproc
.LVL40:
	movl	4(%esp), %eax
	movl	8(%esp), %edx
	.loc 1 321 0
	testl	%eax, %eax
	je	.L62
.LVL41:
	.loc 1 324 0
	movl	12(%eax), %ecx
	cmpl	$7247, %ecx
	je	.L59
	.loc 1 324 0 is_stmt 0 discriminator 1
	cmpl	$31153, %ecx
	jne	.L62
.L59:
	.loc 1 328 0 is_stmt 1
	movl	24(%eax), %ecx
	testl	%ecx, %ecx
	jne	.L63
	.loc 1 332 0
	cmpl	$1, %edx
	jbe	.L65
	.loc 1 334 0
	movl	%edx, 28(%eax)
	.loc 1 335 0
	xorl	%eax, %eax
	ret
	.p2align 2,,3
.L65:
	.loc 1 333 0
	movl	$2, %edx
.LVL42:
	.loc 1 334 0
	movl	%edx, 28(%eax)
	.loc 1 335 0
	xorl	%eax, %eax
	ret
.LVL43:
	.p2align 2,,3
.L62:
	.loc 1 325 0
	movl	$-1, %eax
	ret
.LVL44:
	.p2align 2,,3
.L63:
	.loc 1 329 0
	movl	$-1, %eax
	.loc 1 336 0
	ret
	.cfi_endproc
.LFE32:
	.size	gzbuffer, .-gzbuffer
	.p2align 2,,3
	.globl	gzrewind
	.type	gzrewind, @function
gzrewind:
.LFB33:
	.loc 1 341 0
	.cfi_startproc
.LVL45:
	pushl	%ebx
.LCFI27:
	.cfi_def_cfa_offset 8
	.cfi_offset 3, -8
	subl	$24, %esp
.LCFI28:
	.cfi_def_cfa_offset 32
	movl	32(%esp), %ebx
	.loc 1 345 0
	testl	%ebx, %ebx
	je	.L75
.LVL46:
	.loc 1 350 0
	cmpl	$7247, 12(%ebx)
	jne	.L75
	.loc 1 351 0 discriminator 1
	movl	76(%ebx), %eax
	.loc 1 350 0 discriminator 1
	testl	%eax, %eax
	je	.L68
	.loc 1 351 0
	cmpl	$-5, %eax
	jne	.L75
.L68:
	.loc 1 355 0
	movl	$0, 8(%esp)
	movl	48(%ebx), %eax
	movl	%eax, 4(%esp)
	movl	16(%ebx), %eax
	movl	%eax, (%esp)
	call	lseek
	incl	%eax
	je	.L75
.LVL47:
.LBB26:
.LBB27:
	.loc 1 78 0
	movl	$0, (%ebx)
	.loc 1 79 0
	cmpl	$7247, 12(%ebx)
	je	.L76
.L69:
	.loc 1 84 0
	movl	$0, 72(%ebx)
.LVL48:
.LBB28:
.LBB29:
	.loc 1 581 0
	movl	80(%ebx), %eax
	testl	%eax, %eax
	je	.L70
	.loc 1 582 0
	cmpl	$-4, 76(%ebx)
	je	.L71
	.loc 1 583 0
	movl	%eax, (%esp)
	call	free
.L71:
	.loc 1 584 0
	movl	$0, 80(%ebx)
.L70:
	.loc 1 592 0
	movl	$0, 76(%ebx)
.LBE29:
.LBE28:
	.loc 1 86 0
	movl	$0, 8(%ebx)
	.loc 1 87 0
	movl	$0, 88(%ebx)
.LBE27:
.LBE26:
	.loc 1 358 0
	xorl	%eax, %eax
	.loc 1 359 0
	addl	$24, %esp
	.cfi_remember_state
.LCFI29:
	.cfi_def_cfa_offset 8
	popl	%ebx
.LCFI30:
	.cfi_def_cfa_offset 4
	.cfi_restore 3
	ret
.LVL49:
	.p2align 2,,3
.L76:
.LCFI31:
	.cfi_restore_state
.LBB31:
.LBB30:
	.loc 1 80 0
	movl	$0, 52(%ebx)
	.loc 1 81 0
	movl	$0, 56(%ebx)
	.loc 1 82 0
	movl	$0, 44(%ebx)
	jmp	.L69
.LVL50:
	.p2align 2,,3
.L75:
.LBE30:
.LBE31:
	.loc 1 356 0
	movl	$-1, %eax
	.loc 1 359 0
	addl	$24, %esp
.LCFI32:
	.cfi_def_cfa_offset 8
	popl	%ebx
	.cfi_restore 3
.LCFI33:
	.cfi_def_cfa_offset 4
	ret
	.cfi_endproc
.LFE33:
	.size	gzrewind, .-gzrewind
	.p2align 2,,3
	.globl	gzseek64
	.type	gzseek64, @function
gzseek64:
.LFB34:
	.loc 1 366 0
	.cfi_startproc
.LVL51:
	pushl	%esi
.LCFI34:
	.cfi_def_cfa_offset 8
	.cfi_offset 6, -8
	pushl	%ebx
.LCFI35:
	.cfi_def_cfa_offset 12
	.cfi_offset 3, -12
	subl	$20, %esp
.LCFI36:
	.cfi_def_cfa_offset 32
	movl	32(%esp), %ebx
	movl	36(%esp), %esi
	movl	40(%esp), %edx
	.loc 1 372 0
	testl	%ebx, %ebx
	je	.L99
.LVL52:
	.loc 1 375 0
	movl	12(%ebx), %eax
	cmpl	$7247, %eax
	je	.L79
	.loc 1 375 0 is_stmt 0 discriminator 1
	cmpl	$31153, %eax
	jne	.L99
.L79:
	.loc 1 379 0 is_stmt 1
	movl	76(%ebx), %ecx
	testl	%ecx, %ecx
	jne	.L100
.L80:
	.loc 1 383 0
	cmpl	$1, %edx
	ja	.L99
	.loc 1 387 0
	testl	%edx, %edx
	jne	.L81
	.loc 1 388 0
	subl	8(%ebx), %esi
.LVL53:
.L82:
	.loc 1 391 0
	movl	$0, 72(%ebx)
	.loc 1 394 0
	cmpl	$7247, %eax
	je	.L101
.L83:
	.loc 1 410 0
	testl	%esi, %esi
	js	.L102
	.loc 1 421 0
	cmpl	$7247, %eax
	je	.L87
.L103:
	movl	8(%ebx), %eax
.L88:
	.loc 1 431 0
	testl	%esi, %esi
	je	.L91
	.loc 1 432 0
	movl	$1, 72(%ebx)
	.loc 1 433 0
	movl	%esi, 68(%ebx)
.L91:
	.loc 1 435 0
	addl	%esi, %eax
.L78:
	.loc 1 436 0
	addl	$20, %esp
	.cfi_remember_state
.LCFI37:
	.cfi_def_cfa_offset 12
	popl	%ebx
.LCFI38:
	.cfi_def_cfa_offset 8
	.cfi_restore 3
	popl	%esi
.LCFI39:
	.cfi_def_cfa_offset 4
	.cfi_restore 6
.LVL54:
	ret
.LVL55:
	.p2align 2,,3
.L100:
.LCFI40:
	.cfi_restore_state
	.loc 1 379 0 discriminator 1
	cmpl	$-5, %ecx
	je	.L80
.LVL56:
	.p2align 2,,3
.L99:
	.loc 1 417 0
	movl	$-1, %eax
	.loc 1 436 0
	addl	$20, %esp
	.cfi_remember_state
.LCFI41:
	.cfi_def_cfa_offset 12
	popl	%ebx
	.cfi_restore 3
.LCFI42:
	.cfi_def_cfa_offset 8
	popl	%esi
	.cfi_restore 6
.LCFI43:
	.cfi_def_cfa_offset 4
	ret
.LVL57:
	.p2align 2,,3
.L81:
.LCFI44:
	.cfi_restore_state
	.loc 1 389 0
	movl	72(%ebx), %edx
	testl	%edx, %edx
	je	.L82
	.loc 1 390 0
	addl	68(%ebx), %esi
.LVL58:
	.loc 1 391 0
	movl	$0, 72(%ebx)
	.loc 1 394 0
	cmpl	$7247, %eax
	jne	.L83
.L101:
	.loc 1 394 0 is_stmt 0 discriminator 1
	cmpl	$1, 44(%ebx)
	jne	.L83
	movl	%esi, %edx
	addl	8(%ebx), %edx
	js	.L83
	.loc 1 396 0 is_stmt 1
	movl	$1, 8(%esp)
	movl	%esi, %eax
	subl	(%ebx), %eax
	movl	%eax, 4(%esp)
	movl	16(%ebx), %eax
	movl	%eax, (%esp)
	call	lseek
.LVL59:
	.loc 1 397 0
	incl	%eax
.LVL60:
	je	.L99
	.loc 1 399 0
	movl	$0, (%ebx)
	.loc 1 400 0
	movl	$0, 52(%ebx)
	.loc 1 401 0
	movl	$0, 56(%ebx)
	.loc 1 402 0
	movl	$0, 72(%ebx)
.LVL61:
.LBB36:
.LBB37:
	.loc 1 581 0
	movl	80(%ebx), %eax
	testl	%eax, %eax
	je	.L84
	.loc 1 582 0
	cmpl	$-4, 76(%ebx)
	je	.L85
	.loc 1 583 0
	movl	%eax, (%esp)
	call	free
.L85:
	.loc 1 584 0
	movl	$0, 80(%ebx)
.L84:
	.loc 1 592 0
	movl	$0, 76(%ebx)
.LBE37:
.LBE36:
	.loc 1 404 0
	movl	$0, 88(%ebx)
	.loc 1 405 0
	movl	8(%ebx), %eax
	addl	%esi, %eax
	movl	%eax, 8(%ebx)
	.loc 1 406 0
	jmp	.L78
.LVL62:
	.p2align 2,,3
.L102:
	.loc 1 411 0
	cmpl	$7247, %eax
	jne	.L99
.LVL63:
	.loc 1 414 0
	addl	8(%ebx), %esi
.LVL64:
	js	.L99
	.loc 1 416 0
	movl	%ebx, (%esp)
	call	gzrewind
	incl	%eax
	je	.L99
	movl	12(%ebx), %eax
	.loc 1 421 0
	cmpl	$7247, %eax
	jne	.L103
.L87:
	.loc 1 422 0
	movl	(%ebx), %edx
	.loc 1 423 0
	testl	%edx, %edx
	js	.L89
	.loc 1 422 0
	cmpl	%edx, %esi
	jl	.L89
	subl	%edx, %esi
.LVL65:
	.loc 1 423 0
	movl	%edx, %eax
	.loc 1 422 0
	xorl	%edx, %edx
.L90:
.LVL66:
	.loc 1 424 0
	movl	%edx, (%ebx)
	.loc 1 425 0
	addl	%eax, 4(%ebx)
	.loc 1 426 0
	addl	8(%ebx), %eax
.LVL67:
	movl	%eax, 8(%ebx)
.LVL68:
	jmp	.L88
	.p2align 2,,3
.L89:
	.loc 1 423 0 discriminator 1
	movl	%esi, %eax
	subl	%esi, %edx
	xorl	%esi, %esi
.LVL69:
	jmp	.L90
	.cfi_endproc
.LFE34:
	.size	gzseek64, .-gzseek64
	.p2align 2,,3
	.globl	gzseek
	.type	gzseek, @function
gzseek:
.LFB35:
	.loc 1 443 0
	.cfi_startproc
.LVL70:
	.loc 1 446 0
	jmp	gzseek64
	.cfi_endproc
.LFE35:
	.size	gzseek, .-gzseek
	.p2align 2,,3
	.globl	gztell64
	.type	gztell64, @function
gztell64:
.LFB36:
	.loc 1 453 0
	.cfi_startproc
.LVL71:
	movl	4(%esp), %edx
	.loc 1 457 0
	testl	%edx, %edx
	je	.L109
.LVL72:
	.loc 1 460 0
	movl	12(%edx), %eax
	cmpl	$7247, %eax
	je	.L107
	.loc 1 460 0 is_stmt 0 discriminator 1
	cmpl	$31153, %eax
	jne	.L110
.L107:
	.loc 1 464 0 is_stmt 1
	movl	8(%edx), %eax
	movl	72(%edx), %ecx
	testl	%ecx, %ecx
	jne	.L112
	xorl	%edx, %edx
	addl	%edx, %eax
	ret
	.p2align 2,,3
.L112:
	.loc 1 464 0 is_stmt 0 discriminator 1
	movl	68(%edx), %edx
	addl	%edx, %eax
	ret
	.p2align 2,,3
.L110:
	.loc 1 461 0 is_stmt 1
	movl	$-1, %eax
	.loc 1 465 0
	ret
.LVL73:
.L109:
	.loc 1 458 0
	movl	$-1, %eax
	ret
	.cfi_endproc
.LFE36:
	.size	gztell64, .-gztell64
	.p2align 2,,3
	.globl	gztell
	.type	gztell, @function
gztell:
.LFB37:
	.loc 1 470 0
	.cfi_startproc
.LVL74:
	movl	4(%esp), %edx
.LVL75:
.LBB38:
.LBB39:
	.loc 1 457 0
	testl	%edx, %edx
	je	.L117
.LVL76:
	.loc 1 460 0
	movl	12(%edx), %eax
	cmpl	$7247, %eax
	je	.L115
	cmpl	$31153, %eax
	jne	.L118
.L115:
	.loc 1 464 0
	movl	8(%edx), %eax
	movl	72(%edx), %ecx
	testl	%ecx, %ecx
	jne	.L120
	xorl	%edx, %edx
	addl	%edx, %eax
	ret
	.p2align 2,,3
.L120:
	movl	68(%edx), %edx
	addl	%edx, %eax
	ret
	.p2align 2,,3
.L118:
	.loc 1 461 0
	movl	$-1, %eax
.LBE39:
.LBE38:
	.loc 1 475 0
	ret
.LVL77:
.L117:
.LBB41:
.LBB40:
	.loc 1 458 0
	movl	$-1, %eax
	ret
.LBE40:
.LBE41:
	.cfi_endproc
.LFE37:
	.size	gztell, .-gztell
	.p2align 2,,3
	.globl	gzoffset64
	.type	gzoffset64, @function
gzoffset64:
.LFB38:
	.loc 1 480 0
	.cfi_startproc
.LVL78:
	pushl	%ebx
.LCFI45:
	.cfi_def_cfa_offset 8
	.cfi_offset 3, -8
	subl	$24, %esp
.LCFI46:
	.cfi_def_cfa_offset 32
	movl	32(%esp), %ebx
	.loc 1 485 0
	testl	%ebx, %ebx
	je	.L125
.LVL79:
	.loc 1 488 0
	movl	12(%ebx), %eax
	cmpl	$7247, %eax
	je	.L123
	.loc 1 488 0 is_stmt 0 discriminator 1
	cmpl	$31153, %eax
	jne	.L125
.L123:
	.loc 1 492 0 is_stmt 1
	movl	$1, 8(%esp)
	movl	$0, 4(%esp)
	movl	16(%ebx), %eax
	movl	%eax, (%esp)
	call	lseek
.LVL80:
	.loc 1 493 0
	cmpl	$-1, %eax
	je	.L122
	.loc 1 495 0
	cmpl	$7247, 12(%ebx)
	je	.L126
.LVL81:
.L122:
	.loc 1 498 0
	addl	$24, %esp
	.cfi_remember_state
.LCFI47:
	.cfi_def_cfa_offset 8
	popl	%ebx
.LCFI48:
	.cfi_def_cfa_offset 4
	.cfi_restore 3
	ret
.LVL82:
	.p2align 2,,3
.L126:
.LCFI49:
	.cfi_restore_state
	.loc 1 496 0
	subl	88(%ebx), %eax
.LVL83:
	.loc 1 498 0
	addl	$24, %esp
	.cfi_remember_state
.LCFI50:
	.cfi_def_cfa_offset 8
	popl	%ebx
	.cfi_restore 3
.LCFI51:
	.cfi_def_cfa_offset 4
	ret
.LVL84:
	.p2align 2,,3
.L125:
.LCFI52:
	.cfi_restore_state
	.loc 1 489 0
	movl	$-1, %eax
	jmp	.L122
	.cfi_endproc
.LFE38:
	.size	gzoffset64, .-gzoffset64
	.p2align 2,,3
	.globl	gzoffset
	.type	gzoffset, @function
gzoffset:
.LFB39:
	.loc 1 503 0
	.cfi_startproc
.LVL85:
	pushl	%ebx
.LCFI53:
	.cfi_def_cfa_offset 8
	.cfi_offset 3, -8
	subl	$24, %esp
.LCFI54:
	.cfi_def_cfa_offset 32
	movl	32(%esp), %ebx
.LVL86:
.LBB44:
.LBB45:
	.loc 1 485 0
	testl	%ebx, %ebx
	je	.L131
.LVL87:
	.loc 1 488 0
	movl	12(%ebx), %eax
	cmpl	$7247, %eax
	je	.L129
	cmpl	$31153, %eax
	jne	.L131
.L129:
	.loc 1 492 0
	movl	$1, 8(%esp)
	movl	$0, 4(%esp)
	movl	16(%ebx), %eax
	movl	%eax, (%esp)
	call	lseek
.LVL88:
	.loc 1 493 0
	cmpl	$-1, %eax
	je	.L128
	.loc 1 495 0
	cmpl	$7247, 12(%ebx)
	je	.L132
.LVL89:
.L128:
.LBE45:
.LBE44:
	.loc 1 508 0
	addl	$24, %esp
	.cfi_remember_state
.LCFI55:
	.cfi_def_cfa_offset 8
	popl	%ebx
.LCFI56:
	.cfi_def_cfa_offset 4
	.cfi_restore 3
	ret
.LVL90:
	.p2align 2,,3
.L132:
.LCFI57:
	.cfi_restore_state
.LBB48:
.LBB46:
	.loc 1 496 0
	subl	88(%ebx), %eax
.LVL91:
.LBE46:
.LBE48:
	.loc 1 508 0
	addl	$24, %esp
	.cfi_remember_state
.LCFI58:
	.cfi_def_cfa_offset 8
	popl	%ebx
	.cfi_restore 3
.LCFI59:
	.cfi_def_cfa_offset 4
	ret
.LVL92:
	.p2align 2,,3
.L131:
.LCFI60:
	.cfi_restore_state
.LBB49:
.LBB47:
	.loc 1 489 0
	movl	$-1, %eax
	jmp	.L128
.LBE47:
.LBE49:
	.cfi_endproc
.LFE39:
	.size	gzoffset, .-gzoffset
	.p2align 2,,3
	.globl	gzeof
	.type	gzeof, @function
gzeof:
.LFB40:
	.loc 1 513 0
	.cfi_startproc
.LVL93:
	movl	4(%esp), %eax
	.loc 1 517 0
	testl	%eax, %eax
	je	.L135
.LVL94:
	.loc 1 520 0
	cmpl	$7247, 12(%eax)
	je	.L137
	.loc 1 521 0
	xorl	%eax, %eax
	.loc 1 525 0
	ret
	.p2align 2,,3
.L137:
	.loc 1 524 0 discriminator 1
	movl	56(%eax), %eax
	ret
.LVL95:
	.p2align 2,,3
.L135:
	.loc 1 518 0
	xorl	%eax, %eax
	ret
	.cfi_endproc
.LFE40:
	.size	gzeof, .-gzeof
	.section	.rodata.str1.1
.LC2:
	.string	"out of memory"
.LC3:
	.string	""
	.text
	.p2align 2,,3
	.globl	gzerror
	.type	gzerror, @function
gzerror:
.LFB41:
	.loc 1 531 0
	.cfi_startproc
.LVL96:
	movl	4(%esp), %eax
	movl	8(%esp), %ecx
	.loc 1 535 0
	testl	%eax, %eax
	je	.L143
.LVL97:
	.loc 1 538 0
	movl	12(%eax), %edx
	cmpl	$7247, %edx
	je	.L140
	.loc 1 538 0 is_stmt 0 discriminator 1
	cmpl	$31153, %edx
	jne	.L143
.L140:
	.loc 1 542 0 is_stmt 1
	testl	%ecx, %ecx
	je	.L141
	.loc 1 543 0
	movl	76(%eax), %edx
	movl	%edx, (%ecx)
.L141:
	.loc 1 544 0
	cmpl	$-4, 76(%eax)
	je	.L144
	.loc 1 545 0 discriminator 1
	movl	80(%eax), %eax
	.loc 1 544 0 discriminator 1
	testl	%eax, %eax
	je	.L146
	.loc 1 546 0
	ret
	.p2align 2,,3
.L144:
	.loc 1 544 0
	movl	$.LC2, %eax
	ret
	.p2align 2,,3
.L146:
	movl	$.LC3, %eax
	.loc 1 546 0
	ret
.LVL98:
	.p2align 2,,3
.L143:
	.loc 1 539 0
	xorl	%eax, %eax
	ret
	.cfi_endproc
.LFE41:
	.size	gzerror, .-gzerror
	.p2align 2,,3
	.globl	gzclearerr
	.type	gzclearerr, @function
gzclearerr:
.LFB42:
	.loc 1 551 0
	.cfi_startproc
.LVL99:
	pushl	%ebx
.LCFI61:
	.cfi_def_cfa_offset 8
	.cfi_offset 3, -8
	subl	$24, %esp
.LCFI62:
	.cfi_def_cfa_offset 32
	movl	32(%esp), %ebx
	.loc 1 555 0
	testl	%ebx, %ebx
	je	.L147
.LVL100:
	.loc 1 558 0
	movl	12(%ebx), %eax
	cmpl	$7247, %eax
	je	.L149
	.loc 1 558 0 is_stmt 0 discriminator 1
	cmpl	$31153, %eax
	je	.L150
.LVL101:
.L147:
	.loc 1 567 0 is_stmt 1
	addl	$24, %esp
	.cfi_remember_state
.LCFI63:
	.cfi_def_cfa_offset 8
	popl	%ebx
.LCFI64:
	.cfi_def_cfa_offset 4
	.cfi_restore 3
	ret
.LVL102:
	.p2align 2,,3
.L149:
.LCFI65:
	.cfi_restore_state
	.loc 1 563 0
	movl	$0, 52(%ebx)
	.loc 1 564 0
	movl	$0, 56(%ebx)
.L150:
.LVL103:
.LBB54:
.LBB55:
	.loc 1 581 0
	movl	80(%ebx), %eax
	testl	%eax, %eax
	je	.L151
	.loc 1 582 0
	cmpl	$-4, 76(%ebx)
	je	.L152
	.loc 1 583 0
	movl	%eax, (%esp)
	call	free
.L152:
	.loc 1 584 0
	movl	$0, 80(%ebx)
.L151:
	.loc 1 592 0
	movl	$0, 76(%ebx)
.LBE55:
.LBE54:
	.loc 1 567 0
	addl	$24, %esp
.LCFI66:
	.cfi_def_cfa_offset 8
	popl	%ebx
	.cfi_restore 3
.LCFI67:
	.cfi_def_cfa_offset 4
	ret
	.cfi_endproc
.LFE42:
	.size	gzclearerr, .-gzclearerr
	.section	.rodata.str1.1
.LC4:
	.string	": "
.LC5:
	.string	"%s%s%s"
	.text
	.p2align 2,,3
	.globl	gz_error
	.hidden	gz_error
	.type	gz_error, @function
gz_error:
.LFB43:
	.loc 1 579 0
	.cfi_startproc
.LVL104:
	pushl	%ebp
.LCFI68:
	.cfi_def_cfa_offset 8
	.cfi_offset 5, -8
	pushl	%edi
.LCFI69:
	.cfi_def_cfa_offset 12
	.cfi_offset 7, -12
	pushl	%esi
.LCFI70:
	.cfi_def_cfa_offset 16
	.cfi_offset 6, -16
	pushl	%ebx
.LCFI71:
	.cfi_def_cfa_offset 20
	.cfi_offset 3, -20
	subl	$44, %esp
.LCFI72:
	.cfi_def_cfa_offset 64
	movl	64(%esp), %ebx
	movl	68(%esp), %edi
	movl	72(%esp), %esi
	.loc 1 581 0
	movl	80(%ebx), %eax
	testl	%eax, %eax
	je	.L154
	.loc 1 582 0
	cmpl	$-4, 76(%ebx)
	je	.L155
	.loc 1 583 0
	movl	%eax, (%esp)
	call	free
.L155:
	.loc 1 584 0
	movl	$0, 80(%ebx)
.L154:
	.loc 1 588 0
	testl	%edi, %edi
	je	.L156
	.loc 1 588 0 is_stmt 0 discriminator 1
	cmpl	$-5, %edi
	je	.L156
	.loc 1 589 0 is_stmt 1
	movl	$0, (%ebx)
.L156:
	.loc 1 592 0
	movl	%edi, 76(%ebx)
	.loc 1 593 0
	testl	%esi, %esi
	je	.L153
	.loc 1 597 0
	cmpl	$-4, %edi
	je	.L153
.LVL105:
.LBB58:
.LBB59:
	.loc 1 601 0
	movl	20(%ebx), %ebp
	movl	$-1, %ecx
	movl	%ebp, %edi
	xorl	%eax, %eax
	repnz scasb
	movl	%ecx, %edx
	movl	$-1, %ecx
	movl	%esi, %edi
	repnz scasb
.LVL106:
	notl	%ecx
	subl	%edx, %ecx
	movl	%ecx, (%esp)
	call	malloc
	movl	%eax, %edx
	movl	%eax, 80(%ebx)
	testl	%eax, %eax
	je	.L159
	.loc 1 607 0
	movl	$-1, %ecx
	movl	%ebp, %edi
	xorl	%eax, %eax
	repnz scasb
	movl	%ecx, %ebx
	movl	$-1, %ecx
	movl	%esi, %edi
	repnz scasb
	notl	%ecx
	movl	%esi, 20(%esp)
	movl	$.LC4, 16(%esp)
	movl	%ebp, 12(%esp)
	movl	$.LC5, 8(%esp)
	subl	%ebx, %ecx
	movl	%ecx, 4(%esp)
	movl	%edx, (%esp)
	call	snprintf
.LVL107:
.L153:
.LBE59:
.LBE58:
	.loc 1 615 0
	addl	$44, %esp
	.cfi_remember_state
.LCFI73:
	.cfi_def_cfa_offset 20
	popl	%ebx
.LCFI74:
	.cfi_def_cfa_offset 16
	.cfi_restore 3
	popl	%esi
.LCFI75:
	.cfi_def_cfa_offset 12
	.cfi_restore 6
	popl	%edi
.LCFI76:
	.cfi_def_cfa_offset 8
	.cfi_restore 7
	popl	%ebp
.LCFI77:
	.cfi_def_cfa_offset 4
	.cfi_restore 5
	ret
.LVL108:
	.p2align 2,,3
.L159:
.LCFI78:
	.cfi_restore_state
.LBB61:
.LBB60:
	.loc 1 603 0
	movl	$-4, 76(%ebx)
.LBE60:
.LBE61:
	.loc 1 615 0
	addl	$44, %esp
.LCFI79:
	.cfi_def_cfa_offset 20
	popl	%ebx
	.cfi_restore 3
.LCFI80:
	.cfi_def_cfa_offset 16
	popl	%esi
	.cfi_restore 6
.LCFI81:
	.cfi_def_cfa_offset 12
	popl	%edi
	.cfi_restore 7
.LCFI82:
	.cfi_def_cfa_offset 8
	popl	%ebp
	.cfi_restore 5
.LCFI83:
	.cfi_def_cfa_offset 4
	ret
	.cfi_endproc
.LFE43:
	.size	gz_error, .-gz_error
.Letext0:
	.file 2 "/home/user/workspace/embox/./src/include/asm-generic/types32.h"
	.file 3 "/home/user/workspace/embox/./src/include/stddef.h"
	.file 4 "zconf.h"
	.file 5 "/home/user/workspace/embox/./src/compat/posix/include/sys/types.h"
	.file 6 "zlib.h"
	.file 7 "gzguts.h"
	.file 8 "/home/user/workspace/embox/./src/include/../util/dlist_debug.h"
	.section	.note.GNU-stack,"",@progbits
