	.file	"gzread.c"
	.text
.Ltext0:
	.p2align 2,,3
	.type	gz_load.part.0, @function
gz_load.part.0:
.LFB41:
	.file 1 "gzread.c"
	.loc 1 20 0
	.cfi_startproc
.LVL0:
	pushl	%ebx
.LCFI0:
	.cfi_def_cfa_offset 8
	.cfi_offset 3, -8
	subl	$24, %esp
.LCFI1:
	.cfi_def_cfa_offset 32
	movl	%eax, %ebx
	.loc 1 36 0
	call	task_self_errno_ptr
.LVL1:
	movl	(%eax), %eax
	movl	%eax, (%esp)
	call	strerror
	movl	%eax, 8(%esp)
	movl	$-1, 4(%esp)
	movl	%ebx, (%esp)
	call	gz_error
	.loc 1 42 0
	movl	$-1, %eax
	addl	$24, %esp
.LCFI2:
	.cfi_def_cfa_offset 8
	popl	%ebx
.LCFI3:
	.cfi_def_cfa_offset 4
	.cfi_restore 3
.LVL2:
	ret
	.cfi_endproc
.LFE41:
	.size	gz_load.part.0, .-gz_load.part.0
	.p2align 2,,3
	.type	gz_avail.part.1, @function
gz_avail.part.1:
.LFB42:
	.loc 1 51 0
	.cfi_startproc
.LVL3:
	pushl	%ebp
.LCFI4:
	.cfi_def_cfa_offset 8
	.cfi_offset 5, -8
	pushl	%edi
.LCFI5:
	.cfi_def_cfa_offset 12
	.cfi_offset 7, -12
	pushl	%esi
.LCFI6:
	.cfi_def_cfa_offset 16
	.cfi_offset 6, -16
	pushl	%ebx
.LCFI7:
	.cfi_def_cfa_offset 20
	.cfi_offset 3, -20
	subl	$44, %esp
.LCFI8:
	.cfi_def_cfa_offset 64
	movl	%eax, %ebx
	.loc 1 60 0
	movl	88(%eax), %ebp
	testl	%ebp, %ebp
	je	.L13
.LBB12:
	.loc 1 61 0
	movl	32(%eax), %edx
.LVL4:
	.loc 1 62 0
	movl	84(%eax), %ecx
.LVL5:
	movl	%ebp, %edi
	shrl	$2, %edi
	.loc 1 51 0
	movl	%edi, %eax
.LVL6:
	sall	$2, %eax
	movl	%eax, 24(%esp)
	.loc 1 62 0
	je	.L14
	.loc 1 51 0
	cmpl	$9, %ebp
	seta	23(%esp)
	movl	%edx, %eax
	orl	%ecx, %eax
	testb	$3, %al
	sete	%al
	andb	%al, 23(%esp)
	leal	4(%ecx), %eax
	cmpl	%eax, %edx
	seta	22(%esp)
	leal	4(%edx), %eax
	cmpl	%eax, %ecx
	seta	%al
	orb	%al, 22(%esp)
	.loc 1 62 0
	movb	22(%esp), %al
	testb	%al, 23(%esp)
	je	.L14
.LBE12:
	.loc 1 51 0
	xorl	%eax, %eax
.LVL7:
	.p2align 2,,3
.L5:
.LBB13:
	.loc 1 65 0
	movl	(%ecx,%eax,4), %esi
	movl	%esi, (%edx,%eax,4)
	incl	%eax
	cmpl	%eax, %edi
	ja	.L5
	addl	24(%esp), %edx
	addl	24(%esp), %ecx
	movl	%ebp, %esi
	subl	24(%esp), %esi
	cmpl	24(%esp), %ebp
	je	.L6
.L4:
.LBE13:
	.loc 1 51 0
	xorl	%eax, %eax
	movl	%edx, %edi
	.p2align 2,,3
.L7:
.LBB14:
	.loc 1 65 0
	movb	(%ecx,%eax), %dl
	movb	%dl, (%edi,%eax)
	incl	%eax
	.loc 1 66 0
	cmpl	%esi, %eax
	jne	.L7
.L6:
	movl	88(%ebx), %ebp
.L3:
.LBE14:
	.loc 1 68 0
	movl	24(%ebx), %edi
	subl	%ebp, %edi
	addl	32(%ebx), %ebp
.LVL8:
	.loc 1 28 0
	xorl	%esi, %esi
	jmp	.L9
.LVL9:
	.p2align 2,,3
.L19:
.LBB15:
.LBB16:
	.loc 1 33 0
	addl	%eax, %esi
.LVL10:
	.loc 1 34 0
	cmpl	%esi, %edi
	jbe	.L10
.LVL11:
.L9:
	.loc 1 30 0
	movl	%edi, %eax
	subl	%esi, %eax
	movl	%eax, 8(%esp)
	leal	0(%ebp,%esi), %eax
	movl	%eax, 4(%esp)
	movl	16(%ebx), %eax
	movl	%eax, (%esp)
	call	read
.LVL12:
	.loc 1 31 0
	cmpl	$0, %eax
	jg	.L19
	.loc 1 35 0
	jne	.L20
	.loc 1 40 0
	movl	$1, 52(%ebx)
.L10:
.LBE16:
.LBE15:
	.loc 1 71 0
	addl	%esi, 88(%ebx)
	.loc 1 72 0
	movl	32(%ebx), %eax
.LVL13:
	movl	%eax, 84(%ebx)
	.loc 1 74 0
	xorl	%eax, %eax
.L12:
	.loc 1 75 0
	addl	$44, %esp
	.cfi_remember_state
.LCFI9:
	.cfi_def_cfa_offset 20
	popl	%ebx
.LCFI10:
	.cfi_def_cfa_offset 16
	.cfi_restore 3
.LVL14:
	popl	%esi
.LCFI11:
	.cfi_def_cfa_offset 12
	.cfi_restore 6
.LVL15:
	popl	%edi
.LCFI12:
	.cfi_def_cfa_offset 8
	.cfi_restore 7
.LVL16:
	popl	%ebp
.LCFI13:
	.cfi_def_cfa_offset 4
	.cfi_restore 5
.LVL17:
	ret
.LVL18:
	.p2align 2,,3
.L13:
.LCFI14:
	.cfi_restore_state
	.loc 1 60 0
	xorl	%ebp, %ebp
	jmp	.L3
.LVL19:
.L20:
.LBB20:
.LBB19:
.LBB17:
.LBB18:
	.loc 1 36 0
	call	task_self_errno_ptr
.LVL20:
	movl	(%eax), %eax
	movl	%eax, (%esp)
	call	strerror
	movl	%eax, 8(%esp)
	movl	$-1, 4(%esp)
	movl	%ebx, (%esp)
	call	gz_error
	.loc 1 70 0
	movl	$-1, %eax
	jmp	.L12
.LVL21:
.L14:
.LBE18:
.LBE17:
.LBE19:
.LBE20:
	.loc 1 51 0
	movl	%ebp, %esi
	jmp	.L4
	.cfi_endproc
.LFE42:
	.size	gz_avail.part.1, .-gz_avail.part.1
	.section	.rodata.str1.1,"aMS",@progbits,1
.LC0:
	.string	"out of memory"
.LC1:
	.string	"1.2.8"
	.text
	.p2align 2,,3
	.type	gz_look, @function
gz_look:
.LFB30:
	.loc 1 88 0
	.cfi_startproc
.LVL22:
	pushl	%ebp
.LCFI15:
	.cfi_def_cfa_offset 8
	.cfi_offset 5, -8
	pushl	%edi
.LCFI16:
	.cfi_def_cfa_offset 12
	.cfi_offset 7, -12
	pushl	%esi
.LCFI17:
	.cfi_def_cfa_offset 16
	.cfi_offset 6, -16
	pushl	%ebx
.LCFI18:
	.cfi_def_cfa_offset 20
	.cfi_offset 3, -20
	subl	$28, %esp
.LCFI19:
	.cfi_def_cfa_offset 48
	movl	%eax, %ebx
	.loc 1 89 0
	leal	84(%eax), %esi
.LVL23:
	.loc 1 92 0
	movl	24(%eax), %ecx
	testl	%ecx, %ecx
	je	.L40
.LVL24:
.L22:
	.loc 1 122 0
	movl	88(%ebx), %ecx
	cmpl	$1, %ecx
	jbe	.L41
.L28:
	.loc 1 137 0 discriminator 1
	movl	84(%ebx), %eax
	.loc 1 136 0 discriminator 1
	cmpb	$31, (%eax)
	je	.L42
.L31:
	.loc 1 146 0
	movl	40(%ebx), %eax
	testl	%eax, %eax
	je	.L43
	.loc 1 156 0
	movl	36(%ebx), %eax
	movl	%eax, 4(%ebx)
	.loc 1 158 0
	movl	84(%ebx), %esi
.LVL25:
	movl	%eax, %edi
	rep movsb
	.loc 1 159 0
	movl	88(%ebx), %eax
	movl	%eax, (%ebx)
	.loc 1 160 0
	movl	$0, 88(%ebx)
	.loc 1 162 0
	movl	$1, 44(%ebx)
	.loc 1 163 0
	movl	$1, 40(%ebx)
	.loc 1 164 0
	xorl	%eax, %eax
.L27:
	.loc 1 165 0
	addl	$28, %esp
	.cfi_remember_state
.LCFI20:
	.cfi_def_cfa_offset 20
	popl	%ebx
.LCFI21:
	.cfi_def_cfa_offset 16
	.cfi_restore 3
.LVL26:
	popl	%esi
.LCFI22:
	.cfi_def_cfa_offset 12
	.cfi_restore 6
	popl	%edi
.LCFI23:
	.cfi_def_cfa_offset 8
	.cfi_restore 7
	popl	%ebp
.LCFI24:
	.cfi_def_cfa_offset 4
	.cfi_restore 5
	ret
.LVL27:
	.p2align 2,,3
.L43:
.LCFI25:
	.cfi_restore_state
	.loc 1 147 0
	movl	$0, 88(%ebx)
	.loc 1 148 0
	movl	$1, 52(%ebx)
	.loc 1 149 0
	movl	$0, (%ebx)
	.loc 1 150 0
	xorl	%eax, %eax
	.loc 1 165 0
	addl	$28, %esp
	.cfi_remember_state
.LCFI26:
	.cfi_def_cfa_offset 20
	popl	%ebx
	.cfi_restore 3
.LCFI27:
	.cfi_def_cfa_offset 16
.LVL28:
	popl	%esi
	.cfi_restore 6
.LCFI28:
	.cfi_def_cfa_offset 12
.LVL29:
	popl	%edi
	.cfi_restore 7
.LCFI29:
	.cfi_def_cfa_offset 8
	popl	%ebp
	.cfi_restore 5
.LCFI30:
	.cfi_def_cfa_offset 4
	ret
.LVL30:
	.p2align 2,,3
.L40:
.LCFI31:
	.cfi_restore_state
	.loc 1 94 0
	movl	28(%eax), %edi
	movl	%edi, (%esp)
	call	malloc
.LVL31:
	movl	%eax, %ebp
	movl	%eax, 32(%ebx)
	.loc 1 95 0
	leal	(%edi,%edi), %eax
	movl	%eax, (%esp)
	call	malloc
	movl	%eax, 36(%ebx)
	.loc 1 96 0
	testl	%ebp, %ebp
	je	.L23
	.loc 1 96 0 is_stmt 0 discriminator 1
	testl	%eax, %eax
	je	.L24
	.loc 1 104 0 is_stmt 1
	movl	%edi, 24(%ebx)
	.loc 1 107 0
	movl	$0, 116(%ebx)
	.loc 1 108 0
	movl	$0, 120(%ebx)
	.loc 1 109 0
	movl	$0, 124(%ebx)
	.loc 1 110 0
	movl	$0, 88(%ebx)
	.loc 1 111 0
	movl	$0, 84(%ebx)
	.loc 1 112 0
	movl	$56, 12(%esp)
	movl	$.LC1, 8(%esp)
	movl	$31, 4(%esp)
	movl	%esi, (%esp)
	call	inflateInit2_
	testl	%eax, %eax
	je	.L22
	.loc 1 113 0
	movl	36(%ebx), %eax
	movl	%eax, (%esp)
	call	free
	.loc 1 114 0
	movl	32(%ebx), %eax
	movl	%eax, (%esp)
	call	free
	.loc 1 115 0
	movl	$0, 24(%ebx)
.L38:
	.loc 1 116 0
	movl	$.LC0, 8(%esp)
	movl	$-4, 4(%esp)
	movl	%ebx, (%esp)
	call	gz_error
	jmp	.L39
	.p2align 2,,3
.L41:
.LVL32:
.LBB21:
.LBB22:
	.loc 1 57 0
	movl	76(%ebx), %eax
	testl	%eax, %eax
	jne	.L44
.L29:
	.loc 1 59 0
	movl	52(%ebx), %edx
	testl	%edx, %edx
	je	.L45
.L30:
.LBE22:
.LBE21:
	.loc 1 125 0
	testl	%ecx, %ecx
	je	.L35
	.loc 1 136 0
	cmpl	$1, %ecx
	ja	.L28
	movl	$1, %ecx
	jmp	.L31
.LVL33:
	.p2align 2,,3
.L42:
	.loc 1 137 0
	cmpb	$-117, 1(%eax)
	jne	.L31
	.loc 1 138 0
	movl	%esi, (%esp)
	call	inflateReset
	.loc 1 139 0
	movl	$2, 44(%ebx)
	.loc 1 140 0
	movl	$0, 40(%ebx)
	.loc 1 141 0
	xorl	%eax, %eax
	jmp	.L27
.LVL34:
	.p2align 2,,3
.L44:
.LBB25:
.LBB23:
	.loc 1 57 0
	cmpl	$-5, %eax
	je	.L29
.LVL35:
.L39:
.LBE23:
.LBE25:
	.loc 1 117 0
	movl	$-1, %eax
	.loc 1 165 0
	addl	$28, %esp
	.cfi_remember_state
.LCFI32:
	.cfi_def_cfa_offset 20
	popl	%ebx
	.cfi_restore 3
.LCFI33:
	.cfi_def_cfa_offset 16
.LVL36:
	popl	%esi
	.cfi_restore 6
.LCFI34:
	.cfi_def_cfa_offset 12
.LVL37:
	popl	%edi
	.cfi_restore 7
.LCFI35:
	.cfi_def_cfa_offset 8
	popl	%ebp
	.cfi_restore 5
.LCFI36:
	.cfi_def_cfa_offset 4
	ret
.LVL38:
	.p2align 2,,3
.L35:
.LCFI37:
	.cfi_restore_state
	.loc 1 126 0
	xorl	%eax, %eax
	.loc 1 165 0
	addl	$28, %esp
	.cfi_remember_state
.LCFI38:
	.cfi_def_cfa_offset 20
	popl	%ebx
	.cfi_restore 3
.LCFI39:
	.cfi_def_cfa_offset 16
.LVL39:
	popl	%esi
	.cfi_restore 6
.LCFI40:
	.cfi_def_cfa_offset 12
.LVL40:
	popl	%edi
	.cfi_restore 7
.LCFI41:
	.cfi_def_cfa_offset 8
	popl	%ebp
	.cfi_restore 5
.LCFI42:
	.cfi_def_cfa_offset 4
	ret
.LVL41:
	.p2align 2,,3
.L45:
.LCFI43:
	.cfi_restore_state
.LBB26:
.LBB24:
	.loc 1 59 0
	movl	%ebx, %eax
	call	gz_avail.part.1
.LBE24:
.LBE26:
	.loc 1 123 0
	incl	%eax
	je	.L39
	movl	88(%ebx), %ecx
	jmp	.L30
.LVL42:
.L23:
	.loc 1 97 0
	testl	%eax, %eax
	je	.L38
	.loc 1 98 0
	movl	%eax, (%esp)
	call	free
	movl	32(%ebx), %ebp
	.loc 1 99 0
	testl	%ebp, %ebp
	je	.L38
.L24:
	.loc 1 100 0
	movl	%ebp, (%esp)
	call	free
	jmp	.L38
	.cfi_endproc
.LFE30:
	.size	gz_look, .-gz_look
	.section	.rodata.str1.1
.LC2:
	.string	"compressed data error"
.LC3:
	.string	"unexpected end of file"
	.section	.rodata.str1.4,"aMS",@progbits,1
	.align 4
.LC4:
	.string	"internal error: inflate stream corrupt"
	.text
	.p2align 2,,3
	.type	gz_decomp, @function
gz_decomp:
.LFB31:
	.loc 1 174 0
	.cfi_startproc
.LVL43:
	pushl	%ebp
.LCFI44:
	.cfi_def_cfa_offset 8
	.cfi_offset 5, -8
	pushl	%edi
.LCFI45:
	.cfi_def_cfa_offset 12
	.cfi_offset 7, -12
	pushl	%esi
.LCFI46:
	.cfi_def_cfa_offset 16
	.cfi_offset 6, -16
	pushl	%ebx
.LCFI47:
	.cfi_def_cfa_offset 20
	.cfi_offset 3, -20
	subl	$28, %esp
.LCFI48:
	.cfi_def_cfa_offset 48
	movl	%eax, %esi
.LVL44:
	.loc 1 177 0
	leal	84(%eax), %edi
.LVL45:
	.loc 1 180 0
	movl	100(%eax), %ebp
.LVL46:
	.loc 1 175 0
	xorl	%ebx, %ebx
.LVL47:
	.p2align 2,,3
.L57:
	.loc 1 183 0
	movl	88(%esi), %eax
	testl	%eax, %eax
	jne	.L47
.LVL48:
.LBB27:
.LBB28:
	.loc 1 57 0
	movl	76(%esi), %eax
	testl	%eax, %eax
	je	.L48
	cmpl	$-5, %eax
	je	.L48
.L61:
.LBE28:
.LBE27:
	.loc 1 184 0
	movl	$-1, %eax
	.loc 1 218 0
	addl	$28, %esp
	.cfi_remember_state
.LCFI49:
	.cfi_def_cfa_offset 20
	popl	%ebx
.LCFI50:
	.cfi_def_cfa_offset 16
	.cfi_restore 3
	popl	%esi
.LCFI51:
	.cfi_def_cfa_offset 12
	.cfi_restore 6
.LVL49:
	popl	%edi
.LCFI52:
	.cfi_def_cfa_offset 8
	.cfi_restore 7
.LVL50:
	popl	%ebp
.LCFI53:
	.cfi_def_cfa_offset 4
	.cfi_restore 5
.LVL51:
	ret
.LVL52:
	.p2align 2,,3
.L69:
.LCFI54:
	.cfi_restore_state
.LBB31:
.LBB29:
	.loc 1 59 0
	movl	%esi, %eax
	call	gz_avail.part.1
.LBE29:
.LBE31:
	.loc 1 183 0
	incl	%eax
	je	.L61
	.loc 1 185 0
	movl	88(%esi), %eax
	testl	%eax, %eax
	je	.L50
.LVL53:
.L47:
	.loc 1 191 0
	movl	$0, 4(%esp)
	movl	%edi, (%esp)
	call	inflate
	movl	%eax, %ebx
.LVL54:
	.loc 1 192 0
	cmpl	$-2, %eax
	je	.L52
	.loc 1 192 0 is_stmt 0 discriminator 1
	cmpl	$2, %eax
	je	.L52
	.loc 1 197 0 is_stmt 1
	cmpl	$-4, %eax
	je	.L67
	.loc 1 201 0
	cmpl	$-3, %eax
	je	.L68
	.loc 1 206 0
	movl	100(%esi), %eax
.LVL55:
	testl	%eax, %eax
	je	.L63
	.loc 1 206 0 is_stmt 0 discriminator 1
	cmpl	$1, %ebx
	jne	.L57
.LVL56:
	.loc 1 209 0 is_stmt 1
	subl	%eax, %ebp
.LVL57:
	movl	%ebp, (%esi)
	.loc 1 210 0
	movl	96(%esi), %eax
	subl	%ebp, %eax
	movl	%eax, 4(%esi)
.LVL58:
.L59:
	.loc 1 214 0
	movl	$0, 44(%esi)
	.loc 1 217 0
	xorl	%eax, %eax
	.loc 1 218 0
	addl	$28, %esp
	.cfi_remember_state
.LCFI55:
	.cfi_def_cfa_offset 20
	popl	%ebx
	.cfi_restore 3
.LCFI56:
	.cfi_def_cfa_offset 16
	popl	%esi
	.cfi_restore 6
.LCFI57:
	.cfi_def_cfa_offset 12
.LVL59:
	popl	%edi
	.cfi_restore 7
.LCFI58:
	.cfi_def_cfa_offset 8
.LVL60:
	popl	%ebp
	.cfi_restore 5
.LCFI59:
	.cfi_def_cfa_offset 4
	ret
.LVL61:
	.p2align 2,,3
.L48:
.LCFI60:
	.cfi_restore_state
.LBB32:
.LBB30:
	.loc 1 59 0
	movl	52(%esi), %eax
	testl	%eax, %eax
	je	.L69
.L50:
.LBE30:
.LBE32:
	.loc 1 186 0
	movl	$.LC3, 8(%esp)
	movl	$-5, 4(%esp)
	movl	%esi, (%esp)
	call	gz_error
	movl	100(%esi), %eax
.LVL62:
.L51:
	.loc 1 209 0
	subl	%eax, %ebp
.LVL63:
	movl	%ebp, (%esi)
	.loc 1 210 0
	movl	96(%esi), %eax
	subl	%ebp, %eax
	movl	%eax, 4(%esi)
	.loc 1 213 0
	decl	%ebx
.LVL64:
	je	.L59
	.loc 1 217 0
	xorl	%eax, %eax
	.loc 1 218 0
	addl	$28, %esp
	.cfi_remember_state
.LCFI61:
	.cfi_def_cfa_offset 20
	popl	%ebx
	.cfi_restore 3
.LCFI62:
	.cfi_def_cfa_offset 16
	popl	%esi
	.cfi_restore 6
.LCFI63:
	.cfi_def_cfa_offset 12
.LVL65:
	popl	%edi
	.cfi_restore 7
.LCFI64:
	.cfi_def_cfa_offset 8
.LVL66:
	popl	%ebp
	.cfi_restore 5
.LCFI65:
	.cfi_def_cfa_offset 4
	ret
.LVL67:
	.p2align 2,,3
.L52:
.LCFI66:
	.cfi_restore_state
	.loc 1 193 0
	movl	$.LC4, 8(%esp)
	movl	$-2, 4(%esp)
	movl	%esi, (%esp)
	call	gz_error
.LVL68:
	.loc 1 195 0
	movl	$-1, %eax
	.loc 1 218 0
	addl	$28, %esp
	.cfi_remember_state
.LCFI67:
	.cfi_def_cfa_offset 20
	popl	%ebx
	.cfi_restore 3
.LCFI68:
	.cfi_def_cfa_offset 16
.LVL69:
	popl	%esi
	.cfi_restore 6
.LCFI69:
	.cfi_def_cfa_offset 12
.LVL70:
	popl	%edi
	.cfi_restore 7
.LCFI70:
	.cfi_def_cfa_offset 8
.LVL71:
	popl	%ebp
	.cfi_restore 5
.LCFI71:
	.cfi_def_cfa_offset 4
.LVL72:
	ret
.LVL73:
	.p2align 2,,3
.L67:
.LCFI72:
	.cfi_restore_state
	.loc 1 198 0
	movl	$.LC0, 8(%esp)
	movl	$-4, 4(%esp)
	movl	%esi, (%esp)
	call	gz_error
.LVL74:
	.loc 1 199 0
	movl	$-1, %eax
	.loc 1 218 0
	addl	$28, %esp
	.cfi_remember_state
.LCFI73:
	.cfi_def_cfa_offset 20
	popl	%ebx
	.cfi_restore 3
.LCFI74:
	.cfi_def_cfa_offset 16
.LVL75:
	popl	%esi
	.cfi_restore 6
.LCFI75:
	.cfi_def_cfa_offset 12
.LVL76:
	popl	%edi
	.cfi_restore 7
.LCFI76:
	.cfi_def_cfa_offset 8
.LVL77:
	popl	%ebp
	.cfi_restore 5
.LCFI77:
	.cfi_def_cfa_offset 4
.LVL78:
	ret
.LVL79:
	.p2align 2,,3
.L68:
.LCFI78:
	.cfi_restore_state
	.loc 1 203 0
	movl	108(%esi), %eax
.LVL80:
	.loc 1 202 0
	testl	%eax, %eax
	je	.L70
.L56:
	.loc 1 202 0 is_stmt 0 discriminator 3
	movl	%eax, 8(%esp)
	movl	$-3, 4(%esp)
	movl	%esi, (%esp)
	call	gz_error
	.loc 1 204 0 is_stmt 1 discriminator 3
	movl	$-1, %eax
	.loc 1 218 0 discriminator 3
	addl	$28, %esp
	.cfi_remember_state
.LCFI79:
	.cfi_def_cfa_offset 20
	popl	%ebx
	.cfi_restore 3
.LCFI80:
	.cfi_def_cfa_offset 16
.LVL81:
	popl	%esi
	.cfi_restore 6
.LCFI81:
	.cfi_def_cfa_offset 12
.LVL82:
	popl	%edi
	.cfi_restore 7
.LCFI82:
	.cfi_def_cfa_offset 8
.LVL83:
	popl	%ebp
	.cfi_restore 5
.LCFI83:
	.cfi_def_cfa_offset 4
.LVL84:
	ret
.LVL85:
	.p2align 2,,3
.L63:
.LCFI84:
	.cfi_restore_state
	.loc 1 206 0
	xorl	%eax, %eax
	jmp	.L51
.L70:
	.loc 1 202 0
	movl	$.LC2, %eax
	jmp	.L56
	.cfi_endproc
.LFE31:
	.size	gz_decomp, .-gz_decomp
	.p2align 2,,3
	.type	gz_fetch, @function
gz_fetch:
.LFB32:
	.loc 1 228 0
	.cfi_startproc
.LVL86:
	pushl	%edi
.LCFI85:
	.cfi_def_cfa_offset 8
	.cfi_offset 7, -8
	pushl	%esi
.LCFI86:
	.cfi_def_cfa_offset 12
	.cfi_offset 6, -12
	pushl	%ebx
.LCFI87:
	.cfi_def_cfa_offset 16
	.cfi_offset 3, -16
	subl	$16, %esp
.LCFI88:
	.cfi_def_cfa_offset 32
	movl	%eax, %ebx
.LVL87:
.L89:
	.loc 1 232 0
	movl	44(%ebx), %eax
	cmpl	$1, %eax
	je	.L74
	cmpl	$2, %eax
	je	.L75
	testl	%eax, %eax
	jne	.L72
	.loc 1 234 0
	movl	%ebx, %eax
	call	gz_look
	incl	%eax
	je	.L84
	.loc 1 236 0
	movl	44(%ebx), %edx
	testl	%edx, %edx
	je	.L85
.L72:
	.loc 1 251 0
	movl	(%ebx), %eax
	testl	%eax, %eax
	jne	.L85
	.loc 1 251 0 is_stmt 0 discriminator 1
	movl	52(%ebx), %eax
	testl	%eax, %eax
	je	.L89
	movl	88(%ebx), %eax
	testl	%eax, %eax
	jne	.L89
.L85:
	.loc 1 252 0 is_stmt 1
	xorl	%eax, %eax
	jmp	.L76
	.p2align 2,,3
.L75:
	.loc 1 246 0
	movl	24(%ebx), %eax
	sall	%eax
	movl	%eax, 100(%ebx)
	.loc 1 247 0
	movl	36(%ebx), %eax
	movl	%eax, 96(%ebx)
	.loc 1 248 0
	movl	%ebx, %eax
	call	gz_decomp
	incl	%eax
	jne	.L72
.L84:
	.loc 1 249 0
	movl	$-1, %eax
	jmp	.L76
	.p2align 2,,3
.L74:
	.loc 1 240 0
	movl	24(%ebx), %esi
	sall	%esi
	movl	36(%ebx), %edi
.LVL88:
.LBB37:
.LBB38:
	.loc 1 28 0
	movl	$0, (%ebx)
	xorl	%eax, %eax
	jmp	.L78
.LVL89:
	.p2align 2,,3
.L90:
	.loc 1 33 0
	addl	(%ebx), %eax
.LVL90:
	movl	%eax, (%ebx)
	.loc 1 34 0
	cmpl	%eax, %esi
	jbe	.L79
.L78:
	.loc 1 30 0
	movl	%esi, %edx
	subl	%eax, %edx
	movl	%edx, 8(%esp)
	addl	%edi, %eax
	movl	%eax, 4(%esp)
	movl	16(%ebx), %eax
	movl	%eax, (%esp)
	call	read
.LVL91:
	.loc 1 31 0
	cmpl	$0, %eax
	jg	.L90
	.loc 1 35 0
	jne	.L91
	.loc 1 40 0
	movl	$1, 52(%ebx)
.LVL92:
.L79:
.LBE38:
.LBE37:
	.loc 1 243 0
	movl	36(%ebx), %eax
	movl	%eax, 4(%ebx)
	.loc 1 244 0
	xorl	%eax, %eax
.LVL93:
.L76:
	.loc 1 253 0
	addl	$16, %esp
	.cfi_remember_state
.LCFI89:
	.cfi_def_cfa_offset 16
	popl	%ebx
.LCFI90:
	.cfi_def_cfa_offset 12
	.cfi_restore 3
.LVL94:
	popl	%esi
.LCFI91:
	.cfi_def_cfa_offset 8
	.cfi_restore 6
	popl	%edi
.LCFI92:
	.cfi_def_cfa_offset 4
	.cfi_restore 7
	ret
.LVL95:
.L91:
.LCFI93:
	.cfi_restore_state
.LBB42:
.LBB41:
.LBB39:
.LBB40:
	.loc 1 36 0
	call	task_self_errno_ptr
.LVL96:
	movl	(%eax), %eax
	movl	%eax, (%esp)
	call	strerror
	movl	%eax, 8(%esp)
	movl	$-1, 4(%esp)
	movl	%ebx, (%esp)
	call	gz_error
	.loc 1 242 0
	movl	$-1, %eax
	jmp	.L76
.LBE40:
.LBE39:
.LBE41:
.LBE42:
	.cfi_endproc
.LFE32:
	.size	gz_fetch, .-gz_fetch
	.p2align 2,,3
	.type	gzread.constprop.2, @function
gzread.constprop.2:
.LFB43:
	.loc 1 288 0
	.cfi_startproc
.LVL97:
	pushl	%ebp
.LCFI94:
	.cfi_def_cfa_offset 8
	.cfi_offset 5, -8
	pushl	%edi
.LCFI95:
	.cfi_def_cfa_offset 12
	.cfi_offset 7, -12
	pushl	%esi
.LCFI96:
	.cfi_def_cfa_offset 16
	.cfi_offset 6, -16
	pushl	%ebx
.LCFI97:
	.cfi_def_cfa_offset 20
	.cfi_offset 3, -20
	subl	$44, %esp
.LCFI98:
	.cfi_def_cfa_offset 64
	movl	%eax, %ebx
	movl	%edx, 24(%esp)
.LVL98:
	.loc 1 298 0
	testl	%eax, %eax
	je	.L125
.LVL99:
	.loc 1 304 0
	cmpl	$7247, 12(%eax)
	jne	.L125
	.loc 1 305 0
	movl	76(%eax), %eax
.LVL100:
	.loc 1 304 0
	testl	%eax, %eax
	jne	.L129
	.loc 1 320 0
	movl	72(%ebx), %eax
	testl	%eax, %eax
	jne	.L95
.L132:
	movl	(%ebx), %ebp
.LVL101:
.L96:
.LBB47:
.LBB48:
	.loc 1 266 0
	movl	$0, 28(%esp)
	movl	$1, %edx
	jmp	.L118
.LVL102:
	.p2align 2,,3
.L104:
.LBE48:
.LBE47:
	.loc 1 338 0
	movl	52(%ebx), %esi
	testl	%esi, %esi
	je	.L107
	movl	88(%ebx), %ecx
	testl	%ecx, %ecx
	je	.L130
.L107:
	.loc 1 345 0
	movl	44(%ebx), %eax
	testl	%eax, %eax
	je	.L109
	movl	24(%ebx), %ecx
	sall	%ecx
	cmpl	%ecx, %edx
	jb	.L109
	.loc 1 355 0
	decl	%eax
	je	.L131
	.loc 1 362 0
	movl	%edx, 100(%ebx)
	.loc 1 363 0
	movl	24(%esp), %eax
	movl	%eax, 96(%ebx)
	.loc 1 364 0
	movl	%ebx, %eax
	movl	%edx, 20(%esp)
	call	gz_decomp
.LVL103:
	incl	%eax
	movl	20(%esp), %edx
	je	.L125
	.loc 1 366 0
	movl	(%ebx), %ebp
.LVL104:
	.loc 1 367 0
	movl	$0, (%ebx)
	subl	%ebp, %edx
	addl	%ebp, 24(%esp)
.LVL105:
.L106:
	.loc 1 373 0
	addl	%ebp, 28(%esp)
	.loc 1 374 0
	addl	%ebp, 8(%ebx)
.LVL106:
.L111:
	.loc 1 375 0
	testl	%edx, %edx
	je	.L108
	movl	(%ebx), %ebp
.LVL107:
.L118:
	.loc 1 330 0
	testl	%ebp, %ebp
	je	.L104
	.loc 1 331 0
	cmpl	%edx, %ebp
	jbe	.L105
	movl	%edx, %ebp
.L105:
.LVL108:
	.loc 1 332 0
	movl	4(%ebx), %esi
	movl	24(%esp), %edi
	movl	%ebp, %ecx
	rep movsb
	.loc 1 333 0
	addl	%ebp, 4(%ebx)
	.loc 1 334 0
	subl	%ebp, (%ebx)
	subl	%ebp, %edx
.LVL109:
	movl	%edi, 24(%esp)
	jmp	.L106
.LVL110:
	.p2align 2,,3
.L109:
	.loc 1 347 0
	movl	%ebx, %eax
	movl	%edx, 20(%esp)
	call	gz_fetch
.LVL111:
	incl	%eax
	movl	20(%esp), %edx
	jne	.L111
.LVL112:
	.p2align 2,,3
.L125:
	.loc 1 365 0
	movl	$-1, %eax
	.loc 1 379 0
	addl	$44, %esp
	.cfi_remember_state
.LCFI99:
	.cfi_def_cfa_offset 20
	popl	%ebx
	.cfi_restore 3
.LCFI100:
	.cfi_def_cfa_offset 16
	popl	%esi
	.cfi_restore 6
.LCFI101:
	.cfi_def_cfa_offset 12
	popl	%edi
	.cfi_restore 7
.LCFI102:
	.cfi_def_cfa_offset 8
	popl	%ebp
	.cfi_restore 5
.LCFI103:
	.cfi_def_cfa_offset 4
	ret
.LVL113:
.L130:
.LCFI104:
	.cfi_restore_state
	.loc 1 339 0
	movl	$1, 56(%ebx)
	.p2align 2,,3
.L108:
	.loc 1 378 0
	movl	28(%esp), %eax
	.loc 1 379 0
	addl	$44, %esp
	.cfi_remember_state
.LCFI105:
	.cfi_def_cfa_offset 20
	popl	%ebx
.LCFI106:
	.cfi_def_cfa_offset 16
	.cfi_restore 3
	popl	%esi
.LCFI107:
	.cfi_def_cfa_offset 12
	.cfi_restore 6
	popl	%edi
.LCFI108:
	.cfi_def_cfa_offset 8
	.cfi_restore 7
	popl	%ebp
.LCFI109:
	.cfi_def_cfa_offset 4
	.cfi_restore 5
	ret
.LVL114:
	.p2align 2,,3
.L129:
.LCFI110:
	.cfi_restore_state
	.loc 1 305 0
	cmpl	$-5, %eax
	jne	.L125
	.loc 1 320 0
	movl	72(%ebx), %eax
	testl	%eax, %eax
	je	.L132
.L95:
	.loc 1 321 0
	movl	$0, 72(%ebx)
	.loc 1 322 0
	movl	68(%ebx), %esi
.LVL115:
.LBB51:
.LBB49:
	.loc 1 263 0
	movl	(%ebx), %ebp
	testl	%esi, %esi
	jne	.L103
	jmp	.L96
.LVL116:
	.p2align 2,,3
.L133:
	.loc 1 267 0
	jl	.L99
	.loc 1 266 0
	cmpl	%ebp, %esi
	jl	.L99
	subl	%ebp, %esi
.LVL117:
	movl	%ebp, %eax
	xorl	%ebp, %ebp
.L100:
.LVL118:
	.loc 1 268 0
	movl	%ebp, (%ebx)
	.loc 1 269 0
	addl	%eax, 4(%ebx)
	.loc 1 270 0
	addl	%eax, 8(%ebx)
.LVL119:
.L101:
	.loc 1 263 0
	testl	%esi, %esi
	je	.L96
.L103:
	.loc 1 265 0
	cmpl	$0, %ebp
	jne	.L133
	.loc 1 275 0
	movl	52(%ebx), %eax
	testl	%eax, %eax
	je	.L102
	movl	88(%ebx), %edi
	testl	%edi, %edi
	je	.L96
.L102:
	.loc 1 281 0
	movl	%ebx, %eax
	call	gz_fetch
	incl	%eax
	je	.L125
	movl	(%ebx), %ebp
	jmp	.L101
.LVL120:
	.p2align 2,,3
.L131:
.LBE49:
.LBE51:
	.loc 1 355 0
	xorl	%ebp, %ebp
	movl	%ebx, %eax
	movl	%edx, %ebx
	movl	%eax, %edx
.LVL121:
	jmp	.L114
.LVL122:
	.p2align 2,,3
.L135:
.LBB52:
.LBB53:
	.loc 1 33 0
	addl	%eax, %ebp
.LVL123:
	.loc 1 34 0
	cmpl	%ebp, %ebx
	jbe	.L134
.LVL124:
.L114:
	.loc 1 30 0
	movl	%ebx, %edi
	subl	%ebp, %edi
	movl	24(%esp), %esi
	addl	%ebp, %esi
	movl	%edi, 8(%esp)
	movl	%esi, 4(%esp)
	movl	16(%edx), %eax
	movl	%eax, (%esp)
	movl	%edx, 20(%esp)
	call	read
.LVL125:
	.loc 1 31 0
	cmpl	$0, %eax
	movl	20(%esp), %edx
	jg	.L135
	movl	%edx, %ebx
.LVL126:
	.loc 1 35 0
	jne	.L136
	.loc 1 40 0
	movl	$1, 52(%edx)
	.loc 1 30 0
	movl	%edi, %edx
	movl	%esi, 24(%esp)
	jmp	.L106
.LVL127:
	.p2align 2,,3
.L99:
.LBE53:
.LBE52:
.LBB55:
.LBB50:
	.loc 1 267 0
	movl	%esi, %eax
	subl	%esi, %ebp
	xorl	%esi, %esi
.LVL128:
	jmp	.L100
.LVL129:
	.p2align 2,,3
.L134:
	movl	%edx, %eax
.LVL130:
	movl	%ebx, %edx
	movl	%eax, %ebx
.LVL131:
.LBE50:
.LBE55:
	.loc 1 356 0
	subl	%ebp, %edx
.LVL132:
	addl	%ebp, 24(%esp)
	jmp	.L106
.LVL133:
.L136:
.LBB56:
.LBB54:
	.loc 1 35 0
	movl	%edx, %eax
.LVL134:
	call	gz_load.part.0
.LBE54:
.LBE56:
	.loc 1 356 0
	incl	%eax
	je	.L125
	.loc 1 30 0
	movl	%esi, 24(%esp)
	movl	%edi, %edx
	jmp	.L106
	.cfi_endproc
.LFE43:
	.size	gzread.constprop.2, .-gzread.constprop.2
	.section	.rodata.str1.4
	.align 4
.LC5:
	.string	"requested length does not fit in int"
	.text
	.p2align 2,,3
	.globl	gzread
	.type	gzread, @function
gzread:
.LFB34:
	.loc 1 292 0
	.cfi_startproc
.LVL135:
	pushl	%ebp
.LCFI111:
	.cfi_def_cfa_offset 8
	.cfi_offset 5, -8
	pushl	%edi
.LCFI112:
	.cfi_def_cfa_offset 12
	.cfi_offset 7, -12
	pushl	%esi
.LCFI113:
	.cfi_def_cfa_offset 16
	.cfi_offset 6, -16
	pushl	%ebx
.LCFI114:
	.cfi_def_cfa_offset 20
	.cfi_offset 3, -20
	subl	$44, %esp
.LCFI115:
	.cfi_def_cfa_offset 64
	movl	64(%esp), %ebx
	.loc 1 298 0
	testl	%ebx, %ebx
	je	.L172
.LVL136:
	.loc 1 304 0
	cmpl	$7247, 12(%ebx)
	jne	.L172
	.loc 1 305 0 discriminator 1
	movl	76(%ebx), %eax
	.loc 1 304 0 discriminator 1
	testl	%eax, %eax
	jne	.L179
.L139:
	.loc 1 310 0
	cmpl	$0, 72(%esp)
	jl	.L180
	.loc 1 316 0
	je	.L168
	.loc 1 320 0
	movl	72(%ebx), %ecx
	testl	%ecx, %ecx
	jne	.L141
	movl	(%ebx), %ebp
.L142:
.LBB61:
.LBB62:
	.loc 1 266 0
	movl	$0, 28(%esp)
	jmp	.L164
.LVL137:
	.p2align 2,,3
.L150:
.LBE62:
.LBE61:
	.loc 1 338 0
	movl	52(%ebx), %eax
	testl	%eax, %eax
	je	.L153
	.loc 1 338 0 is_stmt 0 discriminator 1
	movl	88(%ebx), %eax
	testl	%eax, %eax
	je	.L181
.L153:
	.loc 1 345 0 is_stmt 1
	movl	44(%ebx), %eax
	testl	%eax, %eax
	je	.L155
	.loc 1 345 0 is_stmt 0 discriminator 1
	movl	24(%ebx), %edx
	sall	%edx
	cmpl	%edx, 72(%esp)
	jb	.L155
	.loc 1 355 0 is_stmt 1
	decl	%eax
	je	.L182
	.loc 1 362 0
	movl	72(%esp), %eax
	movl	%eax, 100(%ebx)
	.loc 1 363 0
	movl	68(%esp), %eax
	movl	%eax, 96(%ebx)
	.loc 1 364 0
	movl	%ebx, %eax
	call	gz_decomp
	incl	%eax
	je	.L172
	.loc 1 366 0
	movl	(%ebx), %ebp
.LVL138:
	.loc 1 367 0
	movl	$0, (%ebx)
.LVL139:
.L177:
	subl	%ebp, 72(%esp)
	addl	%ebp, 68(%esp)
.L152:
	.loc 1 373 0
	addl	%ebp, 28(%esp)
	.loc 1 374 0
	addl	%ebp, 8(%ebx)
	.loc 1 375 0
	movl	72(%esp), %eax
	testl	%eax, %eax
	je	.L154
.LVL140:
.L183:
	movl	(%ebx), %ebp
.LVL141:
.L164:
	.loc 1 330 0
	testl	%ebp, %ebp
	je	.L150
	.loc 1 331 0
	cmpl	72(%esp), %ebp
	jbe	.L151
	movl	72(%esp), %ebp
.L151:
.LVL142:
	.loc 1 332 0
	movl	4(%ebx), %esi
	movl	68(%esp), %edi
	movl	%ebp, %ecx
	rep movsb
	.loc 1 333 0
	addl	%ebp, 4(%ebx)
	.loc 1 334 0
	subl	%ebp, (%ebx)
	subl	%ebp, 72(%esp)
	movl	%edi, 68(%esp)
	jmp	.L152
.LVL143:
	.p2align 2,,3
.L179:
	.loc 1 305 0
	cmpl	$-5, %eax
	je	.L139
.LVL144:
	.p2align 2,,3
.L172:
	.loc 1 365 0
	movl	$-1, %eax
.L138:
	.loc 1 379 0
	addl	$44, %esp
	.cfi_remember_state
.LCFI116:
	.cfi_def_cfa_offset 20
	popl	%ebx
.LCFI117:
	.cfi_def_cfa_offset 16
	.cfi_restore 3
	popl	%esi
.LCFI118:
	.cfi_def_cfa_offset 12
	.cfi_restore 6
	popl	%edi
.LCFI119:
	.cfi_def_cfa_offset 8
	.cfi_restore 7
	popl	%ebp
.LCFI120:
	.cfi_def_cfa_offset 4
	.cfi_restore 5
	ret
.LVL145:
	.p2align 2,,3
.L155:
.LCFI121:
	.cfi_restore_state
	.loc 1 347 0
	movl	%ebx, %eax
	call	gz_fetch
	incl	%eax
	je	.L172
	.loc 1 375 0
	movl	72(%esp), %eax
	testl	%eax, %eax
	jne	.L183
.L154:
	.loc 1 378 0
	movl	28(%esp), %eax
	.loc 1 379 0
	addl	$44, %esp
	.cfi_remember_state
.LCFI122:
	.cfi_def_cfa_offset 20
	popl	%ebx
	.cfi_restore 3
.LCFI123:
	.cfi_def_cfa_offset 16
	popl	%esi
	.cfi_restore 6
.LCFI124:
	.cfi_def_cfa_offset 12
	popl	%edi
	.cfi_restore 7
.LCFI125:
	.cfi_def_cfa_offset 8
	popl	%ebp
	.cfi_restore 5
.LCFI126:
	.cfi_def_cfa_offset 4
	ret
.LVL146:
	.p2align 2,,3
.L168:
.LCFI127:
	.cfi_restore_state
	.loc 1 317 0
	xorl	%eax, %eax
	.loc 1 379 0
	addl	$44, %esp
	.cfi_remember_state
.LCFI128:
	.cfi_def_cfa_offset 20
	popl	%ebx
	.cfi_restore 3
.LCFI129:
	.cfi_def_cfa_offset 16
	popl	%esi
	.cfi_restore 6
.LCFI130:
	.cfi_def_cfa_offset 12
	popl	%edi
	.cfi_restore 7
.LCFI131:
	.cfi_def_cfa_offset 8
	popl	%ebp
	.cfi_restore 5
.LCFI132:
	.cfi_def_cfa_offset 4
	ret
.LVL147:
	.p2align 2,,3
.L182:
.LCFI133:
	.cfi_restore_state
	.loc 1 355 0
	xorl	%ebp, %ebp
	jmp	.L160
.LVL148:
	.p2align 2,,3
.L184:
.LBB64:
.LBB65:
	.loc 1 33 0
	addl	%eax, %ebp
.LVL149:
	.loc 1 34 0
	cmpl	%ebp, 72(%esp)
	jbe	.L177
.LVL150:
.L160:
	.loc 1 30 0
	movl	72(%esp), %esi
	subl	%ebp, %esi
	movl	68(%esp), %edi
	addl	%ebp, %edi
	movl	%esi, 8(%esp)
	movl	%edi, 4(%esp)
	movl	16(%ebx), %eax
	movl	%eax, (%esp)
	call	read
.LVL151:
	.loc 1 31 0
	cmpl	$0, %eax
	jg	.L184
	.loc 1 35 0
	jne	.L185
	.loc 1 40 0
	movl	$1, 52(%ebx)
.LVL152:
.L176:
	.loc 1 30 0
	movl	%edi, 68(%esp)
	movl	%esi, 72(%esp)
	jmp	.L152
.LVL153:
	.p2align 2,,3
.L141:
.LBE65:
.LBE64:
	.loc 1 321 0
	movl	$0, 72(%ebx)
	.loc 1 322 0
	movl	68(%ebx), %esi
.LVL154:
.LBB67:
.LBB63:
	.loc 1 263 0
	movl	(%ebx), %ebp
	testl	%esi, %esi
	jne	.L149
	jmp	.L142
.LVL155:
	.p2align 2,,3
.L186:
	.loc 1 267 0
	jl	.L145
	.loc 1 266 0
	cmpl	%ebp, %esi
	jl	.L145
	subl	%ebp, %esi
.LVL156:
	movl	%ebp, %eax
	xorl	%ebp, %ebp
.L146:
.LVL157:
	.loc 1 268 0
	movl	%ebp, (%ebx)
	.loc 1 269 0
	addl	%eax, 4(%ebx)
	.loc 1 270 0
	addl	%eax, 8(%ebx)
.LVL158:
.L147:
	.loc 1 263 0
	testl	%esi, %esi
	je	.L142
.L149:
	.loc 1 265 0
	cmpl	$0, %ebp
	jne	.L186
	.loc 1 275 0
	movl	52(%ebx), %edx
	testl	%edx, %edx
	je	.L148
	movl	88(%ebx), %eax
	testl	%eax, %eax
	je	.L142
.L148:
	.loc 1 281 0
	movl	%ebx, %eax
	call	gz_fetch
	incl	%eax
	je	.L172
	movl	(%ebx), %ebp
	jmp	.L147
	.p2align 2,,3
.L145:
	.loc 1 267 0
	movl	%esi, %eax
	subl	%esi, %ebp
	xorl	%esi, %esi
.LVL159:
	jmp	.L146
.LVL160:
.L181:
.LBE63:
.LBE67:
	.loc 1 339 0
	movl	$1, 56(%ebx)
	.loc 1 340 0
	jmp	.L154
.LVL161:
.L180:
	.loc 1 311 0
	movl	$.LC5, 8(%esp)
	movl	$-3, 4(%esp)
	movl	%ebx, (%esp)
	call	gz_error
	.loc 1 312 0
	movl	$-1, %eax
	jmp	.L138
.LVL162:
.L185:
.LBB68:
.LBB66:
	.loc 1 35 0
	movl	%ebx, %eax
.LVL163:
	call	gz_load.part.0
.LBE66:
.LBE68:
	.loc 1 356 0
	incl	%eax
	je	.L172
	jmp	.L176
	.cfi_endproc
.LFE34:
	.size	gzread, .-gzread
	.p2align 2,,3
	.globl	gzgetc
	.type	gzgetc, @function
gzgetc:
.LFB35:
	.loc 1 389 0
	.cfi_startproc
.LVL164:
	subl	$28, %esp
.LCFI134:
	.cfi_def_cfa_offset 32
	movl	32(%esp), %ecx
	.loc 1 395 0
	testl	%ecx, %ecx
	je	.L194
.LVL165:
	.loc 1 400 0
	cmpl	$7247, 12(%ecx)
	jne	.L194
	.loc 1 401 0 discriminator 1
	movl	76(%ecx), %eax
	.loc 1 400 0 discriminator 1
	testl	%eax, %eax
	jne	.L195
.L189:
	.loc 1 405 0
	movl	(%ecx), %eax
	testl	%eax, %eax
	je	.L190
	.loc 1 406 0
	decl	%eax
	movl	%eax, (%ecx)
	.loc 1 407 0
	incl	8(%ecx)
	.loc 1 408 0
	movl	4(%ecx), %edx
	movzbl	(%edx), %eax
	incl	%edx
	movl	%edx, 4(%ecx)
	.loc 1 414 0
	addl	$28, %esp
	.cfi_remember_state
.LCFI135:
	.cfi_def_cfa_offset 4
	ret
	.p2align 2,,3
.L195:
.LCFI136:
	.cfi_restore_state
	.loc 1 401 0
	cmpl	$-5, %eax
	je	.L189
.LVL166:
	.p2align 2,,3
.L194:
	.loc 1 413 0
	movl	$-1, %eax
	.loc 1 414 0
	addl	$28, %esp
	.cfi_remember_state
.LCFI137:
	.cfi_def_cfa_offset 4
	ret
.LVL167:
	.p2align 2,,3
.L190:
.LCFI138:
	.cfi_restore_state
	.loc 1 412 0
	leal	12(%esp), %edx
	movl	%ecx, %eax
	call	gzread.constprop.2
.LVL168:
	.loc 1 413 0
	testl	%eax, %eax
	jle	.L194
	.loc 1 413 0 is_stmt 0 discriminator 1
	movzbl	12(%esp), %eax
.LVL169:
	.loc 1 414 0 is_stmt 1 discriminator 1
	addl	$28, %esp
.LCFI139:
	.cfi_def_cfa_offset 4
	ret
	.cfi_endproc
.LFE35:
	.size	gzgetc, .-gzgetc
	.p2align 2,,3
	.globl	gzgetc_
	.type	gzgetc_, @function
gzgetc_:
.LFB36:
	.loc 1 418 0
	.cfi_startproc
.LVL170:
	subl	$28, %esp
.LCFI140:
	.cfi_def_cfa_offset 32
	movl	32(%esp), %ecx
.LVL171:
.LBB71:
.LBB72:
	.loc 1 395 0
	testl	%ecx, %ecx
	je	.L203
.LVL172:
	.loc 1 400 0
	cmpl	$7247, 12(%ecx)
	jne	.L203
	.loc 1 401 0
	movl	76(%ecx), %eax
	.loc 1 400 0
	testl	%eax, %eax
	jne	.L204
.L198:
	.loc 1 405 0
	movl	(%ecx), %eax
	testl	%eax, %eax
	je	.L199
	.loc 1 406 0
	decl	%eax
	movl	%eax, (%ecx)
	.loc 1 407 0
	incl	8(%ecx)
	.loc 1 408 0
	movl	4(%ecx), %edx
	movzbl	(%edx), %eax
	incl	%edx
	movl	%edx, 4(%ecx)
.LBE72:
.LBE71:
	.loc 1 420 0
	addl	$28, %esp
	.cfi_remember_state
.LCFI141:
	.cfi_def_cfa_offset 4
	ret
	.p2align 2,,3
.L204:
.LCFI142:
	.cfi_restore_state
.LBB75:
.LBB73:
	.loc 1 401 0
	cmpl	$-5, %eax
	je	.L198
.LVL173:
	.p2align 2,,3
.L203:
	.loc 1 413 0
	movl	$-1, %eax
.LBE73:
.LBE75:
	.loc 1 420 0
	addl	$28, %esp
	.cfi_remember_state
.LCFI143:
	.cfi_def_cfa_offset 4
	ret
.LVL174:
	.p2align 2,,3
.L199:
.LCFI144:
	.cfi_restore_state
.LBB76:
.LBB74:
	.loc 1 412 0
	leal	12(%esp), %edx
	movl	%ecx, %eax
	call	gzread.constprop.2
.LVL175:
	.loc 1 413 0
	testl	%eax, %eax
	jle	.L203
	movzbl	12(%esp), %eax
.LVL176:
.LBE74:
.LBE76:
	.loc 1 420 0
	addl	$28, %esp
.LCFI145:
	.cfi_def_cfa_offset 4
	ret
	.cfi_endproc
.LFE36:
	.size	gzgetc_, .-gzgetc_
	.section	.rodata.str1.4
	.align 4
.LC6:
	.string	"out of room to push characters"
	.text
	.p2align 2,,3
	.globl	gzungetc
	.type	gzungetc, @function
gzungetc:
.LFB37:
	.loc 1 426 0
	.cfi_startproc
.LVL177:
	pushl	%edi
.LCFI146:
	.cfi_def_cfa_offset 8
	.cfi_offset 7, -8
	pushl	%esi
.LCFI147:
	.cfi_def_cfa_offset 12
	.cfi_offset 6, -12
	pushl	%ebx
.LCFI148:
	.cfi_def_cfa_offset 16
	.cfi_offset 3, -16
	subl	$16, %esp
.LCFI149:
	.cfi_def_cfa_offset 32
	movl	32(%esp), %edi
	movl	36(%esp), %ebx
	.loc 1 430 0
	testl	%ebx, %ebx
	je	.L224
.LVL178:
	.loc 1 435 0
	cmpl	$7247, 12(%ebx)
	jne	.L224
	.loc 1 436 0 discriminator 1
	movl	76(%ebx), %eax
	.loc 1 435 0 discriminator 1
	testl	%eax, %eax
	jne	.L231
.L207:
	.loc 1 440 0
	movl	72(%ebx), %eax
	testl	%eax, %eax
	jne	.L232
.L208:
	.loc 1 447 0
	testl	%edi, %edi
	js	.L224
	.loc 1 451 0
	movl	(%ebx), %edx
	testl	%edx, %edx
	je	.L233
	.loc 1 461 0
	movl	24(%ebx), %ecx
	sall	%ecx
	cmpl	%ecx, %edx
	je	.L234
	.loc 1 467 0
	movl	4(%ebx), %esi
	cmpl	36(%ebx), %esi
	je	.L235
.L217:
	.loc 1 474 0
	incl	%edx
	movl	%edx, (%ebx)
	.loc 1 475 0
	leal	-1(%esi), %eax
	movl	%eax, 4(%ebx)
	.loc 1 476 0
	movl	%edi, %eax
	movb	%al, -1(%esi)
	.loc 1 477 0
	decl	8(%ebx)
	.loc 1 478 0
	movl	$0, 56(%ebx)
.L206:
	.loc 1 480 0
	movl	%edi, %eax
	addl	$16, %esp
	.cfi_remember_state
.LCFI150:
	.cfi_def_cfa_offset 16
	popl	%ebx
.LCFI151:
	.cfi_def_cfa_offset 12
	.cfi_restore 3
	popl	%esi
.LCFI152:
	.cfi_def_cfa_offset 8
	.cfi_restore 6
	popl	%edi
.LCFI153:
	.cfi_def_cfa_offset 4
	.cfi_restore 7
	ret
	.p2align 2,,3
.L231:
.LCFI154:
	.cfi_restore_state
	.loc 1 436 0
	cmpl	$-5, %eax
	je	.L207
.LVL179:
	.p2align 2,,3
.L224:
	.loc 1 448 0
	movl	$-1, %edi
	.loc 1 480 0
	movl	%edi, %eax
	addl	$16, %esp
	.cfi_remember_state
.LCFI155:
	.cfi_def_cfa_offset 16
	popl	%ebx
	.cfi_restore 3
.LCFI156:
	.cfi_def_cfa_offset 12
	popl	%esi
	.cfi_restore 6
.LCFI157:
	.cfi_def_cfa_offset 8
	popl	%edi
	.cfi_restore 7
.LCFI158:
	.cfi_def_cfa_offset 4
	ret
.LVL180:
	.p2align 2,,3
.L233:
.LCFI159:
	.cfi_restore_state
	.loc 1 452 0
	movl	$1, (%ebx)
	.loc 1 453 0
	movl	24(%ebx), %eax
	leal	-1(%eax,%eax), %eax
	addl	36(%ebx), %eax
	movl	%eax, 4(%ebx)
	.loc 1 454 0
	movl	%edi, %edx
	movb	%dl, (%eax)
	.loc 1 455 0
	decl	8(%ebx)
	.loc 1 456 0
	movl	$0, 56(%ebx)
	.loc 1 480 0
	movl	%edi, %eax
	addl	$16, %esp
	.cfi_remember_state
.LCFI160:
	.cfi_def_cfa_offset 16
	popl	%ebx
	.cfi_restore 3
.LCFI161:
	.cfi_def_cfa_offset 12
	popl	%esi
	.cfi_restore 6
.LCFI162:
	.cfi_def_cfa_offset 8
	popl	%edi
	.cfi_restore 7
.LCFI163:
	.cfi_def_cfa_offset 4
	ret
	.p2align 2,,3
.L232:
.LCFI164:
	.cfi_restore_state
	.loc 1 441 0
	movl	$0, 72(%ebx)
	.loc 1 442 0
	movl	68(%ebx), %esi
	.p2align 2,,3
.L230:
.LVL181:
.LBB80:
.LBB81:
	.loc 1 263 0
	testl	%esi, %esi
	je	.L208
	.loc 1 265 0
	movl	(%ebx), %eax
	cmpl	$0, %eax
	je	.L209
.L236:
	.loc 1 267 0
	jl	.L210
	.loc 1 266 0
	cmpl	%esi, %eax
	jg	.L210
	subl	%eax, %esi
.LVL182:
	movl	%eax, %edx
	xorl	%eax, %eax
.L211:
.LVL183:
	.loc 1 268 0
	movl	%eax, (%ebx)
	.loc 1 269 0
	addl	%edx, 4(%ebx)
	.loc 1 270 0
	addl	%edx, 8(%ebx)
.LVL184:
	.loc 1 263 0
	testl	%esi, %esi
	je	.L208
	.loc 1 265 0
	movl	(%ebx), %eax
	cmpl	$0, %eax
	jne	.L236
.LVL185:
.L209:
	.loc 1 275 0
	movl	52(%ebx), %eax
	testl	%eax, %eax
	je	.L213
	movl	88(%ebx), %eax
	testl	%eax, %eax
	je	.L208
.L213:
	.loc 1 281 0
	movl	%ebx, %eax
	call	gz_fetch
	incl	%eax
	jne	.L230
	jmp	.L224
	.p2align 2,,3
.L210:
	.loc 1 267 0
	movl	%esi, %edx
	subl	%esi, %eax
	xorl	%esi, %esi
.LVL186:
	jmp	.L211
.LVL187:
	.p2align 2,,3
.L235:
.LBE81:
.LBE80:
.LBB82:
	.loc 1 468 0
	leal	(%esi,%edx), %eax
.LVL188:
	.loc 1 469 0
	addl	%esi, %ecx
.LVL189:
	.loc 1 470 0
	cmpl	%eax, %esi
	jae	.L225
	.p2align 2,,3
.L226:
	.loc 1 471 0
	decl	%ecx
.LVL190:
	decl	%eax
.LVL191:
	movb	(%eax), %dl
	movb	%dl, (%ecx)
	.loc 1 470 0
	cmpl	%eax, 36(%ebx)
	jb	.L226
	movl	(%ebx), %edx
	.loc 1 471 0
	movl	%ecx, %esi
	jmp	.L217
.L225:
	.loc 1 469 0
	movl	%ecx, %esi
	jmp	.L217
.LVL192:
.L234:
.LBE82:
	.loc 1 462 0
	movl	$.LC6, 8(%esp)
	movl	$-3, 4(%esp)
	movl	%ebx, (%esp)
	call	gz_error
	.loc 1 463 0
	movl	$-1, %edi
	jmp	.L206
	.cfi_endproc
.LFE37:
	.size	gzungetc, .-gzungetc
	.p2align 2,,3
	.globl	gzgets
	.type	gzgets, @function
gzgets:
.LFB38:
	.loc 1 487 0
	.cfi_startproc
.LVL193:
	pushl	%ebp
.LCFI165:
	.cfi_def_cfa_offset 8
	.cfi_offset 5, -8
	pushl	%edi
.LCFI166:
	.cfi_def_cfa_offset 12
	.cfi_offset 7, -12
	pushl	%esi
.LCFI167:
	.cfi_def_cfa_offset 16
	.cfi_offset 6, -16
	pushl	%ebx
.LCFI168:
	.cfi_def_cfa_offset 20
	.cfi_offset 3, -20
	subl	$44, %esp
.LCFI169:
	.cfi_def_cfa_offset 64
	movl	64(%esp), %ebx
	movl	72(%esp), %edi
	.loc 1 494 0
	testl	%ebx, %ebx
	je	.L260
	.loc 1 494 0 is_stmt 0 discriminator 1
	movl	68(%esp), %edx
	testl	%edx, %edx
	je	.L260
	testl	%edi, %edi
	jle	.L260
.LVL194:
	.loc 1 499 0 is_stmt 1
	cmpl	$7247, 12(%ebx)
	jne	.L260
	.loc 1 500 0 discriminator 1
	movl	76(%ebx), %eax
	.loc 1 499 0 discriminator 1
	testl	%eax, %eax
	je	.L239
	.loc 1 500 0
	cmpl	$-5, %eax
	jne	.L260
.L239:
	.loc 1 504 0
	movl	72(%ebx), %eax
	testl	%eax, %eax
	jne	.L266
.L240:
.LVL195:
	.loc 1 515 0
	decl	%edi
	movl	%edi, 24(%esp)
	je	.L260
	movl	(%ebx), %edx
	movl	68(%esp), %eax
	movl	%eax, 28(%esp)
	jmp	.L251
.LVL196:
	.p2align 2,,3
.L247:
	.loc 1 525 0
	movl	%edx, %ebp
	cmpl	24(%esp), %edx
	jbe	.L249
	movl	24(%esp), %ebp
.L249:
.LVL197:
	.loc 1 526 0
	movl	4(%ebx), %esi
	movl	%ebp, 8(%esp)
	movl	$10, 4(%esp)
	movl	%esi, (%esp)
	call	memchr
.LVL198:
	.loc 1 527 0
	testl	%eax, %eax
	je	.L250
	.loc 1 528 0
	movl	%eax, %ebp
.LVL199:
	subl	%esi, %ebp
	incl	%ebp
.LVL200:
.L250:
	.loc 1 531 0
	movl	28(%esp), %edi
	movl	%ebp, %ecx
	rep movsb
	.loc 1 532 0
	movl	(%ebx), %edx
	subl	%ebp, %edx
	movl	%edx, (%ebx)
	.loc 1 533 0
	addl	%ebp, 4(%ebx)
	.loc 1 534 0
	addl	%ebp, 8(%ebx)
.LVL201:
	.loc 1 536 0
	movl	%edi, 28(%esp)
.LVL202:
	.loc 1 537 0
	subl	%ebp, 24(%esp)
	je	.L248
	.loc 1 537 0 is_stmt 0 discriminator 1
	testl	%eax, %eax
	jne	.L248
.LVL203:
.L251:
	.loc 1 517 0 is_stmt 1
	testl	%edx, %edx
	jne	.L247
	.loc 1 517 0 is_stmt 0 discriminator 1
	movl	%ebx, %eax
	call	gz_fetch
	incl	%eax
	je	.L260
	.loc 1 519 0 is_stmt 1
	movl	(%ebx), %edx
	testl	%edx, %edx
	jne	.L247
	.loc 1 520 0
	movl	$1, 56(%ebx)
.LVL204:
	.p2align 2,,3
.L248:
	.loc 1 540 0
	movl	68(%esp), %eax
	cmpl	%eax, 28(%esp)
	je	.L260
	.loc 1 542 0
	movl	28(%esp), %eax
	movb	$0, (%eax)
	.loc 1 543 0
	movl	68(%esp), %eax
	.loc 1 544 0
	addl	$44, %esp
	.cfi_remember_state
.LCFI170:
	.cfi_def_cfa_offset 20
	popl	%ebx
	.cfi_restore 3
.LCFI171:
	.cfi_def_cfa_offset 16
	popl	%esi
	.cfi_restore 6
.LCFI172:
	.cfi_def_cfa_offset 12
	popl	%edi
	.cfi_restore 7
.LCFI173:
	.cfi_def_cfa_offset 8
	popl	%ebp
	.cfi_restore 5
.LCFI174:
	.cfi_def_cfa_offset 4
	ret
.LVL205:
	.p2align 2,,3
.L241:
.LCFI175:
	.cfi_restore_state
.LBB85:
.LBB86:
	.loc 1 275 0
	movl	52(%ebx), %eax
	testl	%eax, %eax
	je	.L245
	movl	88(%ebx), %eax
	testl	%eax, %eax
	je	.L240
.L245:
	.loc 1 281 0
	movl	%ebx, %eax
	call	gz_fetch
	incl	%eax
	jne	.L265
.LVL206:
	.p2align 2,,3
.L260:
.LBE86:
.LBE85:
	.loc 1 541 0
	xorl	%eax, %eax
	.loc 1 544 0
	addl	$44, %esp
	.cfi_remember_state
.LCFI176:
	.cfi_def_cfa_offset 20
	popl	%ebx
.LCFI177:
	.cfi_def_cfa_offset 16
	.cfi_restore 3
	popl	%esi
.LCFI178:
	.cfi_def_cfa_offset 12
	.cfi_restore 6
	popl	%edi
.LCFI179:
	.cfi_def_cfa_offset 8
	.cfi_restore 7
	popl	%ebp
.LCFI180:
	.cfi_def_cfa_offset 4
	.cfi_restore 5
	ret
.LVL207:
	.p2align 2,,3
.L266:
.LCFI181:
	.cfi_restore_state
	.loc 1 505 0
	movl	$0, 72(%ebx)
	.loc 1 506 0
	movl	68(%ebx), %esi
	.p2align 2,,3
.L265:
.LVL208:
.LBB88:
.LBB87:
	.loc 1 263 0
	testl	%esi, %esi
	je	.L240
.L267:
	.loc 1 265 0
	movl	(%ebx), %eax
	cmpl	$0, %eax
	je	.L241
	.loc 1 267 0
	jl	.L242
	.loc 1 266 0
	cmpl	%eax, %esi
	jl	.L242
	subl	%eax, %esi
.LVL209:
	movl	%eax, %edx
	xorl	%eax, %eax
.L243:
.LVL210:
	.loc 1 268 0
	movl	%eax, (%ebx)
	.loc 1 269 0
	addl	%edx, 4(%ebx)
	.loc 1 270 0
	addl	%edx, 8(%ebx)
.LVL211:
	.loc 1 263 0
	testl	%esi, %esi
	jne	.L267
	jmp	.L240
.LVL212:
	.p2align 2,,3
.L242:
	.loc 1 267 0
	movl	%esi, %edx
	subl	%esi, %eax
	xorl	%esi, %esi
.LVL213:
	jmp	.L243
.LBE87:
.LBE88:
	.cfi_endproc
.LFE38:
	.size	gzgets, .-gzgets
	.p2align 2,,3
	.globl	gzdirect
	.type	gzdirect, @function
gzdirect:
.LFB39:
	.loc 1 549 0
	.cfi_startproc
.LVL214:
	pushl	%ebx
.LCFI182:
	.cfi_def_cfa_offset 8
	.cfi_offset 3, -8
	subl	$8, %esp
.LCFI183:
	.cfi_def_cfa_offset 16
	movl	16(%esp), %ebx
	.loc 1 553 0
	testl	%ebx, %ebx
	je	.L271
.LVL215:
	.loc 1 559 0
	cmpl	$7247, 12(%ebx)
	je	.L272
.L270:
	.loc 1 563 0
	movl	40(%ebx), %eax
	.loc 1 564 0
	addl	$8, %esp
	.cfi_remember_state
.LCFI184:
	.cfi_def_cfa_offset 8
	popl	%ebx
.LCFI185:
	.cfi_def_cfa_offset 4
	.cfi_restore 3
	ret
	.p2align 2,,3
.L272:
.LCFI186:
	.cfi_restore_state
	.loc 1 559 0 discriminator 1
	movl	44(%ebx), %eax
	testl	%eax, %eax
	jne	.L270
	movl	(%ebx), %ecx
	testl	%ecx, %ecx
	jne	.L270
	.loc 1 560 0
	movl	%ebx, %eax
	call	gz_look
	jmp	.L270
.LVL216:
	.p2align 2,,3
.L271:
	.loc 1 554 0
	xorl	%eax, %eax
	.loc 1 564 0
	addl	$8, %esp
.LCFI187:
	.cfi_def_cfa_offset 8
	popl	%ebx
	.cfi_restore 3
.LCFI188:
	.cfi_def_cfa_offset 4
	ret
	.cfi_endproc
.LFE39:
	.size	gzdirect, .-gzdirect
	.p2align 2,,3
	.globl	gzclose_r
	.type	gzclose_r, @function
gzclose_r:
.LFB40:
	.loc 1 569 0
	.cfi_startproc
.LVL217:
	pushl	%edi
.LCFI189:
	.cfi_def_cfa_offset 8
	.cfi_offset 7, -8
	pushl	%esi
.LCFI190:
	.cfi_def_cfa_offset 12
	.cfi_offset 6, -12
	pushl	%ebx
.LCFI191:
	.cfi_def_cfa_offset 16
	.cfi_offset 3, -16
	subl	$16, %esp
.LCFI192:
	.cfi_def_cfa_offset 32
	movl	32(%esp), %ebx
	.loc 1 574 0
	testl	%ebx, %ebx
	je	.L278
.LVL218:
	.loc 1 579 0
	cmpl	$7247, 12(%ebx)
	jne	.L278
	.loc 1 583 0
	movl	24(%ebx), %eax
	testl	%eax, %eax
	jne	.L280
.L275:
	.loc 1 588 0
	xorl	%eax, %eax
	cmpl	$-5, 76(%ebx)
	setne	%al
	movl	%eax, %esi
	leal	-5(%esi,%esi,4), %esi
.LVL219:
	.loc 1 589 0
	movl	$0, 8(%esp)
	movl	$0, 4(%esp)
	movl	%ebx, (%esp)
	call	gz_error
	.loc 1 590 0
	movl	20(%ebx), %eax
	movl	%eax, (%esp)
	call	free
	.loc 1 591 0
	movl	16(%ebx), %eax
	movl	%eax, (%esp)
	call	close
	movl	%eax, %edi
.LVL220:
	.loc 1 592 0
	movl	%ebx, (%esp)
	call	free
.LVL221:
	.loc 1 593 0
	testl	%edi, %edi
	jne	.L281
	.loc 1 594 0
	movl	%esi, %eax
	addl	$16, %esp
	.cfi_remember_state
.LCFI193:
	.cfi_def_cfa_offset 16
	popl	%ebx
.LCFI194:
	.cfi_def_cfa_offset 12
	.cfi_restore 3
	popl	%esi
.LCFI195:
	.cfi_def_cfa_offset 8
	.cfi_restore 6
.LVL222:
	popl	%edi
.LCFI196:
	.cfi_def_cfa_offset 4
	.cfi_restore 7
.LVL223:
	ret
.LVL224:
	.p2align 2,,3
.L281:
.LCFI197:
	.cfi_restore_state
	.loc 1 593 0
	movl	$-1, %esi
.LVL225:
	.loc 1 594 0
	movl	%esi, %eax
	addl	$16, %esp
	.cfi_remember_state
.LCFI198:
	.cfi_def_cfa_offset 16
	popl	%ebx
	.cfi_restore 3
.LCFI199:
	.cfi_def_cfa_offset 12
	popl	%esi
	.cfi_restore 6
.LCFI200:
	.cfi_def_cfa_offset 8
	popl	%edi
	.cfi_restore 7
.LCFI201:
	.cfi_def_cfa_offset 4
.LVL226:
	ret
	.p2align 2,,3
.L280:
.LCFI202:
	.cfi_restore_state
	.loc 1 584 0
	leal	84(%ebx), %eax
	movl	%eax, (%esp)
	call	inflateEnd
	.loc 1 585 0
	movl	36(%ebx), %eax
	movl	%eax, (%esp)
	call	free
	.loc 1 586 0
	movl	32(%ebx), %eax
	movl	%eax, (%esp)
	call	free
	jmp	.L275
.LVL227:
	.p2align 2,,3
.L278:
	.loc 1 580 0
	movl	$-2, %esi
	.loc 1 594 0
	movl	%esi, %eax
	addl	$16, %esp
.LCFI203:
	.cfi_def_cfa_offset 16
	popl	%ebx
	.cfi_restore 3
.LCFI204:
	.cfi_def_cfa_offset 12
	popl	%esi
	.cfi_restore 6
.LCFI205:
	.cfi_def_cfa_offset 8
	popl	%edi
	.cfi_restore 7
.LCFI206:
	.cfi_def_cfa_offset 4
	ret
	.cfi_endproc
.LFE40:
	.size	gzclose_r, .-gzclose_r
.Letext0:
	.file 2 "zconf.h"
	.file 3 "/home/anton/workspace/embox-trunk/./src/compat/posix/include/sys/types.h"
	.file 4 "zlib.h"
	.file 5 "gzguts.h"
	.file 6 "/home/anton/workspace/embox-trunk/./src/include/../util/dlist_debug.h"
	.section	.note.GNU-stack,"",@progbits
