	.file	"inffast.c"
	.text
.Ltext0:
	.section	.rodata.str1.1,"aMS",@progbits,1
.LC0:
	.string	"invalid distance too far back"
.LC1:
	.string	"invalid distance code"
.LC2:
	.string	"invalid literal/length code"
	.text
	.p2align 2,,3
	.globl	inflate_fast
	.hidden	inflate_fast
	.type	inflate_fast, @function
inflate_fast:
.LFB25:
	.file 1 "inffast.c"
	.loc 1 70 0
	.cfi_startproc
.LVL0:
	pushl	%ebp
.LCFI0:
	.cfi_def_cfa_offset 8
	.cfi_offset 5, -8
	pushl	%edi
.LCFI1:
	.cfi_def_cfa_offset 12
	.cfi_offset 7, -12
	pushl	%esi
.LCFI2:
	.cfi_def_cfa_offset 16
	.cfi_offset 6, -16
	pushl	%ebx
.LCFI3:
	.cfi_def_cfa_offset 20
	.cfi_offset 3, -20
	subl	$132, %esp
.LCFI4:
	.cfi_def_cfa_offset 152
	.loc 1 98 0
	movl	152(%esp), %eax
	movl	28(%eax), %eax
	movl	%eax, 16(%esp)
.LVL1:
	.loc 1 99 0
	movl	152(%esp), %ebx
	movl	(%ebx), %edx
	decl	%edx
	movl	%edx, 24(%esp)
.LVL2:
	.loc 1 100 0
	movl	4(%ebx), %eax
	leal	-5(%edx,%eax), %eax
	movl	%eax, 28(%esp)
.LVL3:
	.loc 1 101 0
	movl	12(%ebx), %esi
	movl	%esi, (%esp)
	decl	%esi
	movl	%esi, 20(%esp)
.LVL4:
	.loc 1 102 0
	movl	16(%ebx), %eax
.LVL5:
	movl	%eax, %edx
.LVL6:
	subl	156(%esp), %edx
	addl	%edx, %esi
.LVL7:
	movl	%esi, 76(%esp)
.LVL8:
	.loc 1 103 0
	movl	20(%esp), %edi
	leal	-257(%edi,%eax), %eax
	movl	%eax, 32(%esp)
.LVL9:
	.loc 1 107 0
	movl	16(%esp), %eax
.LVL10:
	movl	40(%eax), %eax
	movl	%eax, 92(%esp)
.LVL11:
	.loc 1 108 0
	movl	16(%esp), %ebx
	movl	44(%ebx), %ebx
	movl	%ebx, 88(%esp)
.LVL12:
	.loc 1 109 0
	movl	16(%esp), %esi
.LVL13:
	movl	48(%esi), %esi
	movl	%esi, 44(%esp)
.LVL14:
	.loc 1 110 0
	movl	16(%esp), %edi
	movl	52(%edi), %edi
	movl	%edi, 56(%esp)
.LVL15:
	.loc 1 111 0
	movl	16(%esp), %ebx
	movl	56(%ebx), %eax
.LVL16:
	.loc 1 112 0
	movl	%ebx, %esi
	movl	60(%ebx), %ebx
.LVL17:
	.loc 1 113 0
	movl	76(%esi), %ebp
.LVL18:
	.loc 1 114 0
	movl	80(%esi), %edi
	movl	%edi, 60(%esp)
.LVL19:
	.loc 1 115 0
	movl	84(%esi), %ecx
	movl	$1, %esi
	movl	%esi, %edi
	sall	%cl, %edi
	decl	%edi
	movl	%edi, 36(%esp)
.LVL20:
	.loc 1 116 0
	movl	16(%esp), %ecx
	movl	88(%ecx), %edi
.LVL21:
	movl	%edi, %ecx
	sall	%cl, %esi
	decl	%esi
	movl	%esi, 72(%esp)
.LVL22:
	.loc 1 216 0
	movl	56(%esp), %esi
.LVL23:
	decl	%esi
	movl	%esi, 48(%esp)
	.loc 1 67 0
	addl	(%esp), %edx
	movl	%edx, 96(%esp)
	.loc 1 238 0
	movl	44(%esp), %edi
	shrl	$2, %edi
	movl	%edi, 68(%esp)
	sall	$2, %edi
	movl	%edi, 64(%esp)
	.loc 1 240 0
	addl	%edi, %esi
	movl	%esi, 100(%esp)
.LVL24:
.L53:
	.loc 1 121 0
	cmpl	$14, %ebx
	ja	.L2
.LVL25:
	.loc 1 122 0
	movl	24(%esp), %edx
	movzbl	1(%edx), %esi
.LVL26:
	movb	%bl, %cl
	sall	%cl, %esi
.LVL27:
	.loc 1 124 0
	movzbl	2(%edx), %edx
	.loc 1 123 0
	leal	8(%ebx), %ecx
	.loc 1 124 0
	sall	%cl, %edx
	.loc 1 122 0
	addl	%esi, %edx
	.loc 1 124 0
	addl	%edx, %eax
.LVL28:
	.loc 1 125 0
	addl	$16, %ebx
.LVL29:
	.loc 1 124 0
	movl	24(%esp), %esi
	addl	$2, %esi
	movl	%esi, 24(%esp)
.LVL30:
.L2:
	.loc 1 127 0
	movl	36(%esp), %edx
	andl	%eax, %edx
	leal	0(%ebp,%edx,4), %edx
.LVL31:
	movw	2(%edx), %si
.LVL32:
	.loc 1 129 0
	movzbl	1(%edx), %ecx
.LVL33:
	.loc 1 130 0
	shrl	%cl, %eax
.LVL34:
	.loc 1 131 0
	subl	%ecx, %ebx
.LVL35:
	.loc 1 132 0
	movzbl	(%edx), %ecx
.LVL36:
	.loc 1 133 0
	testl	%ecx, %ecx
	jne	.L8
	jmp	.L3
.LVL37:
	.p2align 2,,3
.L10:
	.loc 1 293 0
	testb	$64, %cl
	jne	.L6
	.loc 1 294 0
	movl	$1, %edi
	sall	%cl, %edi
	movl	%edi, %ecx
.LVL38:
	decl	%ecx
	andl	%eax, %ecx
	movzwl	%si, %esi
	addl	%ecx, %esi
.LVL39:
	leal	0(%ebp,%esi,4), %edx
.LVL40:
	movb	1(%edx), %cl
.LVL41:
	movw	2(%edx), %si
.L7:
.LVL42:
	.loc 1 129 0
	movzbl	%cl, %edi
.LVL43:
	.loc 1 130 0
	shrl	%cl, %eax
.LVL44:
	.loc 1 131 0
	subl	%edi, %ebx
.LVL45:
	.loc 1 132 0
	movzbl	(%edx), %ecx
.LVL46:
	.loc 1 133 0
	testl	%ecx, %ecx
	je	.L3
.LVL47:
.L8:
	.loc 1 139 0
	testb	$16, %cl
	je	.L10
	.loc 1 140 0
	movzwl	%si, %esi
	movl	%esi, 40(%esp)
.LVL48:
	.loc 1 142 0
	movl	%ecx, %esi
.LVL49:
	andl	$15, %esi
	je	.L11
	.loc 1 143 0
	cmpl	%ebx, %esi
	jbe	.L12
.LVL50:
	.loc 1 144 0
	movl	24(%esp), %edi
	movzbl	1(%edi), %edx
	movb	%bl, %cl
.LVL51:
	sall	%cl, %edx
	addl	%edx, %eax
.LVL52:
	.loc 1 145 0
	addl	$8, %ebx
.LVL53:
	.loc 1 144 0
	incl	%edi
	movl	%edi, 24(%esp)
.LVL54:
.L12:
	.loc 1 147 0
	movl	$1, %edx
	movl	%esi, %ecx
	sall	%cl, %edx
	decl	%edx
	andl	%eax, %edx
	addl	%edx, 40(%esp)
	.loc 1 148 0
	shrl	%cl, %eax
.LVL55:
	.loc 1 149 0
	subl	%esi, %ebx
.LVL56:
.L11:
	.loc 1 152 0
	cmpl	$14, %ebx
	jbe	.L85
.LVL57:
.L13:
	.loc 1 158 0
	movl	72(%esp), %edx
	andl	%eax, %edx
	movl	60(%esp), %esi
	leal	(%esi,%edx,4), %edx
.LVL58:
	movw	2(%edx), %si
.LVL59:
	.loc 1 160 0
	movzbl	1(%edx), %ecx
.LVL60:
	.loc 1 161 0
	shrl	%cl, %eax
.LVL61:
	.loc 1 162 0
	subl	%ecx, %ebx
.LVL62:
	.loc 1 163 0
	movzbl	(%edx), %ecx
.LVL63:
	.loc 1 164 0
	testb	$16, %cl
	jne	.L14
	.loc 1 283 0
	testb	$64, %cl
	jne	.L16
	.loc 1 284 0
	movl	%ebp, 52(%esp)
	movl	60(%esp), %ebp
	jmp	.L66
.LVL64:
	.p2align 2,,3
.L18:
	.loc 1 283 0
	testb	$64, %cl
	jne	.L16
.LVL65:
.L66:
	.loc 1 284 0
	movl	$1, %edx
	sall	%cl, %edx
	decl	%edx
	andl	%eax, %edx
	movzwl	%si, %esi
	addl	%edx, %esi
.LVL66:
	leal	0(%ebp,%esi,4), %edx
.LVL67:
	movb	1(%edx), %cl
.LVL68:
	movw	2(%edx), %si
.L17:
.LVL69:
	.loc 1 160 0
	movzbl	%cl, %edi
.LVL70:
	.loc 1 161 0
	shrl	%cl, %eax
.LVL71:
	.loc 1 162 0
	subl	%edi, %ebx
.LVL72:
	.loc 1 163 0
	movzbl	(%edx), %ecx
.LVL73:
	.loc 1 164 0
	testb	$16, %cl
	je	.L18
	movl	52(%esp), %ebp
.LVL74:
.L14:
	.loc 1 165 0
	movzwl	%si, %esi
	movl	%esi, 80(%esp)
.LVL75:
	.loc 1 166 0
	movl	%ecx, %esi
.LVL76:
	andl	$15, %esi
.LVL77:
	.loc 1 167 0
	cmpl	%ebx, %esi
	jbe	.L19
.LVL78:
	.loc 1 168 0
	movl	24(%esp), %edi
	movzbl	1(%edi), %edx
	movb	%bl, %cl
	sall	%cl, %edx
	addl	%edx, %eax
.LVL79:
	.loc 1 169 0
	leal	8(%ebx), %ecx
.LVL80:
	.loc 1 170 0
	cmpl	%ecx, %esi
	ja	.L20
	.loc 1 168 0
	incl	%edi
	movl	%edi, 24(%esp)
	movl	%ecx, %ebx
.LVL81:
.L19:
	.loc 1 175 0
	movl	$1, %edx
	movl	%esi, %ecx
	sall	%cl, %edx
	leal	-1(%edx), %edi
	andl	%eax, %edi
	movl	80(%esp), %edx
	addl	%edi, %edx
	movl	%edx, 84(%esp)
.LVL82:
	.loc 1 183 0
	shrl	%cl, %eax
.LVL83:
	.loc 1 184 0
	subl	%esi, %ebx
.LVL84:
	.loc 1 186 0
	movl	20(%esp), %edx
.LVL85:
	subl	76(%esp), %edx
.LVL86:
	.loc 1 187 0
	cmpl	%edx, 84(%esp)
	jbe	.L21
	.loc 1 188 0
	movl	84(%esp), %esi
	subl	%edx, %esi
	movl	%esi, 52(%esp)
.LVL87:
	.loc 1 189 0
	cmpl	%esi, 88(%esp)
	jae	.L22
	.loc 1 190 0
	movl	16(%esp), %edx
	movl	7104(%edx), %ecx
	testl	%ecx, %ecx
	jne	.L86
.L22:
	.loc 1 216 0
	movl	48(%esp), %edx
	movl	%edx, 108(%esp)
.LVL88:
	.loc 1 217 0
	movl	44(%esp), %edx
	testl	%edx, %edx
	jne	.L24
	.loc 1 218 0
	movl	92(%esp), %edx
	subl	52(%esp), %edx
	addl	48(%esp), %edx
.LVL89:
	.loc 1 219 0
	movl	52(%esp), %ecx
	cmpl	%ecx, 40(%esp)
	jbe	.L25
	.loc 1 220 0
	subl	%ecx, 40(%esp)
	.loc 1 67 0
	movl	96(%esp), %ecx
	subl	20(%esp), %ecx
	movl	92(%esp), %esi
.LVL90:
	subl	%ecx, %esi
	subl	80(%esp), %esi
	subl	%edi, %esi
	.loc 1 220 0
	addl	56(%esp), %esi
	leal	1(%esi), %edi
	movl	%edi, 112(%esp)
	movl	20(%esp), %edi
	incl	%edi
	movl	52(%esp), %ecx
	shrl	$2, %ecx
	movl	%ecx, 80(%esp)
	.loc 1 67 0
	sall	$2, %ecx
	movl	%ecx, 108(%esp)
	.loc 1 220 0
	je	.L58
	.loc 1 67 0
	cmpl	$9, 52(%esp)
	seta	104(%esp)
	movl	112(%esp), %ecx
	orl	%edi, %ecx
	andl	$3, %ecx
	sete	%cl
	andb	%cl, 104(%esp)
	leal	5(%esi), %ecx
	cmpl	%ecx, %edi
	seta	116(%esp)
	movl	20(%esp), %edi
	addl	$5, %edi
	cmpl	%edi, 112(%esp)
	seta	%cl
	orb	%cl, 116(%esp)
	.loc 1 220 0
	movb	116(%esp), %cl
	testb	%cl, 104(%esp)
	je	.L58
	.loc 1 67 0
	xorl	%ecx, %ecx
	movl	%ebp, 104(%esp)
	movl	20(%esp), %ebp
.LVL91:
	.p2align 2,,3
.L27:
	.loc 1 222 0 discriminator 1
	movl	1(%esi,%ecx,4), %edi
	movl	%edi, 1(%ebp,%ecx,4)
	incl	%ecx
	cmpl	%ecx, 80(%esp)
	ja	.L27
	movl	104(%esp), %ebp
	.loc 1 222 0 is_stmt 0
	movl	20(%esp), %esi
	addl	108(%esp), %esi
	movl	52(%esp), %edi
	subl	108(%esp), %edi
	addl	108(%esp), %edx
	movl	108(%esp), %ecx
	cmpl	%ecx, 52(%esp)
	je	.L43
.L26:
	.loc 1 67 0 is_stmt 1
	xorl	%ecx, %ecx
	movl	%ebp, 80(%esp)
	movl	%eax, %ebp
.LVL92:
	.p2align 2,,3
.L29:
	.loc 1 222 0
	movb	1(%edx,%ecx), %al
	movb	%al, 1(%esi,%ecx)
	incl	%ecx
	.loc 1 223 0
	cmpl	%ecx, %edi
	jne	.L29
.L82:
	movl	%ebp, %eax
	movl	80(%esp), %ebp
.LVL93:
.L43:
	.loc 1 252 0
	movl	52(%esp), %esi
	addl	%esi, 20(%esp)
	.loc 1 253 0
	movl	20(%esp), %edx
	subl	84(%esp), %edx
.LVL94:
.L25:
	.loc 1 256 0 discriminator 1
	cmpl	$2, 40(%esp)
	jbe	.L31
	movl	20(%esp), %ecx
	movl	40(%esp), %esi
	movl	%eax, %edi
.LVL95:
	.p2align 2,,3
.L65:
	.loc 1 257 0
	movb	1(%edx), %al
	movb	%al, 1(%ecx)
.LVL96:
	.loc 1 258 0
	movb	2(%edx), %al
	movb	%al, 2(%ecx)
	.loc 1 67 0
	addl	$3, %ecx
.LVL97:
	addl	$3, %edx
.LVL98:
	.loc 1 259 0
	movb	(%edx), %al
	movb	%al, (%ecx)
	.loc 1 260 0
	subl	$3, %esi
.LVL99:
	.loc 1 256 0
	cmpl	$2, %esi
	ja	.L65
	movl	%ecx, 20(%esp)
	movl	%esi, 40(%esp)
	movl	%edi, %eax
.LVL100:
.L31:
	.loc 1 262 0
	movl	40(%esp), %ecx
	testl	%ecx, %ecx
	je	.L9
.LVL101:
	.loc 1 263 0
	movb	1(%edx), %cl
	movl	20(%esp), %edi
	movb	%cl, 1(%edi)
	.loc 1 264 0
	cmpl	$2, 40(%esp)
	jne	.L87
	movl	%edi, %esi
.LVL102:
	.loc 1 265 0
	movb	2(%edx), %dl
.LVL103:
	movb	%dl, 2(%edi)
	addl	$2, %esi
	movl	%esi, 20(%esp)
	jmp	.L9
.LVL104:
	.p2align 2,,3
.L3:
	.loc 1 137 0
	movl	%esi, %edx
	movl	20(%esp), %edi
	movb	%dl, 1(%edi)
	incl	%edi
	movl	%edi, 20(%esp)
.LVL105:
.L9:
	.loc 1 307 0
	movl	28(%esp), %edx
	cmpl	%edx, 24(%esp)
	jae	.L23
	.loc 1 307 0 is_stmt 0 discriminator 1
	movl	32(%esp), %esi
	cmpl	%esi, 20(%esp)
	jb	.L53
	.p2align 2,,3
.L23:
	.loc 1 310 0 is_stmt 1
	movl	%ebx, %ecx
	shrl	$3, %ecx
.LVL106:
	.loc 1 311 0
	movl	24(%esp), %edx
	subl	%ecx, %edx
.LVL107:
	.loc 1 312 0
	sall	$3, %ecx
.LVL108:
	subl	%ecx, %ebx
.LVL109:
	movl	%ebx, %ecx
.LVL110:
	.loc 1 313 0
	movl	$1, %esi
	sall	%cl, %esi
	decl	%esi
	andl	%eax, %esi
.LVL111:
	.loc 1 316 0
	leal	1(%edx), %eax
	movl	152(%esp), %edi
	movl	%eax, (%edi)
	.loc 1 317 0
	movl	20(%esp), %eax
	incl	%eax
	movl	%eax, 12(%edi)
	.loc 1 318 0
	movl	28(%esp), %eax
	subl	%edx, %eax
	addl	$5, %eax
	movl	152(%esp), %edx
.LVL112:
	movl	%eax, 4(%edx)
	.loc 1 319 0
	movl	32(%esp), %ebx
.LVL113:
	.loc 1 320 0
	movl	%ebx, %eax
	subl	20(%esp), %eax
	addl	$257, %eax
	.loc 1 319 0
	movl	152(%esp), %edi
	movl	%eax, 16(%edi)
	.loc 1 321 0
	movl	16(%esp), %eax
	movl	%esi, 56(%eax)
	.loc 1 322 0
	movl	%ecx, 60(%eax)
	.loc 1 324 0
	addl	$132, %esp
	.cfi_remember_state
.LCFI5:
	.cfi_def_cfa_offset 20
	popl	%ebx
.LCFI6:
	.cfi_def_cfa_offset 16
	.cfi_restore 3
	popl	%esi
.LCFI7:
	.cfi_def_cfa_offset 12
	.cfi_restore 6
.LVL114:
	popl	%edi
.LCFI8:
	.cfi_def_cfa_offset 8
	.cfi_restore 7
	popl	%ebp
.LCFI9:
	.cfi_def_cfa_offset 4
	.cfi_restore 5
	ret
.LVL115:
	.p2align 2,,3
.L6:
.LCFI10:
	.cfi_restore_state
	.loc 1 297 0
	andl	$32, %ecx
.LVL116:
	je	.L51
	.loc 1 299 0
	movl	16(%esp), %edx
	movl	$11, (%edx)
	.loc 1 300 0
	jmp	.L23
.LVL117:
	.p2align 2,,3
.L85:
	.loc 1 153 0
	movl	24(%esp), %edi
	movzbl	1(%edi), %esi
.LVL118:
	movb	%bl, %cl
	sall	%cl, %esi
.LVL119:
	.loc 1 155 0
	movzbl	2(%edi), %edx
	.loc 1 154 0
	leal	8(%ebx), %ecx
	.loc 1 155 0
	sall	%cl, %edx
	.loc 1 153 0
	addl	%esi, %edx
	.loc 1 155 0
	addl	%edx, %eax
.LVL120:
	.loc 1 156 0
	addl	$16, %ebx
.LVL121:
	.loc 1 155 0
	addl	$2, %edi
	movl	%edi, 24(%esp)
	jmp	.L13
.LVL122:
	.p2align 2,,3
.L51:
	.loc 1 303 0
	movl	152(%esp), %esi
.LVL123:
	movl	$.LC2, 24(%esi)
	.loc 1 304 0
	movl	16(%esp), %edi
	movl	$29, (%edi)
	.loc 1 305 0
	jmp	.L23
.LVL124:
	.p2align 2,,3
.L16:
	.loc 1 288 0
	movl	152(%esp), %edi
	movl	$.LC1, 24(%edi)
	.loc 1 289 0
	movl	16(%esp), %edx
	movl	$29, (%edx)
	.loc 1 290 0
	jmp	.L23
.LVL125:
.L21:
	.loc 1 269 0
	movl	20(%esp), %edx
.LVL126:
	subl	84(%esp), %edx
.LVL127:
	movl	40(%esp), %esi
	movl	%ebp, 52(%esp)
	movl	%eax, 84(%esp)
	movl	20(%esp), %eax
.LVL128:
	jmp	.L47
.LVL129:
	.p2align 2,,3
.L63:
	.loc 1 273 0
	movl	%ebp, %edx
	movl	%edi, %eax
.LVL130:
.L47:
	.loc 1 271 0 discriminator 1
	movb	1(%edx), %cl
	movb	%cl, 1(%eax)
.LVL131:
	.loc 1 272 0 discriminator 1
	movb	2(%edx), %cl
	movb	%cl, 2(%eax)
	.loc 1 67 0 discriminator 1
	leal	3(%eax), %edi
.LVL132:
	leal	3(%edx), %ebp
.LVL133:
	.loc 1 273 0 discriminator 1
	movb	3(%edx), %cl
	movb	%cl, 3(%eax)
	.loc 1 274 0 discriminator 1
	subl	$3, %esi
.LVL134:
	.loc 1 275 0 discriminator 1
	cmpl	$2, %esi
	ja	.L63
	movl	%eax, 20(%esp)
	movl	%esi, 40(%esp)
	movl	52(%esp), %ebp
.LVL135:
	movl	84(%esp), %eax
	.loc 1 276 0
	testl	%esi, %esi
	je	.L64
.LVL136:
	.loc 1 277 0
	movb	4(%edx), %cl
	movl	20(%esp), %edi
	movb	%cl, 4(%edi)
	.loc 1 278 0
	cmpl	$2, %esi
	jne	.L88
	movl	%edi, %esi
.LVL137:
	.loc 1 279 0
	movb	5(%edx), %dl
	movb	%dl, 5(%edi)
	addl	$5, %esi
	movl	%esi, 20(%esp)
	jmp	.L9
.LVL138:
.L24:
	.loc 1 227 0
	movl	52(%esp), %edx
	movl	%edx, %ecx
	cmpl	%edx, 44(%esp)
	jae	.L32
	.loc 1 228 0
	movl	44(%esp), %esi
.LVL139:
	addl	92(%esp), %esi
	movl	%esi, %edx
	subl	52(%esp), %edx
	addl	48(%esp), %edx
.LVL140:
	.loc 1 229 0
	subl	44(%esp), %ecx
	movl	%ecx, 52(%esp)
.LVL141:
	.loc 1 230 0
	cmpl	%ecx, 40(%esp)
	jbe	.L25
	.loc 1 231 0
	subl	%ecx, 40(%esp)
	.loc 1 67 0
	movl	96(%esp), %ecx
.LVL142:
	subl	20(%esp), %ecx
	movl	%ecx, 128(%esp)
	subl	%ecx, %esi
	subl	80(%esp), %esi
	subl	%edi, %esi
	addl	56(%esp), %esi
	leal	1(%esi), %ecx
	movl	%ecx, 116(%esp)
	movl	20(%esp), %ecx
	incl	%ecx
	movl	%ecx, 124(%esp)
	movl	52(%esp), %ecx
	shrl	$2, %ecx
	movl	%ecx, 104(%esp)
	sall	$2, %ecx
	movl	%ecx, 112(%esp)
	je	.L59
	cmpl	$9, 52(%esp)
	seta	120(%esp)
	movl	116(%esp), %ecx
	orl	124(%esp), %ecx
	andl	$3, %ecx
	sete	%cl
	andb	%cl, 120(%esp)
	leal	5(%esi), %ecx
	cmpl	%ecx, 124(%esp)
	seta	15(%esp)
	movl	20(%esp), %ecx
	addl	$5, %ecx
	cmpl	%ecx, 116(%esp)
	seta	%cl
	orb	%cl, 15(%esp)
	movb	15(%esp), %cl
	testb	%cl, 120(%esp)
	je	.L59
	xorl	%ecx, %ecx
	movl	%ebp, 120(%esp)
	movl	20(%esp), %ebp
	movl	%eax, 116(%esp)
.LVL143:
.L34:
	.loc 1 233 0 discriminator 1
	movl	1(%esi,%ecx,4), %eax
	movl	%eax, 1(%ebp,%ecx,4)
	incl	%ecx
	cmpl	%ecx, 104(%esp)
	ja	.L34
	movl	120(%esp), %ebp
	movl	116(%esp), %eax
	.loc 1 233 0 is_stmt 0
	movl	20(%esp), %esi
	addl	112(%esp), %esi
	movl	52(%esp), %ecx
	subl	112(%esp), %ecx
	movl	%ecx, 104(%esp)
	addl	112(%esp), %edx
	movl	112(%esp), %ecx
	cmpl	%ecx, 52(%esp)
	je	.L35
.LVL144:
.L33:
	.loc 1 67 0 is_stmt 1
	xorl	%ecx, %ecx
	movl	%ebp, 112(%esp)
	movl	%eax, %ebp
.L36:
	.loc 1 233 0
	movb	1(%edx,%ecx), %al
	movb	%al, 1(%esi,%ecx)
	incl	%ecx
	.loc 1 234 0
	cmpl	%ecx, 104(%esp)
	jne	.L36
	movl	%ebp, %eax
	movl	112(%esp), %ebp
.L35:
	movl	20(%esp), %edx
	addl	52(%esp), %edx
	movl	%edx, 52(%esp)
.LVL145:
	.loc 1 236 0
	movl	40(%esp), %esi
	cmpl	%esi, 44(%esp)
	jae	.L60
.LVL146:
	.loc 1 238 0
	movl	44(%esp), %edx
	subl	%edx, %esi
	movl	%esi, 40(%esp)
.LVL147:
	.loc 1 67 0
	movl	128(%esp), %edx
	subl	44(%esp), %edx
	addl	80(%esp), %edx
	addl	%edi, %edx
	.loc 1 238 0
	movl	20(%esp), %ecx
	addl	%edx, %ecx
	movl	64(%esp), %esi
.LVL148:
	testl	%esi, %esi
	je	.L61
	.loc 1 67 0
	cmpl	$9, 44(%esp)
	seta	%dl
	movl	%edx, %esi
	movl	56(%esp), %edx
	orl	%ecx, %edx
	andl	$3, %edx
	sete	%dl
	andl	%edx, %esi
	movl	56(%esp), %edx
	addl	$4, %edx
	cmpl	%edx, %ecx
	seta	20(%esp)
	leal	4(%ecx), %edi
	cmpl	%edi, 56(%esp)
	seta	%dl
	orb	%dl, 20(%esp)
	.loc 1 238 0
	movl	%esi, %edx
	testb	%dl, 20(%esp)
	je	.L61
	.loc 1 67 0
	xorl	%edx, %edx
	movl	56(%esp), %edi
.LVL149:
.L38:
	.loc 1 240 0 discriminator 1
	movl	(%edi,%edx,4), %esi
	movl	%esi, (%ecx,%edx,4)
	incl	%edx
	cmpl	%edx, 68(%esp)
	ja	.L38
	.loc 1 240 0 is_stmt 0
	movl	52(%esp), %ecx
	addl	64(%esp), %ecx
	movl	44(%esp), %esi
	subl	64(%esp), %esi
	movl	100(%esp), %edi
	movl	%edi, 108(%esp)
	movl	64(%esp), %edx
	cmpl	%edx, 44(%esp)
	je	.L39
.L37:
	.loc 1 233 0 is_stmt 1
	xorl	%edx, %edx
	movl	%eax, 20(%esp)
.L40:
	.loc 1 240 0
	movb	1(%edi,%edx), %al
	movb	%al, 1(%ecx,%edx)
	incl	%edx
	.loc 1 241 0
	cmpl	%edx, %esi
	jne	.L40
	movl	20(%esp), %eax
.L39:
	movl	52(%esp), %edx
	addl	44(%esp), %edx
	movl	%edx, 20(%esp)
	.loc 1 242 0
	subl	84(%esp), %edx
.LVL150:
	jmp	.L25
.LVL151:
.L20:
	.loc 1 171 0
	movzbl	2(%edi), %edx
	sall	%cl, %edx
	addl	%edx, %eax
.LVL152:
	.loc 1 172 0
	addl	$16, %ebx
.LVL153:
	.loc 1 171 0
	addl	$2, %edi
	movl	%edi, 24(%esp)
	jmp	.L19
.LVL154:
.L64:
	.loc 1 273 0
	movl	%edi, 20(%esp)
	jmp	.L9
.LVL155:
.L32:
	.loc 1 247 0
	movl	44(%esp), %edx
	subl	52(%esp), %edx
	addl	48(%esp), %edx
.LVL156:
	.loc 1 248 0
	cmpl	%ecx, 40(%esp)
	jbe	.L25
	.loc 1 249 0
	subl	%ecx, 40(%esp)
	.loc 1 67 0
	movl	96(%esp), %ecx
	subl	20(%esp), %ecx
	movl	44(%esp), %esi
.LVL157:
	subl	%ecx, %esi
	subl	80(%esp), %esi
	subl	%edi, %esi
	.loc 1 249 0
	addl	56(%esp), %esi
	leal	1(%esi), %edi
	movl	%edi, 112(%esp)
	movl	20(%esp), %edi
	incl	%edi
	movl	52(%esp), %ecx
	shrl	$2, %ecx
	movl	%ecx, 80(%esp)
	.loc 1 67 0
	sall	$2, %ecx
	movl	%ecx, 108(%esp)
	.loc 1 249 0
	je	.L62
	.loc 1 67 0
	cmpl	$9, 52(%esp)
	seta	104(%esp)
	movl	112(%esp), %ecx
	orl	%edi, %ecx
	andl	$3, %ecx
	sete	%cl
	andb	%cl, 104(%esp)
	leal	5(%esi), %ecx
	cmpl	%ecx, %edi
	seta	116(%esp)
	movl	20(%esp), %edi
	addl	$5, %edi
	cmpl	%edi, 112(%esp)
	seta	%cl
	orb	%cl, 116(%esp)
	.loc 1 249 0
	movb	116(%esp), %cl
	testb	%cl, 104(%esp)
	je	.L62
	.loc 1 67 0
	xorl	%ecx, %ecx
	movl	%ebp, 104(%esp)
	movl	20(%esp), %ebp
.LVL158:
.L42:
	.loc 1 251 0 discriminator 1
	movl	1(%esi,%ecx,4), %edi
	movl	%edi, 1(%ebp,%ecx,4)
	incl	%ecx
	cmpl	%ecx, 80(%esp)
	ja	.L42
	movl	104(%esp), %ebp
	.loc 1 251 0 is_stmt 0
	movl	20(%esp), %esi
	addl	108(%esp), %esi
	movl	52(%esp), %edi
	subl	108(%esp), %edi
	addl	108(%esp), %edx
	movl	108(%esp), %ecx
	cmpl	%ecx, 52(%esp)
	je	.L43
.L41:
	.loc 1 67 0 is_stmt 1
	xorl	%ecx, %ecx
	movl	%ebp, 80(%esp)
	movl	%eax, %ebp
.LVL159:
.L44:
	.loc 1 251 0
	movb	1(%edx,%ecx), %al
	movb	%al, 1(%esi,%ecx)
	incl	%ecx
	.loc 1 252 0
	cmpl	%ecx, %edi
	jne	.L44
	jmp	.L82
.LVL160:
.L87:
	.loc 1 263 0
	incl	%edi
.LVL161:
	movl	%edi, 20(%esp)
	jmp	.L9
.LVL162:
.L88:
	.loc 1 277 0
	addl	$4, %edi
.LVL163:
	movl	%edi, 20(%esp)
	jmp	.L9
.LVL164:
.L60:
	movl	%edx, %edi
	.loc 1 235 0
	movl	48(%esp), %edx
	.loc 1 233 0
	movl	%edi, 20(%esp)
	jmp	.L25
.LVL165:
.L86:
	.loc 1 191 0
	movl	152(%esp), %esi
	movl	$.LC0, 24(%esi)
	.loc 1 193 0
	movl	$29, (%edx)
	.loc 1 194 0
	jmp	.L23
.LVL166:
.L61:
	.loc 1 67 0
	movl	44(%esp), %esi
	.loc 1 233 0
	movl	52(%esp), %ecx
	movl	108(%esp), %edi
	jmp	.L37
.LVL167:
.L58:
	.loc 1 67 0
	movl	52(%esp), %edi
	movl	20(%esp), %esi
	jmp	.L26
.L62:
	movl	52(%esp), %edi
	movl	20(%esp), %esi
	jmp	.L41
.L59:
	movl	52(%esp), %esi
	movl	%esi, 104(%esp)
	movl	20(%esp), %esi
	jmp	.L33
	.cfi_endproc
.LFE25:
	.size	inflate_fast, .-inflate_fast
.Letext0:
	.file 2 "zconf.h"
	.file 3 "zlib.h"
	.file 4 "inftrees.h"
	.file 5 "inflate.h"
	.file 6 "/home/user/workspace/embox/./src/include/../util/dlist_debug.h"
	.section	.note.GNU-stack,"",@progbits
