	.file	"inflate.c"
	.text
.Ltext0:
	.p2align 2,,3
	.type	updatewindow, @function
updatewindow:
.LFB33:
	.file 1 "inflate.c"
	.loc 1 383 0
	.cfi_startproc
.LVL0:
	pushl	%ebp
.LCFI0:
	.cfi_def_cfa_offset 8
	.cfi_offset 5, -8
	pushl	%edi
.LCFI1:
	.cfi_def_cfa_offset 12
	.cfi_offset 7, -12
	pushl	%esi
.LCFI2:
	.cfi_def_cfa_offset 16
	.cfi_offset 6, -16
	pushl	%ebx
.LCFI3:
	.cfi_def_cfa_offset 20
	.cfi_offset 3, -20
	subl	$44, %esp
.LCFI4:
	.cfi_def_cfa_offset 64
	movl	%edx, 28(%esp)
	movl	%ecx, %ebp
	.loc 1 387 0
	movl	28(%eax), %ebx
.LVL1:
	.loc 1 390 0
	movl	52(%ebx), %edx
.LVL2:
	testl	%edx, %edx
	je	.L12
.LVL3:
.L2:
	.loc 1 398 0
	movl	40(%ebx), %edx
	testl	%edx, %edx
	je	.L13
	.loc 1 405 0
	cmpl	%ebp, %edx
	jbe	.L14
.L5:
	.loc 1 411 0
	movl	48(%ebx), %eax
.LVL4:
	subl	%eax, %edx
.LVL5:
	cmpl	%ebp, %edx
	ja	.L15
.LVL6:
.L6:
	.loc 1 413 0
	addl	52(%ebx), %eax
	movl	28(%esp), %esi
	subl	%ebp, %esi
	movl	%eax, %edi
	movl	%edx, %ecx
	rep movsb
.LVL7:
	.loc 1 415 0
	subl	%edx, %ebp
.LVL8:
	jne	.L16
	.loc 1 421 0
	movl	48(%ebx), %ecx
	addl	%edx, %ecx
	movl	%ecx, 48(%ebx)
	.loc 1 422 0
	movl	40(%ebx), %eax
	cmpl	%eax, %ecx
	je	.L17
	.loc 1 423 0
	movl	44(%ebx), %ecx
	cmpl	%ecx, %eax
	jbe	.L10
.L18:
	.loc 1 423 0 is_stmt 0 discriminator 1
	addl	%ecx, %edx
.LVL9:
	movl	%edx, 44(%ebx)
	.loc 1 426 0 is_stmt 1 discriminator 1
	xorl	%eax, %eax
.L3:
	.loc 1 427 0
	addl	$44, %esp
	.cfi_remember_state
.LCFI5:
	.cfi_def_cfa_offset 20
	popl	%ebx
.LCFI6:
	.cfi_def_cfa_offset 16
	.cfi_restore 3
.LVL10:
	popl	%esi
.LCFI7:
	.cfi_def_cfa_offset 12
	.cfi_restore 6
	popl	%edi
.LCFI8:
	.cfi_def_cfa_offset 8
	.cfi_restore 7
	popl	%ebp
.LCFI9:
	.cfi_def_cfa_offset 4
	.cfi_restore 5
.LVL11:
	ret
.LVL12:
	.p2align 2,,3
.L13:
.LCFI10:
	.cfi_restore_state
	.loc 1 399 0
	movl	36(%ebx), %ecx
	movb	$1, %dl
	sall	%cl, %edx
	movl	%edx, 40(%ebx)
	.loc 1 400 0
	movl	$0, 48(%ebx)
	.loc 1 401 0
	movl	$0, 44(%ebx)
	.loc 1 405 0
	cmpl	%ebp, %edx
	ja	.L5
.L14:
	.loc 1 406 0
	movl	52(%ebx), %eax
	movl	28(%esp), %esi
	subl	%edx, %esi
	movl	%eax, %edi
	movl	%edx, %ecx
	rep movsb
	.loc 1 407 0
	movl	$0, 48(%ebx)
	.loc 1 408 0
	movl	40(%ebx), %eax
	movl	%eax, 44(%ebx)
	.loc 1 426 0
	xorl	%eax, %eax
	.loc 1 427 0
	addl	$44, %esp
	.cfi_remember_state
.LCFI11:
	.cfi_def_cfa_offset 20
	popl	%ebx
	.cfi_restore 3
.LCFI12:
	.cfi_def_cfa_offset 16
.LVL13:
	popl	%esi
	.cfi_restore 6
.LCFI13:
	.cfi_def_cfa_offset 12
	popl	%edi
	.cfi_restore 7
.LCFI14:
	.cfi_def_cfa_offset 8
	popl	%ebp
	.cfi_restore 5
.LCFI15:
	.cfi_def_cfa_offset 4
.LVL14:
	ret
.LVL15:
	.p2align 2,,3
.L15:
.LCFI16:
	.cfi_restore_state
	.loc 1 411 0
	movl	%ebp, %edx
.LVL16:
	jmp	.L6
.LVL17:
	.p2align 2,,3
.L10:
	.loc 1 426 0
	xorl	%eax, %eax
	.loc 1 427 0
	addl	$44, %esp
	.cfi_remember_state
.LCFI17:
	.cfi_def_cfa_offset 20
	popl	%ebx
	.cfi_restore 3
.LCFI18:
	.cfi_def_cfa_offset 16
.LVL18:
	popl	%esi
	.cfi_restore 6
.LCFI19:
	.cfi_def_cfa_offset 12
	popl	%edi
	.cfi_restore 7
.LCFI20:
	.cfi_def_cfa_offset 8
	popl	%ebp
	.cfi_restore 5
.LCFI21:
	.cfi_def_cfa_offset 4
.LVL19:
	ret
.LVL20:
	.p2align 2,,3
.L17:
.LCFI22:
	.cfi_restore_state
	.loc 1 422 0 discriminator 1
	movl	$0, 48(%ebx)
	.loc 1 423 0 discriminator 1
	movl	44(%ebx), %ecx
	cmpl	%ecx, %eax
	ja	.L18
	jmp	.L10
	.p2align 2,,3
.L16:
	.loc 1 416 0
	movl	52(%ebx), %eax
	movl	28(%esp), %esi
	subl	%ebp, %esi
	movl	%eax, %edi
	movl	%ebp, %ecx
	rep movsb
	.loc 1 417 0
	movl	%ebp, 48(%ebx)
	.loc 1 418 0
	movl	40(%ebx), %eax
	movl	%eax, 44(%ebx)
	.loc 1 426 0
	xorl	%eax, %eax
	.loc 1 427 0
	addl	$44, %esp
	.cfi_remember_state
.LCFI23:
	.cfi_def_cfa_offset 20
	popl	%ebx
	.cfi_restore 3
.LCFI24:
	.cfi_def_cfa_offset 16
.LVL21:
	popl	%esi
	.cfi_restore 6
.LCFI25:
	.cfi_def_cfa_offset 12
	popl	%edi
	.cfi_restore 7
.LCFI26:
	.cfi_def_cfa_offset 8
	popl	%ebp
	.cfi_restore 5
.LCFI27:
	.cfi_def_cfa_offset 4
.LVL22:
	ret
.LVL23:
	.p2align 2,,3
.L12:
.LCFI28:
	.cfi_restore_state
	.loc 1 392 0
	movl	$1, 8(%esp)
	movl	36(%ebx), %ecx
.LVL24:
	movl	$1, %edx
	sall	%cl, %edx
	movl	%edx, 4(%esp)
	movl	40(%eax), %edx
	movl	%edx, (%esp)
	call	*32(%eax)
.LVL25:
	.loc 1 391 0
	movl	%eax, 52(%ebx)
	.loc 1 394 0
	testl	%eax, %eax
	jne	.L2
	movl	$1, %eax
	jmp	.L3
	.cfi_endproc
.LFE33:
	.size	updatewindow, .-updatewindow
	.p2align 2,,3
	.globl	inflateResetKeep
	.type	inflateResetKeep, @function
inflateResetKeep:
.LFB26:
	.loc 1 106 0
	.cfi_startproc
.LVL26:
	movl	4(%esp), %edx
	.loc 1 109 0
	testl	%edx, %edx
	je	.L22
	.loc 1 109 0 is_stmt 0 discriminator 2
	movl	28(%edx), %eax
	testl	%eax, %eax
	je	.L23
.LVL27:
	.loc 1 111 0 is_stmt 1
	movl	$0, 28(%eax)
	movl	$0, 20(%edx)
	movl	$0, 8(%edx)
	.loc 1 112 0
	movl	$0, 24(%edx)
	.loc 1 113 0
	movl	8(%eax), %ecx
	testl	%ecx, %ecx
	je	.L21
	.loc 1 114 0
	andl	$1, %ecx
	movl	%ecx, 48(%edx)
.L21:
	.loc 1 115 0
	movl	$0, (%eax)
	.loc 1 116 0
	movl	$0, 4(%eax)
	.loc 1 117 0
	movl	$0, 12(%eax)
	.loc 1 118 0
	movl	$32768, 20(%eax)
	.loc 1 119 0
	movl	$0, 32(%eax)
	.loc 1 120 0
	movl	$0, 56(%eax)
	.loc 1 121 0
	movl	$0, 60(%eax)
	.loc 1 122 0
	leal	1328(%eax), %edx
	movl	%edx, 108(%eax)
	movl	%edx, 80(%eax)
	movl	%edx, 76(%eax)
	.loc 1 123 0
	movl	$1, 7104(%eax)
	.loc 1 124 0
	movl	$-1, 7108(%eax)
	.loc 1 126 0
	xorl	%eax, %eax
	ret
.LVL28:
.L22:
	.loc 1 109 0
	movl	$-2, %eax
	ret
.L23:
	movl	$-2, %eax
	.loc 1 127 0
	ret
	.cfi_endproc
.LFE26:
	.size	inflateResetKeep, .-inflateResetKeep
	.p2align 2,,3
	.globl	inflateReset
	.type	inflateReset, @function
inflateReset:
.LFB27:
	.loc 1 131 0
	.cfi_startproc
.LVL29:
	movl	4(%esp), %edx
	.loc 1 134 0
	testl	%edx, %edx
	je	.L27
	.loc 1 134 0 is_stmt 0 discriminator 2
	movl	28(%edx), %eax
	testl	%eax, %eax
	je	.L28
.LVL30:
	.loc 1 136 0 is_stmt 1
	movl	$0, 40(%eax)
	.loc 1 137 0
	movl	$0, 44(%eax)
	.loc 1 138 0
	movl	$0, 48(%eax)
.LVL31:
.LBB10:
.LBB11:
	.loc 1 111 0
	movl	$0, 28(%eax)
	movl	$0, 20(%edx)
	movl	$0, 8(%edx)
	.loc 1 112 0
	movl	$0, 24(%edx)
	.loc 1 113 0
	movl	8(%eax), %ecx
	testl	%ecx, %ecx
	je	.L26
	.loc 1 114 0
	andl	$1, %ecx
	movl	%ecx, 48(%edx)
.L26:
	.loc 1 115 0
	movl	$0, (%eax)
	.loc 1 116 0
	movl	$0, 4(%eax)
	.loc 1 117 0
	movl	$0, 12(%eax)
	.loc 1 118 0
	movl	$32768, 20(%eax)
	.loc 1 119 0
	movl	$0, 32(%eax)
	.loc 1 120 0
	movl	$0, 56(%eax)
	.loc 1 121 0
	movl	$0, 60(%eax)
	.loc 1 122 0
	leal	1328(%eax), %edx
	movl	%edx, 108(%eax)
	movl	%edx, 80(%eax)
	movl	%edx, 76(%eax)
	.loc 1 123 0
	movl	$1, 7104(%eax)
	.loc 1 124 0
	movl	$-1, 7108(%eax)
.LBE11:
.LBE10:
	.loc 1 139 0
	xorl	%eax, %eax
	ret
.LVL32:
	.p2align 2,,3
.L28:
	.loc 1 134 0
	movl	$-2, %eax
	.loc 1 140 0
	ret
.L27:
	.loc 1 134 0
	movl	$-2, %eax
	ret
	.cfi_endproc
.LFE27:
	.size	inflateReset, .-inflateReset
	.p2align 2,,3
	.globl	inflateReset2
	.type	inflateReset2, @function
inflateReset2:
.LFB28:
	.loc 1 145 0
	.cfi_startproc
.LVL33:
	pushl	%ebp
.LCFI29:
	.cfi_def_cfa_offset 8
	.cfi_offset 5, -8
	pushl	%edi
.LCFI30:
	.cfi_def_cfa_offset 12
	.cfi_offset 7, -12
	pushl	%esi
.LCFI31:
	.cfi_def_cfa_offset 16
	.cfi_offset 6, -16
	pushl	%ebx
.LCFI32:
	.cfi_def_cfa_offset 20
	.cfi_offset 3, -20
	subl	$28, %esp
.LCFI33:
	.cfi_def_cfa_offset 48
	movl	48(%esp), %ebx
	movl	52(%esp), %eax
	.loc 1 150 0
	testl	%ebx, %ebx
	je	.L42
	.loc 1 150 0 is_stmt 0 discriminator 2
	movl	28(%ebx), %esi
	testl	%esi, %esi
	je	.L42
.LVL34:
	.loc 1 154 0 is_stmt 1
	testl	%eax, %eax
	js	.L44
	.loc 1 159 0
	movl	%eax, %ebp
	sarl	$4, %ebp
	incl	%ebp
.LVL35:
	.loc 1 161 0
	cmpl	$47, %eax
	jle	.L45
.LVL36:
.L37:
	.loc 1 167 0 discriminator 1
	movl	%eax, %edi
	leal	-8(%eax), %eax
	cmpl	$7, %eax
	ja	.L42
	.loc 1 169 0
	movl	52(%esi), %eax
	testl	%eax, %eax
	je	.L34
.L46:
	.loc 1 169 0 is_stmt 0 discriminator 1
	cmpl	%edi, 36(%esi)
	je	.L34
	.loc 1 170 0 is_stmt 1
	movl	%eax, 4(%esp)
	movl	40(%ebx), %eax
	movl	%eax, (%esp)
	call	*36(%ebx)
.LVL37:
	.loc 1 171 0
	movl	$0, 52(%esi)
	movl	28(%ebx), %eax
	.loc 1 175 0
	movl	%ebp, 8(%esi)
	.loc 1 176 0
	movl	%edi, 36(%esi)
.LVL38:
.LBB16:
.LBB17:
	.loc 1 134 0
	testl	%eax, %eax
	je	.L42
.L38:
.LVL39:
	.loc 1 136 0
	movl	$0, 40(%eax)
	.loc 1 137 0
	movl	$0, 44(%eax)
	.loc 1 138 0
	movl	$0, 48(%eax)
.LVL40:
.LBB18:
.LBB19:
	.loc 1 111 0
	movl	$0, 28(%eax)
	movl	$0, 20(%ebx)
	movl	$0, 8(%ebx)
	.loc 1 112 0
	movl	$0, 24(%ebx)
	.loc 1 113 0
	movl	8(%eax), %edx
	testl	%edx, %edx
	je	.L36
	.loc 1 114 0
	andl	$1, %edx
	movl	%edx, 48(%ebx)
.L36:
	.loc 1 115 0
	movl	$0, (%eax)
	.loc 1 116 0
	movl	$0, 4(%eax)
	.loc 1 117 0
	movl	$0, 12(%eax)
	.loc 1 118 0
	movl	$32768, 20(%eax)
	.loc 1 119 0
	movl	$0, 32(%eax)
	.loc 1 120 0
	movl	$0, 56(%eax)
	.loc 1 121 0
	movl	$0, 60(%eax)
	.loc 1 122 0
	leal	1328(%eax), %edx
	movl	%edx, 108(%eax)
	movl	%edx, 80(%eax)
	movl	%edx, 76(%eax)
	.loc 1 123 0
	movl	$1, 7104(%eax)
	.loc 1 124 0
	movl	$-1, 7108(%eax)
	.loc 1 139 0
	xorl	%eax, %eax
.LVL41:
.L30:
.LBE19:
.LBE18:
.LBE17:
.LBE16:
	.loc 1 178 0
	addl	$28, %esp
	.cfi_remember_state
.LCFI34:
	.cfi_def_cfa_offset 20
	popl	%ebx
.LCFI35:
	.cfi_def_cfa_offset 16
	.cfi_restore 3
	popl	%esi
.LCFI36:
	.cfi_def_cfa_offset 12
	.cfi_restore 6
	popl	%edi
.LCFI37:
	.cfi_def_cfa_offset 8
	.cfi_restore 7
	popl	%ebp
.LCFI38:
	.cfi_def_cfa_offset 4
	.cfi_restore 5
	ret
.LVL42:
	.p2align 2,,3
.L45:
.LCFI39:
	.cfi_restore_state
	.loc 1 167 0
	andl	$15, %eax
	jne	.L37
	xorl	%edi, %edi
	.loc 1 169 0
	movl	52(%esi), %eax
	testl	%eax, %eax
	jne	.L46
.LVL43:
	.p2align 2,,3
.L34:
	.loc 1 175 0
	movl	%ebp, 8(%esi)
	.loc 1 176 0
	movl	%edi, 36(%esi)
.LVL44:
	movl	%esi, %eax
	jmp	.L38
.LVL45:
	.p2align 2,,3
.L44:
	.loc 1 156 0
	negl	%eax
.LVL46:
	.loc 1 155 0
	xorl	%ebp, %ebp
	jmp	.L37
.LVL47:
	.p2align 2,,3
.L42:
	.loc 1 168 0
	movl	$-2, %eax
	jmp	.L30
	.cfi_endproc
.LFE28:
	.size	inflateReset2, .-inflateReset2
	.p2align 2,,3
	.globl	inflateInit2_
	.type	inflateInit2_, @function
inflateInit2_:
.LFB29:
	.loc 1 185 0
	.cfi_startproc
.LVL48:
	pushl	%esi
.LCFI40:
	.cfi_def_cfa_offset 8
	.cfi_offset 6, -8
	pushl	%ebx
.LCFI41:
	.cfi_def_cfa_offset 12
	.cfi_offset 3, -12
	subl	$36, %esp
.LCFI42:
	.cfi_def_cfa_offset 48
	movl	48(%esp), %ebx
	movl	56(%esp), %eax
	.loc 1 189 0
	testl	%eax, %eax
	je	.L53
	.loc 1 189 0 is_stmt 0 discriminator 1
	cmpb	$49, (%eax)
	jne	.L53
	cmpl	$56, 60(%esp)
	jne	.L53
	.loc 1 192 0 is_stmt 1
	testl	%ebx, %ebx
	je	.L54
	.loc 1 193 0
	movl	$0, 24(%ebx)
	.loc 1 194 0
	movl	32(%ebx), %esi
	testl	%esi, %esi
	je	.L56
	.loc 1 202 0
	movl	36(%ebx), %ecx
	testl	%ecx, %ecx
	je	.L57
.L50:
	.loc 1 208 0
	movl	$7116, 8(%esp)
	movl	$1, 4(%esp)
	movl	40(%ebx), %eax
	movl	%eax, (%esp)
	call	*32(%ebx)
	movl	%eax, %esi
.LVL49:
	.loc 1 210 0
	testl	%eax, %eax
	je	.L55
	.loc 1 212 0
	movl	%eax, 28(%ebx)
	.loc 1 213 0
	movl	$0, 52(%eax)
	.loc 1 214 0
	movl	52(%esp), %eax
.LVL50:
	movl	%eax, 4(%esp)
	movl	%ebx, (%esp)
	call	inflateReset2
.LVL51:
	.loc 1 215 0
	testl	%eax, %eax
	jne	.L58
.LVL52:
.L48:
	.loc 1 220 0
	addl	$36, %esp
	.cfi_remember_state
.LCFI43:
	.cfi_def_cfa_offset 12
	popl	%ebx
.LCFI44:
	.cfi_def_cfa_offset 8
	.cfi_restore 3
	popl	%esi
.LCFI45:
	.cfi_def_cfa_offset 4
	.cfi_restore 6
	ret
.LVL53:
	.p2align 2,,3
.L58:
.LCFI46:
	.cfi_restore_state
	.loc 1 216 0
	movl	%esi, 4(%esp)
	movl	40(%ebx), %edx
	movl	%edx, (%esp)
	movl	%eax, 28(%esp)
	call	*36(%ebx)
.LVL54:
	.loc 1 217 0
	movl	$0, 28(%ebx)
	movl	28(%esp), %eax
	.loc 1 220 0
	addl	$36, %esp
	.cfi_remember_state
.LCFI47:
	.cfi_def_cfa_offset 12
	popl	%ebx
	.cfi_restore 3
.LCFI48:
	.cfi_def_cfa_offset 8
	popl	%esi
	.cfi_restore 6
.LCFI49:
	.cfi_def_cfa_offset 4
.LVL55:
	ret
	.p2align 2,,3
.L53:
.LCFI50:
	.cfi_restore_state
	.loc 1 191 0
	movl	$-6, %eax
	.loc 1 220 0
	addl	$36, %esp
	.cfi_remember_state
.LCFI51:
	.cfi_def_cfa_offset 12
	popl	%ebx
	.cfi_restore 3
.LCFI52:
	.cfi_def_cfa_offset 8
	popl	%esi
	.cfi_restore 6
.LCFI53:
	.cfi_def_cfa_offset 4
	ret
	.p2align 2,,3
.L56:
.LCFI54:
	.cfi_restore_state
	.loc 1 198 0
	movl	$zcalloc, 32(%ebx)
	.loc 1 199 0
	movl	$0, 40(%ebx)
	.loc 1 202 0
	movl	36(%ebx), %ecx
	testl	%ecx, %ecx
	jne	.L50
	.p2align 2,,3
.L57:
	.loc 1 206 0
	movl	$zcfree, 36(%ebx)
	jmp	.L50
.LVL56:
	.p2align 2,,3
.L55:
	.loc 1 210 0
	movl	$-4, %eax
.LVL57:
	jmp	.L48
.LVL58:
.L54:
	.loc 1 192 0
	movl	$-2, %eax
	jmp	.L48
	.cfi_endproc
.LFE29:
	.size	inflateInit2_, .-inflateInit2_
	.p2align 2,,3
	.globl	inflateInit_
	.type	inflateInit_, @function
inflateInit_:
.LFB30:
	.loc 1 226 0
	.cfi_startproc
.LVL59:
	pushl	%ebx
.LCFI55:
	.cfi_def_cfa_offset 8
	.cfi_offset 3, -8
	subl	$24, %esp
.LCFI56:
	.cfi_def_cfa_offset 32
	movl	32(%esp), %ebx
	movl	36(%esp), %eax
.LVL60:
.LBB28:
.LBB29:
	.loc 1 189 0
	testl	%eax, %eax
	je	.L65
	cmpb	$49, (%eax)
	jne	.L65
	cmpl	$56, 40(%esp)
	jne	.L65
	.loc 1 192 0
	testl	%ebx, %ebx
	je	.L66
	.loc 1 193 0
	movl	$0, 24(%ebx)
	.loc 1 194 0
	movl	32(%ebx), %eax
	testl	%eax, %eax
	je	.L68
	.loc 1 202 0
	movl	36(%ebx), %eax
	testl	%eax, %eax
	je	.L69
.L62:
	.loc 1 208 0
	movl	$7116, 8(%esp)
	movl	$1, 4(%esp)
	movl	40(%ebx), %eax
	movl	%eax, (%esp)
	call	*32(%ebx)
.LVL61:
	.loc 1 210 0
	testl	%eax, %eax
	je	.L67
	.loc 1 212 0
	movl	%eax, 28(%ebx)
	.loc 1 213 0
	movl	$0, 52(%eax)
.LVL62:
.LBB30:
.LBB31:
	.loc 1 175 0
	movl	$1, 8(%eax)
	.loc 1 176 0
	movl	$15, 36(%eax)
.LVL63:
.LBB32:
.LBB33:
	.loc 1 136 0
	movl	$0, 40(%eax)
	.loc 1 137 0
	movl	$0, 44(%eax)
	.loc 1 138 0
	movl	$0, 48(%eax)
.LVL64:
.LBB34:
.LBB35:
	.loc 1 111 0
	movl	$0, 28(%eax)
	movl	$0, 20(%ebx)
	movl	$0, 8(%ebx)
	.loc 1 112 0
	movl	$0, 24(%ebx)
	.loc 1 114 0
	movl	$1, 48(%ebx)
	.loc 1 115 0
	movl	$0, (%eax)
	.loc 1 116 0
	movl	$0, 4(%eax)
	.loc 1 117 0
	movl	$0, 12(%eax)
	.loc 1 118 0
	movl	$32768, 20(%eax)
	.loc 1 119 0
	movl	$0, 32(%eax)
	.loc 1 120 0
	movl	$0, 56(%eax)
	.loc 1 121 0
	movl	$0, 60(%eax)
	.loc 1 122 0
	leal	1328(%eax), %edx
	movl	%edx, 108(%eax)
	movl	%edx, 80(%eax)
	movl	%edx, 76(%eax)
	.loc 1 123 0
	movl	$1, 7104(%eax)
	.loc 1 124 0
	movl	$-1, 7108(%eax)
	xorl	%eax, %eax
.LVL65:
.L60:
.LBE35:
.LBE34:
.LBE33:
.LBE32:
.LBE31:
.LBE30:
.LBE29:
.LBE28:
	.loc 1 228 0
	addl	$24, %esp
	.cfi_remember_state
.LCFI57:
	.cfi_def_cfa_offset 8
	popl	%ebx
.LCFI58:
	.cfi_def_cfa_offset 4
	.cfi_restore 3
	ret
	.p2align 2,,3
.L65:
.LCFI59:
	.cfi_restore_state
.LBB38:
.LBB36:
	.loc 1 191 0
	movl	$-6, %eax
.LBE36:
.LBE38:
	.loc 1 228 0
	addl	$24, %esp
	.cfi_remember_state
.LCFI60:
	.cfi_def_cfa_offset 8
	popl	%ebx
	.cfi_restore 3
.LCFI61:
	.cfi_def_cfa_offset 4
	ret
	.p2align 2,,3
.L68:
.LCFI62:
	.cfi_restore_state
.LBB39:
.LBB37:
	.loc 1 198 0
	movl	$zcalloc, 32(%ebx)
	.loc 1 199 0
	movl	$0, 40(%ebx)
	.loc 1 202 0
	movl	36(%ebx), %eax
	testl	%eax, %eax
	jne	.L62
	.p2align 2,,3
.L69:
	.loc 1 206 0
	movl	$zcfree, 36(%ebx)
	jmp	.L62
.LVL66:
	.p2align 2,,3
.L67:
	.loc 1 210 0
	movl	$-4, %eax
.LVL67:
	jmp	.L60
.L66:
	.loc 1 192 0
	movl	$-2, %eax
	jmp	.L60
.LBE37:
.LBE39:
	.cfi_endproc
.LFE30:
	.size	inflateInit_, .-inflateInit_
	.p2align 2,,3
	.globl	inflatePrime
	.type	inflatePrime, @function
inflatePrime:
.LFB31:
	.loc 1 234 0
	.cfi_startproc
.LVL68:
	pushl	%esi
.LCFI63:
	.cfi_def_cfa_offset 8
	.cfi_offset 6, -8
	pushl	%ebx
.LCFI64:
	.cfi_def_cfa_offset 12
	.cfi_offset 3, -12
	movl	12(%esp), %eax
	movl	16(%esp), %ecx
	.loc 1 237 0
	testl	%eax, %eax
	je	.L76
	.loc 1 237 0 is_stmt 0 discriminator 2
	movl	28(%eax), %eax
	testl	%eax, %eax
	je	.L76
.LVL69:
	.loc 1 239 0 is_stmt 1
	testl	%ecx, %ecx
	js	.L77
	.loc 1 244 0
	cmpl	$16, %ecx
	jg	.L76
	.loc 1 244 0 is_stmt 0 discriminator 2
	movl	60(%eax), %esi
	leal	(%ecx,%esi), %ebx
	cmpl	$32, %ebx
	ja	.L76
.LVL70:
	.loc 1 245 0 is_stmt 1
	movl	$1, %edx
	sall	%cl, %edx
	decl	%edx
	andl	20(%esp), %edx
	.loc 1 246 0
	movl	%esi, %ecx
	sall	%cl, %edx
	addl	%edx, 56(%eax)
	.loc 1 247 0
	movl	%ebx, 60(%eax)
	.loc 1 248 0
	xorl	%eax, %eax
.LVL71:
.L71:
	.loc 1 249 0
	popl	%ebx
	.cfi_remember_state
.LCFI65:
	.cfi_def_cfa_offset 8
	.cfi_restore 3
	popl	%esi
.LCFI66:
	.cfi_def_cfa_offset 4
	.cfi_restore 6
	ret
.LVL72:
	.p2align 2,,3
.L77:
.LCFI67:
	.cfi_restore_state
	.loc 1 240 0
	movl	$0, 56(%eax)
	.loc 1 241 0
	movl	$0, 60(%eax)
	.loc 1 242 0
	xorl	%eax, %eax
.LVL73:
	.loc 1 249 0
	popl	%ebx
	.cfi_remember_state
	.cfi_restore 3
.LCFI68:
	.cfi_def_cfa_offset 8
	popl	%esi
	.cfi_restore 6
.LCFI69:
	.cfi_def_cfa_offset 4
	ret
.LVL74:
	.p2align 2,,3
.L76:
.LCFI70:
	.cfi_restore_state
	.loc 1 244 0
	movl	$-2, %eax
	jmp	.L71
	.cfi_endproc
.LFE31:
	.size	inflatePrime, .-inflatePrime
	.section	.rodata.str1.1,"aMS",@progbits,1
.LC0:
	.string	"incorrect header check"
.LC1:
	.string	"unknown compression method"
.LC2:
	.string	"invalid window size"
.LC3:
	.string	"unknown header flags set"
.LC4:
	.string	"header crc mismatch"
.LC5:
	.string	"invalid block type"
.LC6:
	.string	"invalid stored block lengths"
	.section	.rodata.str1.4,"aMS",@progbits,1
	.align 4
.LC7:
	.string	"too many length or distance symbols"
	.section	.rodata.str1.1
.LC8:
	.string	"invalid code lengths set"
.LC9:
	.string	"invalid bit length repeat"
	.section	.rodata.str1.4
	.align 4
.LC10:
	.string	"invalid code -- missing end-of-block"
	.section	.rodata.str1.1
.LC11:
	.string	"invalid literal/lengths set"
.LC12:
	.string	"invalid distances set"
.LC13:
	.string	"invalid literal/length code"
.LC14:
	.string	"invalid distance code"
.LC15:
	.string	"invalid distance too far back"
.LC16:
	.string	"incorrect data check"
.LC17:
	.string	"incorrect length check"
	.text
	.p2align 2,,3
	.globl	inflate
	.type	inflate, @function
inflate:
.LFB34:
	.loc 1 608 0
	.cfi_startproc
.LVL75:
	pushl	%ebp
.LCFI71:
	.cfi_def_cfa_offset 8
	.cfi_offset 5, -8
	pushl	%edi
.LCFI72:
	.cfi_def_cfa_offset 12
	.cfi_offset 7, -12
	pushl	%esi
.LCFI73:
	.cfi_def_cfa_offset 16
	.cfi_offset 6, -16
	pushl	%ebx
.LCFI74:
	.cfi_def_cfa_offset 20
	.cfi_offset 3, -20
	subl	$140, %esp
.LCFI75:
	.cfi_def_cfa_offset 160
	.loc 1 628 0
	movl	160(%esp), %eax
	testl	%eax, %eax
	je	.L344
	.loc 1 628 0 is_stmt 0 discriminator 1
	movl	160(%esp), %ebx
	movl	28(%ebx), %ebx
	movl	%ebx, 36(%esp)
	testl	%ebx, %ebx
	je	.L344
	movl	160(%esp), %ebp
	movl	12(%ebp), %ebp
	movl	%ebp, 56(%esp)
	testl	%ebp, %ebp
	je	.L344
	.loc 1 629 0 is_stmt 1 discriminator 1
	movl	160(%esp), %ebx
	movl	(%ebx), %ebp
	.loc 1 628 0 discriminator 1
	testl	%ebp, %ebp
	je	.L80
	.loc 1 628 0 is_stmt 0
	movl	4(%ebx), %ebx
	movl	%ebx, 72(%esp)
.L81:
.LVL76:
	.loc 1 633 0 is_stmt 1
	movl	36(%esp), %ebx
	movl	(%ebx), %eax
	cmpl	$11, %eax
	je	.L468
.L82:
.LVL77:
	.loc 1 634 0
	movl	160(%esp), %ebx
	movl	16(%ebx), %ebx
	movl	%ebx, 52(%esp)
.LVL78:
	movl	36(%esp), %ebx
	movl	56(%ebx), %ebx
	movl	%ebx, 40(%esp)
.LVL79:
	movl	36(%esp), %esi
	movl	60(%esi), %ebx
.LVL80:
	.loc 1 827 0
	movl	164(%esp), %edi
	subl	$5, %edi
	movl	%edi, 76(%esp)
	.loc 1 636 0
	movl	52(%esp), %edx
	movl	%edx, 64(%esp)
	.loc 1 634 0
	movl	72(%esp), %ecx
	movl	%ecx, 44(%esp)
	.loc 1 637 0
	movl	$0, 68(%esp)
	.loc 1 997 0
	addl	$1328, %esi
	movl	%esi, 84(%esp)
	.loc 1 1001 0
	movl	36(%esp), %esi
	addl	$752, %esi
	movl	%esi, 88(%esp)
.LVL81:
.L377:
	.loc 1 639 0
	cmpl	$30, %eax
	jbe	.L378
.LVL82:
.L344:
	.loc 1 1221 0
	movl	$-2, 68(%esp)
.L79:
	.loc 1 1252 0
	movl	68(%esp), %eax
	addl	$140, %esp
	.cfi_remember_state
.LCFI76:
	.cfi_def_cfa_offset 20
	popl	%ebx
.LCFI77:
	.cfi_def_cfa_offset 16
	.cfi_restore 3
	popl	%esi
.LCFI78:
	.cfi_def_cfa_offset 12
	.cfi_restore 6
	popl	%edi
.LCFI79:
	.cfi_def_cfa_offset 8
	.cfi_restore 7
	popl	%ebp
.LCFI80:
	.cfi_def_cfa_offset 4
	.cfi_restore 5
	ret
.LVL83:
	.p2align 2,,3
.L110:
.LCFI81:
	.cfi_restore_state
	.loc 1 1175 0
	movl	36(%esp), %ecx
	movl	8(%ecx), %esi
	testl	%esi, %esi
	je	.L357
.LVL84:
	.loc 1 1176 0 discriminator 1
	cmpl	$31, %ebx
	ja	.L315
	.loc 1 1176 0 is_stmt 0
	movl	44(%esp), %ecx
	testl	%ecx, %ecx
	je	.L112
	movl	44(%esp), %edx
	movl	40(%esp), %esi
	movl	%ebx, %ecx
	jmp	.L402
.LVL85:
	.p2align 2,,3
.L318:
	.loc 1 1176 0 discriminator 2
	testl	%edx, %edx
	je	.L461
.L402:
	.loc 1 1176 0 discriminator 1
	decl	%edx
.LVL86:
	movzbl	0(%ebp), %eax
	sall	%cl, %eax
	addl	%eax, %esi
.LVL87:
	incl	%ebp
.LVL88:
	addl	$8, %ecx
.LVL89:
	cmpl	$31, %ecx
	jbe	.L318
	movl	%edx, 44(%esp)
	movl	%esi, 40(%esp)
	movl	%ecx, %ebx
.LVL90:
.L315:
	.loc 1 1177 0 is_stmt 1
	movl	64(%esp), %eax
	subl	52(%esp), %eax
.LVL91:
	.loc 1 1178 0
	movl	160(%esp), %esi
	addl	%eax, 20(%esi)
	.loc 1 1179 0
	movl	36(%esp), %edi
	addl	%eax, 28(%edi)
	.loc 1 1180 0
	testl	%eax, %eax
	je	.L319
	.loc 1 1182 0
	movl	16(%edi), %edx
	testl	%edx, %edx
	movl	%eax, 8(%esp)
	movl	56(%esp), %edx
	je	.L320
	.loc 1 1182 0 is_stmt 0 discriminator 1
	subl	%eax, %edx
	movl	%edx, 4(%esp)
	movl	24(%edi), %eax
.LVL92:
	movl	%eax, (%esp)
	call	crc32
.LVL93:
.L321:
	.loc 1 1181 0 is_stmt 1
	movl	36(%esp), %esi
	movl	%eax, 24(%esi)
	movl	160(%esp), %edi
	movl	%eax, 48(%edi)
.L319:
.LVL94:
	.loc 1 1186 0
	movl	36(%esp), %eax
	movl	16(%eax), %eax
	testl	%eax, %eax
	.loc 1 1188 0
	movl	40(%esp), %eax
	.loc 1 1186 0
	jne	.L322
	.loc 1 1188 0
	andl	$65280, %eax
	sall	$8, %eax
	movl	40(%esp), %edx
	sall	$24, %edx
	movl	40(%esp), %ecx
	shrl	$24, %ecx
	addl	%edx, %ecx
	movl	40(%esp), %edx
	shrl	$8, %edx
	andl	$65280, %edx
	addl	%ecx, %edx
	.loc 1 1186 0
	addl	%edx, %eax
.L322:
	.loc 1 1184 0
	movl	36(%esp), %edx
	cmpl	24(%edx), %eax
	je	.L469
	.loc 1 1189 0
	movl	160(%esp), %esi
	movl	$.LC16, 24(%esi)
	.loc 1 1190 0
	movl	$29, (%edx)
	.loc 1 1191 0
	movl	52(%esp), %eax
	movl	%eax, 64(%esp)
	movl	$29, %eax
.LVL95:
	.p2align 2,,3
.L378:
	.loc 1 639 0
	jmp	*.L115(,%eax,4)
	.section	.rodata
	.align 4
	.align 4
.L115:
	.long	.L84
	.long	.L85
	.long	.L86
	.long	.L87
	.long	.L365
	.long	.L89
	.long	.L90
	.long	.L91
	.long	.L92
	.long	.L93
	.long	.L94
	.long	.L95
	.long	.L96
	.long	.L97
	.long	.L98
	.long	.L99
	.long	.L100
	.long	.L101
	.long	.L102
	.long	.L103
	.long	.L104
	.long	.L105
	.long	.L106
	.long	.L107
	.long	.L108
	.long	.L109
	.long	.L110
	.long	.L111
	.long	.L345
	.long	.L113
	.long	.L466
	.text
	.p2align 2,,3
.L93:
.LVL96:
	.loc 1 815 0 discriminator 1
	cmpl	$31, %ebx
	ja	.L130
	.loc 1 815 0 is_stmt 0
	movl	44(%esp), %eax
	testl	%eax, %eax
	je	.L112
	movl	44(%esp), %edx
	movl	40(%esp), %esi
	movl	%ebx, %ecx
	jmp	.L380
.LVL97:
	.p2align 2,,3
.L201:
	.loc 1 815 0 discriminator 2
	testl	%edx, %edx
	je	.L461
.L380:
	.loc 1 815 0 discriminator 1
	decl	%edx
.LVL98:
	movzbl	0(%ebp), %eax
	sall	%cl, %eax
	addl	%eax, %esi
.LVL99:
	incl	%ebp
.LVL100:
	addl	$8, %ecx
.LVL101:
	cmpl	$31, %ecx
	jbe	.L201
	movl	%edx, 44(%esp)
	movl	%esi, 40(%esp)
.LVL102:
.L130:
	.loc 1 816 0 is_stmt 1
	movl	40(%esp), %edx
	sall	$24, %edx
	movl	40(%esp), %eax
	shrl	$24, %eax
	addl	%eax, %edx
	movl	40(%esp), %eax
	shrl	$8, %eax
	andl	$65280, %eax
	addl	%edx, %eax
	movl	40(%esp), %edx
	andl	$65280, %edx
	sall	$8, %edx
	addl	%edx, %eax
	movl	36(%esp), %ebx
	movl	%eax, 24(%ebx)
	movl	160(%esp), %ebx
	movl	%eax, 48(%ebx)
.LVL103:
	.loc 1 818 0
	movl	36(%esp), %ebx
	movl	$10, (%ebx)
	.loc 1 817 0
	xorl	%ebx, %ebx
	movl	$0, 40(%esp)
.LVL104:
.L94:
	.loc 1 820 0
	movl	36(%esp), %esi
	movl	12(%esi), %eax
	testl	%eax, %eax
	je	.L470
	.loc 1 824 0
	movl	$0, 8(%esp)
	movl	$0, 4(%esp)
	movl	$0, (%esp)
	call	adler32
	movl	36(%esp), %ecx
	movl	%eax, 24(%ecx)
	movl	160(%esp), %esi
	movl	%eax, 48(%esi)
	.loc 1 825 0
	movl	$11, (%ecx)
.LVL105:
.L95:
	.loc 1 827 0
	cmpl	$1, 76(%esp)
	jbe	.L112
.LVL106:
.L96:
	.loc 1 829 0
	movl	36(%esp), %edi
	movl	4(%edi), %eax
	testl	%eax, %eax
	jne	.L203
	.loc 1 834 0 discriminator 1
	cmpl	$2, %ebx
	ja	.L204
	.loc 1 834 0 is_stmt 0
	movl	44(%esp), %edi
	testl	%edi, %edi
	je	.L112
	.loc 1 834 0 discriminator 1
	decl	44(%esp)
	movzbl	0(%ebp), %eax
	movb	%bl, %cl
	sall	%cl, %eax
	addl	%eax, 40(%esp)
	incl	%ebp
.LVL107:
	addl	$8, %ebx
.LVL108:
.L204:
	.loc 1 835 0 is_stmt 1
	movl	40(%esp), %eax
	andl	$1, %eax
	movl	36(%esp), %esi
	movl	%eax, 4(%esi)
	.loc 1 836 0
	movl	40(%esp), %edx
	shrl	%edx
.LVL109:
	.loc 1 837 0
	movl	%edx, %eax
	andl	$3, %eax
	cmpl	$2, %eax
	je	.L208
	cmpl	$3, %eax
	je	.L209
	decl	%eax
	je	.L207
	.loc 1 841 0
	movl	$13, (%esi)
	.loc 1 842 0
	movl	$13, %eax
.L210:
	.loc 1 862 0
	shrl	$2, %edx
.LVL110:
	movl	%edx, 40(%esp)
.LVL111:
	subl	$3, %ebx
.LVL112:
	.loc 1 863 0
	jmp	.L377
.LVL113:
	.p2align 2,,3
.L468:
	.loc 1 633 0 discriminator 1
	movl	$12, (%ebx)
	movb	$12, %al
	jmp	.L82
.LVL114:
	.p2align 2,,3
.L203:
	.loc 1 830 0
	movl	%ebx, %ecx
	andl	$7, %ecx
	shrl	%cl, 40(%esp)
	andl	$-8, %ebx
.LVL115:
	.loc 1 831 0
	movl	$26, (%edi)
	.loc 1 832 0
	movl	$26, %eax
	jmp	.L378
.LVL116:
	.p2align 2,,3
.L107:
	.loc 1 639 0
	movl	36(%esp), %ecx
	movl	72(%ecx), %edx
.L117:
.LVL117:
	.loc 1 1108 0
	testl	%edx, %edx
	je	.L298
	.loc 1 1109 0 discriminator 1
	cmpl	%edx, %ebx
	jae	.L299
	.loc 1 1109 0 is_stmt 0
	movl	44(%esp), %eax
	testl	%eax, %eax
	je	.L112
	movl	44(%esp), %esi
	movl	40(%esp), %edi
	movl	%ebx, %ecx
	jmp	.L401
.LVL118:
	.p2align 2,,3
.L302:
	.loc 1 1109 0 discriminator 2
	testl	%esi, %esi
	je	.L453
.L401:
	.loc 1 1109 0 discriminator 1
	decl	%esi
.LVL119:
	movzbl	0(%ebp), %eax
	sall	%cl, %eax
	addl	%eax, %edi
.LVL120:
	incl	%ebp
.LVL121:
	addl	$8, %ecx
.LVL122:
	cmpl	%edx, %ecx
	jb	.L302
	movl	%esi, 44(%esp)
	movl	%edi, 40(%esp)
	movl	%ecx, %ebx
.LVL123:
.L299:
	.loc 1 1110 0 is_stmt 1
	movl	$1, %eax
	movb	%dl, %cl
	sall	%cl, %eax
	decl	%eax
	andl	40(%esp), %eax
	movl	36(%esp), %esi
	addl	%eax, 68(%esi)
	.loc 1 1111 0
	shrl	%cl, 40(%esp)
	subl	%edx, %ebx
.LVL124:
	.loc 1 1112 0
	addl	%edx, 7108(%esi)
.L298:
	.loc 1 1122 0
	movl	36(%esp), %edi
	movl	$24, (%edi)
.LVL125:
.L108:
	.loc 1 1124 0
	movl	52(%esp), %eax
	testl	%eax, %eax
	je	.L112
	.loc 1 1125 0
	movl	64(%esp), %eax
	subl	52(%esp), %eax
.LVL126:
	.loc 1 1126 0
	movl	36(%esp), %edx
	movl	68(%edx), %edi
	cmpl	%edi, %eax
	jae	.L303
	.loc 1 1127 0
	subl	%eax, %edi
.LVL127:
	.loc 1 1128 0
	cmpl	44(%edx), %edi
	ja	.L471
.L304:
	.loc 1 1148 0
	movl	36(%esp), %esi
	movl	48(%esi), %edx
	cmpl	%edx, %edi
	jbe	.L305
	.loc 1 1149 0
	subl	%edx, %edi
.LVL128:
	.loc 1 1150 0
	movl	40(%esi), %edx
	subl	%edi, %edx
	addl	52(%esi), %edx
.LVL129:
	movl	36(%esp), %ecx
.L306:
	.loc 1 1154 0
	movl	64(%ecx), %eax
	cmpl	%eax, %edi
	jbe	.L307
	movl	%eax, %edi
.LVL130:
	jmp	.L307
.LVL131:
.L265:
	.loc 1 1017 0
	movl	36(%esp), %ecx
	movl	$19, (%ecx)
	.loc 1 1018 0
	cmpl	$6, 164(%esp)
	je	.L112
.LVL132:
	.p2align 2,,3
.L103:
	.loc 1 1020 0
	movl	36(%esp), %esi
	movl	$20, (%esi)
.LVL133:
.L104:
	.loc 1 1022 0
	cmpl	$5, 44(%esp)
	jbe	.L266
	.loc 1 1022 0 is_stmt 0 discriminator 1
	cmpl	$257, 52(%esp)
	ja	.L472
.L266:
	.loc 1 1030 0 is_stmt 1
	movl	36(%esp), %edi
	movl	$0, 7108(%edi)
	.loc 1 1032 0
	movl	%edi, %eax
	movl	76(%edi), %edi
	movl	84(%eax), %ecx
	movl	$1, %eax
	sall	%cl, %eax
	decl	%eax
	movl	%eax, 60(%esp)
	movl	40(%esp), %eax
	andl	60(%esp), %eax
	leal	(%edi,%eax,4), %eax
	movb	(%eax), %dl
	movb	%dl, 48(%esp)
.LVL134:
	movb	1(%eax), %cl
	movb	%cl, 80(%esp)
.LVL135:
	movw	2(%eax), %dx
.LVL136:
	.loc 1 1033 0
	movzbl	%cl, %esi
	cmpl	%esi, %ebx
	jae	.L267
	.loc 1 1034 0
	movl	44(%esp), %eax
.LVL137:
	testl	%eax, %eax
	je	.L112
	movl	44(%esp), %edx
.LVL138:
	movl	%ebx, %ecx
.LVL139:
	jmp	.L396
.LVL140:
	.p2align 2,,3
.L270:
	testl	%edx, %edx
	je	.L449
.LVL141:
.L396:
	.loc 1 1034 0 is_stmt 0 discriminator 1
	decl	%edx
.LVL142:
	movzbl	0(%ebp), %eax
	sall	%cl, %eax
	addl	%eax, 40(%esp)
	incl	%ebp
.LVL143:
	addl	$8, %ecx
.LVL144:
	.loc 1 1032 0 is_stmt 1 discriminator 1
	movl	40(%esp), %eax
	andl	60(%esp), %eax
	leal	(%edi,%eax,4), %ebx
	movb	(%ebx), %al
	movb	%al, 48(%esp)
	movb	1(%ebx), %al
.LVL145:
	movw	2(%ebx), %bx
.LVL146:
	.loc 1 1033 0 discriminator 1
	movzbl	%al, %esi
	cmpl	%ecx, %esi
	ja	.L270
	movl	%edx, 44(%esp)
	movb	%al, 80(%esp)
	movl	%ebx, %edx
.LVL147:
	movl	%ecx, %ebx
.LVL148:
.L267:
	.loc 1 1036 0
	cmpb	$0, 48(%esp)
	je	.L473
	.loc 1 1036 0 is_stmt 0 discriminator 1
	movzbl	48(%esp), %ecx
	testb	$-16, %cl
	je	.L273
	.loc 1 1036 0
	movzbl	80(%esp), %eax
.LVL149:
	.loc 1 1047 0 is_stmt 1
	movb	80(%esp), %cl
	shrl	%cl, 40(%esp)
	subl	%esi, %ebx
.LVL150:
	.loc 1 1048 0
	movl	36(%esp), %esi
	movl	%eax, 7108(%esi)
	.loc 1 1049 0
	movzwl	%dx, %edx
	movl	%edx, 64(%esi)
.LVL151:
.L274:
	.loc 1 1057 0
	movzbl	48(%esp), %edx
	testb	$32, %dl
	je	.L279
	.loc 1 1059 0
	movl	36(%esp), %edx
	movl	$-1, 7108(%edx)
	.loc 1 1060 0
	movl	$11, (%edx)
	.loc 1 1061 0
	movl	$11, %eax
	jmp	.L378
.LVL152:
	.p2align 2,,3
.L105:
	.loc 1 639 0
	movl	36(%esp), %esi
	movl	72(%esi), %edx
.L118:
.LVL153:
	.loc 1 1071 0
	testl	%edx, %edx
	jne	.L281
	movl	36(%esp), %edx
	movl	64(%edx), %eax
	movl	%edx, %edi
.L282:
	.loc 1 1078 0
	movl	%eax, 7112(%edi)
	.loc 1 1079 0
	movl	$22, (%edi)
.LVL154:
.L106:
	.loc 1 1082 0
	movl	36(%esp), %eax
	movl	80(%eax), %edi
	movl	88(%eax), %ecx
	movl	$1, %eax
	sall	%cl, %eax
	decl	%eax
	movl	%eax, 60(%esp)
	movl	40(%esp), %eax
	andl	60(%esp), %eax
	leal	(%edi,%eax,4), %eax
	movb	(%eax), %dl
	movb	%dl, 48(%esp)
.LVL155:
	movb	1(%eax), %dl
.LVL156:
	movw	2(%eax), %ax
.LVL157:
	.loc 1 1083 0
	movzbl	%dl, %esi
	cmpl	%esi, %ebx
	jae	.L355
	.loc 1 1084 0
	movl	44(%esp), %edx
.LVL158:
	testl	%edx, %edx
	je	.L112
	movl	44(%esp), %edx
	movl	%ebx, %ecx
	jmp	.L399
.LVL159:
	.p2align 2,,3
.L290:
	testl	%edx, %edx
	je	.L449
.LVL160:
.L399:
	.loc 1 1084 0 is_stmt 0 discriminator 1
	decl	%edx
.LVL161:
	movzbl	0(%ebp), %eax
	sall	%cl, %eax
	addl	%eax, 40(%esp)
	incl	%ebp
.LVL162:
	addl	$8, %ecx
.LVL163:
	.loc 1 1082 0 is_stmt 1 discriminator 1
	movl	40(%esp), %eax
	andl	60(%esp), %eax
	leal	(%edi,%eax,4), %eax
	movb	(%eax), %bl
	movb	%bl, 48(%esp)
	movb	1(%eax), %bl
.LVL164:
	movw	2(%eax), %ax
.LVL165:
	.loc 1 1083 0 discriminator 1
	movzbl	%bl, %esi
	cmpl	%ecx, %esi
	ja	.L290
	movl	%edx, 44(%esp)
	movb	%bl, %dl
.LVL166:
	movl	%ecx, %ebx
.LVL167:
	.loc 1 1083 0 is_stmt 0
	movl	%esi, 60(%esp)
.LVL168:
.L287:
	.loc 1 1086 0 is_stmt 1
	movzbl	48(%esp), %ecx
	movl	%ecx, 80(%esp)
	andl	$240, %ecx
	jne	.L474
	.loc 1 1089 0
	movzwl	%ax, %eax
	movl	%eax, 92(%esp)
	.loc 1 1090 0
	movzbl	%dl, %ecx
	movl	%ecx, 96(%esp)
	movl	80(%esp), %ecx
	addl	96(%esp), %ecx
	movl	$1, %eax
	sall	%cl, %eax
	decl	%eax
	movl	%eax, 80(%esp)
	andl	40(%esp), %eax
	movb	%dl, %cl
	shrl	%cl, %eax
	.loc 1 1089 0
	addl	92(%esp), %eax
	leal	(%edi,%eax,4), %eax
	movb	(%eax), %dl
.LVL169:
	movb	%dl, 48(%esp)
.LVL170:
	movb	1(%eax), %dl
	movb	%dl, 60(%esp)
.LVL171:
	movw	2(%eax), %ax
.LVL172:
	.loc 1 1091 0
	movzbl	%dl, %edx
.LVL173:
	movl	96(%esp), %ecx
	addl	%edx, %ecx
	cmpl	%ecx, %ebx
	jae	.L293
	.loc 1 1092 0
	movl	44(%esp), %eax
.LVL174:
	testl	%eax, %eax
	je	.L112
	movl	%esi, 100(%esp)
	movl	44(%esp), %esi
	movl	%edi, 44(%esp)
	movl	96(%esp), %edi
	jmp	.L400
.LVL175:
	.p2align 2,,3
.L296:
	testl	%esi, %esi
	je	.L451
.L400:
	.loc 1 1092 0 is_stmt 0 discriminator 1
	decl	%esi
.LVL176:
	movzbl	0(%ebp), %eax
	movb	%bl, %cl
	sall	%cl, %eax
	addl	%eax, 40(%esp)
	incl	%ebp
.LVL177:
	addl	$8, %ebx
.LVL178:
	.loc 1 1090 0 is_stmt 1 discriminator 1
	movl	40(%esp), %eax
	andl	80(%esp), %eax
	movl	%edi, %ecx
	shrl	%cl, %eax
	.loc 1 1089 0 discriminator 1
	addl	92(%esp), %eax
	movl	44(%esp), %edx
	leal	(%edx,%eax,4), %eax
	movb	(%eax), %dl
	movb	%dl, 48(%esp)
	movb	1(%eax), %dl
	movb	%dl, 60(%esp)
.LVL179:
	movw	2(%eax), %ax
.LVL180:
	.loc 1 1091 0 discriminator 1
	movzbl	%dl, %edx
.LVL181:
	leal	(%edx,%edi), %ecx
	cmpl	%ebx, %ecx
	ja	.L296
	movl	%esi, 44(%esp)
	movl	100(%esp), %esi
.LVL182:
.L293:
	.loc 1 1094 0
	movb	96(%esp), %cl
	shrl	%cl, 40(%esp)
	subl	%esi, %ebx
.LVL183:
	.loc 1 1095 0
	movl	96(%esp), %esi
	movl	36(%esp), %edi
	addl	7108(%edi), %esi
	movzbl	48(%esp), %edi
	movl	%edi, 80(%esp)
	movzbl	60(%esp), %edi
	movl	%edi, 60(%esp)
	jmp	.L292
.LVL184:
.L479:
	.loc 1 1235 0
	movl	36(%esp), %ebx
	movl	$30, (%ebx)
.LVL185:
.L466:
	.loc 1 1236 0
	movl	$-4, 68(%esp)
	jmp	.L79
	.p2align 2,,3
.L86:
.LVL186:
	.loc 1 706 0 discriminator 1
	cmpl	$31, %ebx
	ja	.L155
.LVL187:
.L154:
	.loc 1 706 0 is_stmt 0
	movl	44(%esp), %edi
	testl	%edi, %edi
	je	.L112
	movl	44(%esp), %edx
	movl	40(%esp), %esi
	movl	%ebx, %ecx
	jmp	.L383
.LVL188:
	.p2align 2,,3
.L158:
	.loc 1 706 0 discriminator 2
	testl	%edx, %edx
	je	.L461
.LVL189:
.L383:
	.loc 1 706 0 discriminator 1
	decl	%edx
.LVL190:
	movzbl	0(%ebp), %eax
	sall	%cl, %eax
	addl	%eax, %esi
.LVL191:
	incl	%ebp
.LVL192:
	addl	$8, %ecx
.LVL193:
	cmpl	$31, %ecx
	jbe	.L158
	movl	%edx, 44(%esp)
	movl	%esi, 40(%esp)
.LVL194:
.L155:
	.loc 1 707 0 is_stmt 1
	movl	36(%esp), %ebx
	movl	32(%ebx), %eax
	testl	%eax, %eax
	je	.L159
	.loc 1 708 0
	movl	40(%esp), %ebx
	movl	%ebx, 4(%eax)
	movl	36(%esp), %ebx
.L159:
	.loc 1 709 0
	testb	$2, 17(%ebx)
	jne	.L475
.L160:
.LVL195:
	.loc 1 711 0
	movl	$3, (%ebx)
	.loc 1 710 0
	xorl	%ebx, %ebx
	movl	$0, 40(%esp)
	jmp	.L161
.LVL196:
	.p2align 2,,3
.L87:
	.loc 1 713 0 discriminator 1
	cmpl	$15, %ebx
	ja	.L162
.LVL197:
.L161:
	.loc 1 713 0 is_stmt 0
	movl	44(%esp), %esi
	testl	%esi, %esi
	je	.L112
	movl	44(%esp), %edx
	movl	40(%esp), %esi
	movl	%ebx, %ecx
	jmp	.L384
.LVL198:
	.p2align 2,,3
.L165:
	.loc 1 713 0 discriminator 2
	testl	%edx, %edx
	je	.L461
.LVL199:
.L384:
	.loc 1 713 0 discriminator 1
	decl	%edx
.LVL200:
	movzbl	0(%ebp), %eax
	sall	%cl, %eax
	addl	%eax, %esi
.LVL201:
	incl	%ebp
.LVL202:
	addl	$8, %ecx
.LVL203:
	cmpl	$15, %ecx
	jbe	.L165
	movl	%edx, 44(%esp)
	movl	%esi, 40(%esp)
.LVL204:
.L162:
	.loc 1 714 0 is_stmt 1
	movl	36(%esp), %ebx
	movl	32(%ebx), %eax
	testl	%eax, %eax
	je	.L166
	.loc 1 715 0
	movzbl	40(%esp), %edx
	movl	%edx, 8(%eax)
	.loc 1 716 0
	movl	40(%esp), %edx
	shrl	$8, %edx
	movl	%edx, 12(%eax)
	movl	36(%esp), %ebx
.L166:
	.loc 1 718 0
	movl	16(%ebx), %edx
	testb	$2, %dh
	jne	.L476
.L167:
.LVL205:
	.loc 1 720 0
	movl	$4, (%ebx)
	.loc 1 719 0
	xorl	%ebx, %ebx
	movl	$0, 40(%esp)
.LVL206:
.L88:
	.loc 1 722 0
	movl	%edx, %ecx
	testb	$4, %dh
	je	.L168
	.loc 1 723 0 discriminator 1
	cmpl	$15, %ebx
	ja	.L169
	.loc 1 723 0 is_stmt 0
	movl	44(%esp), %ecx
	testl	%ecx, %ecx
	je	.L112
	movl	44(%esp), %esi
	movl	40(%esp), %edi
	movl	%ebx, %ecx
	jmp	.L385
.LVL207:
	.p2align 2,,3
.L172:
	.loc 1 723 0 discriminator 2
	testl	%esi, %esi
	je	.L417
.L385:
	.loc 1 723 0 discriminator 1
	decl	%esi
.LVL208:
	movzbl	0(%ebp), %eax
	sall	%cl, %eax
	addl	%eax, %edi
.LVL209:
	incl	%ebp
.LVL210:
	addl	$8, %ecx
.LVL211:
	cmpl	$15, %ecx
	jbe	.L172
	movl	%esi, 44(%esp)
	movl	%edi, 40(%esp)
.LVL212:
.L169:
	.loc 1 724 0 is_stmt 1
	movl	40(%esp), %ebx
	movl	36(%esp), %esi
	movl	%ebx, 64(%esi)
	.loc 1 725 0
	movl	32(%esi), %eax
	testl	%eax, %eax
	je	.L173
	.loc 1 726 0
	movl	%ebx, 20(%eax)
.L173:
	.loc 1 727 0
	testb	$2, %dh
	jne	.L174
.L463:
	.loc 1 727 0 is_stmt 0 discriminator 1
	movl	%edx, %ecx
	movl	%edx, %eax
	andl	$1024, %eax
	.loc 1 728 0 is_stmt 1 discriminator 1
	xorl	%ebx, %ebx
	movl	$0, 40(%esp)
.L175:
.LVL213:
	.loc 1 732 0
	movl	36(%esp), %edi
	movl	$5, (%edi)
	jmp	.L127
.LVL214:
	.p2align 2,,3
.L90:
	.loc 1 916 0
	movl	36(%esp), %ecx
	movl	16(%ecx), %edx
.LVL215:
	.loc 1 756 0
	testb	$8, %dh
	je	.L182
.L489:
	.loc 1 757 0
	movl	44(%esp), %eax
	testl	%eax, %eax
	je	.L112
	xorl	%esi, %esi
	movl	%ebp, 60(%esp)
	movl	%ebx, 48(%esp)
.LVL216:
	.p2align 2,,3
.L185:
	.loc 1 760 0
	movl	60(%esp), %ebp
	movb	0(%ebp,%esi), %dl
	movzbl	%dl, %edi
.LVL217:
	incl	%esi
.LVL218:
	.loc 1 761 0
	movl	36(%esp), %ebx
	movl	32(%ebx), %eax
	testl	%eax, %eax
	je	.L183
	.loc 1 762 0 discriminator 1
	movl	28(%eax), %ebx
	.loc 1 761 0 discriminator 1
	testl	%ebx, %ebx
	je	.L183
	.loc 1 763 0
	movl	36(%esp), %ebp
	movl	64(%ebp), %ecx
	.loc 1 762 0
	cmpl	32(%eax), %ecx
	jae	.L183
	.loc 1 764 0
	movb	%dl, (%ebx,%ecx)
	incl	%ecx
	movl	%ecx, 64(%ebp)
.L183:
	.loc 1 765 0
	testl	%edi, %edi
	je	.L184
	.loc 1 765 0 is_stmt 0 discriminator 1
	cmpl	44(%esp), %esi
	jne	.L185
.L184:
	movl	60(%esp), %ebp
	movl	48(%esp), %ebx
	.loc 1 766 0 is_stmt 1
	movl	36(%esp), %eax
	testb	$2, 17(%eax)
	jne	.L477
.L186:
	.loc 1 768 0
	subl	%esi, 44(%esp)
	.loc 1 769 0
	addl	%esi, %ebp
.LVL219:
	.loc 1 770 0
	testl	%edi, %edi
	jne	.L112
	movl	36(%esp), %esi
.LVL220:
	movl	16(%esi), %edx
.LVL221:
.L187:
	.loc 1 774 0
	movl	36(%esp), %eax
	movl	$0, 64(%eax)
	.loc 1 775 0
	movl	$7, (%eax)
.LVL222:
.L125:
	.loc 1 777 0
	testb	$16, %dh
	je	.L188
	.loc 1 778 0
	movl	44(%esp), %eax
	testl	%eax, %eax
	je	.L112
	xorl	%esi, %esi
	movl	%ebp, 60(%esp)
	movl	%ebx, 48(%esp)
.LVL223:
	.p2align 2,,3
.L191:
	.loc 1 781 0
	movl	60(%esp), %ecx
	movb	(%ecx,%esi), %dl
	movzbl	%dl, %edi
.LVL224:
	incl	%esi
.LVL225:
	.loc 1 782 0
	movl	36(%esp), %ebx
	movl	32(%ebx), %eax
	testl	%eax, %eax
	je	.L189
	.loc 1 783 0 discriminator 1
	movl	36(%eax), %ebx
	.loc 1 782 0 discriminator 1
	testl	%ebx, %ebx
	je	.L189
	.loc 1 784 0
	movl	36(%esp), %ebp
	movl	64(%ebp), %ecx
	.loc 1 783 0
	cmpl	40(%eax), %ecx
	jae	.L189
	.loc 1 785 0
	movb	%dl, (%ebx,%ecx)
	incl	%ecx
	movl	%ecx, 64(%ebp)
.L189:
	.loc 1 786 0
	testl	%edi, %edi
	je	.L190
	.loc 1 786 0 is_stmt 0 discriminator 1
	cmpl	44(%esp), %esi
	jne	.L191
.L190:
	movl	60(%esp), %ebp
	movl	48(%esp), %ebx
	.loc 1 787 0 is_stmt 1
	movl	36(%esp), %eax
	testb	$2, 17(%eax)
	jne	.L478
.L192:
	.loc 1 789 0
	subl	%esi, 44(%esp)
	.loc 1 790 0
	addl	%esi, %ebp
.LVL226:
	.loc 1 791 0
	testl	%edi, %edi
	jne	.L112
	movl	36(%esp), %esi
.LVL227:
	movl	16(%esi), %edx
.LVL228:
.L193:
	.loc 1 795 0
	movl	36(%esp), %eax
	movl	$8, (%eax)
.LVL229:
.L124:
	.loc 1 797 0
	testb	$2, %dh
	je	.L194
	.loc 1 798 0 discriminator 1
	cmpl	$15, %ebx
	ja	.L195
	.loc 1 798 0 is_stmt 0
	movl	44(%esp), %eax
	testl	%eax, %eax
	je	.L112
	movl	44(%esp), %esi
	movl	40(%esp), %edi
	movl	%ebx, %ecx
	jmp	.L386
.LVL230:
	.p2align 2,,3
.L198:
	.loc 1 798 0 discriminator 2
	testl	%esi, %esi
	je	.L453
.L386:
	.loc 1 798 0 discriminator 1
	decl	%esi
.LVL231:
	movzbl	0(%ebp), %eax
	sall	%cl, %eax
	addl	%eax, %edi
.LVL232:
	incl	%ebp
.LVL233:
	addl	$8, %ecx
.LVL234:
	cmpl	$15, %ecx
	jbe	.L198
	movl	%esi, 44(%esp)
	movl	%edi, 40(%esp)
	movl	%ecx, %ebx
.LVL235:
.L195:
	.loc 1 799 0 is_stmt 1
	movl	36(%esp), %ecx
	movl	24(%ecx), %eax
	andl	$65535, %eax
	cmpl	40(%esp), %eax
	je	.L349
	.loc 1 800 0
	movl	160(%esp), %esi
	movl	$.LC4, 24(%esi)
	.loc 1 801 0
	movl	$29, (%ecx)
	.loc 1 802 0
	movl	$29, %eax
	jmp	.L378
.LVL236:
	.p2align 2,,3
.L91:
	.loc 1 916 0
	movl	36(%esp), %eax
	movl	16(%eax), %edx
	jmp	.L125
	.p2align 2,,3
.L113:
	.loc 1 1215 0
	movl	$-3, 68(%esp)
	.p2align 2,,3
.L112:
.LVL237:
	.loc 1 1231 0
	movl	56(%esp), %edx
	movl	160(%esp), %edi
	movl	%edx, 12(%edi)
	movl	52(%esp), %ecx
	movl	%ecx, 16(%edi)
	movl	%ebp, (%edi)
	movl	44(%esp), %esi
	movl	%esi, 4(%edi)
	movl	40(%esp), %eax
	movl	36(%esp), %edx
	movl	%eax, 56(%edx)
	movl	%ebx, 60(%edx)
	.loc 1 1232 0
	movl	40(%edx), %ebx
.LVL238:
	testl	%ebx, %ebx
	jne	.L329
	.loc 1 1232 0 is_stmt 0 discriminator 1
	cmpl	%ecx, 64(%esp)
	je	.L330
	movl	(%edx), %eax
	cmpl	$28, %eax
	ja	.L330
	cmpl	$25, %eax
	jbe	.L329
	.loc 1 1233 0 is_stmt 1
	cmpl	$4, 164(%esp)
	je	.L330
	.p2align 2,,3
.L329:
	.loc 1 1234 0
	movl	64(%esp), %ecx
	subl	52(%esp), %ecx
	movl	56(%esp), %edx
	movl	160(%esp), %eax
	call	updatewindow
.LVL239:
	testl	%eax, %eax
	jne	.L479
.L330:
	.loc 1 1238 0
	movl	72(%esp), %ebx
	movl	160(%esp), %ebp
.LVL240:
	subl	4(%ebp), %ebx
.LVL241:
	.loc 1 1239 0
	movl	64(%esp), %esi
	subl	16(%ebp), %esi
.LVL242:
	.loc 1 1240 0
	addl	%ebx, 8(%ebp)
	.loc 1 1241 0
	addl	%esi, 20(%ebp)
	.loc 1 1242 0
	movl	36(%esp), %eax
	addl	%esi, 28(%eax)
	.loc 1 1243 0
	movl	8(%eax), %edx
	testl	%edx, %edx
	je	.L331
	.loc 1 1243 0 is_stmt 0 discriminator 1
	testl	%esi, %esi
	je	.L331
	.loc 1 1245 0 is_stmt 1
	movl	16(%eax), %eax
	testl	%eax, %eax
	movl	%esi, 8(%esp)
	je	.L332
	.loc 1 1245 0 is_stmt 0 discriminator 1
	movl	12(%ebp), %eax
	subl	%esi, %eax
	movl	%eax, 4(%esp)
	movl	36(%esp), %edx
	movl	24(%edx), %eax
	movl	%eax, (%esp)
	call	crc32
.L333:
	.loc 1 1244 0 is_stmt 1
	movl	36(%esp), %ecx
	movl	%eax, 24(%ecx)
	movl	160(%esp), %ebp
	movl	%eax, 48(%ebp)
.L331:
	.loc 1 1246 0
	movl	36(%esp), %eax
	cmpl	$1, 4(%eax)
	sbbl	%eax, %eax
	notl	%eax
	andl	$64, %eax
	movl	36(%esp), %edx
	addl	60(%edx), %eax
	.loc 1 1247 0
	movl	(%edx), %edx
	.loc 1 1246 0
	cmpl	$11, %edx
	je	.L335
	.loc 1 1247 0 discriminator 3
	cmpl	$19, %edx
	je	.L362
	.loc 1 1248 0
	cmpl	$14, %edx
	je	.L362
.L339:
	.loc 1 1247 0
	xorl	%edx, %edx
	addl	%edx, %eax
	movl	160(%esp), %ebp
	movl	%eax, 44(%ebp)
	.loc 1 1249 0
	testl	%ebx, %ebx
	jne	.L337
.L480:
	.loc 1 1249 0 is_stmt 0 discriminator 1
	testl	%esi, %esi
	jne	.L337
.L338:
	movl	68(%esp), %eax
	testl	%eax, %eax
	jne	.L79
	.loc 1 1250 0 is_stmt 1
	movl	$-5, 68(%esp)
	.loc 1 1252 0
	movl	68(%esp), %eax
	addl	$140, %esp
	.cfi_remember_state
.LCFI82:
	.cfi_def_cfa_offset 20
	popl	%ebx
	.cfi_restore 3
.LCFI83:
	.cfi_def_cfa_offset 16
.LVL243:
	popl	%esi
	.cfi_restore 6
.LCFI84:
	.cfi_def_cfa_offset 12
.LVL244:
	popl	%edi
	.cfi_restore 7
.LCFI85:
	.cfi_def_cfa_offset 8
	popl	%ebp
	.cfi_restore 5
.LCFI86:
	.cfi_def_cfa_offset 4
	ret
.LVL245:
	.p2align 2,,3
.L362:
.LCFI87:
	.cfi_restore_state
	.loc 1 1247 0
	movl	$256, %edx
	addl	%edx, %eax
	movl	160(%esp), %ebp
	movl	%eax, 44(%ebp)
	.loc 1 1249 0
	testl	%ebx, %ebx
	je	.L480
.L337:
	.loc 1 1249 0 is_stmt 0 discriminator 2
	cmpl	$4, 164(%esp)
	je	.L338
	.loc 1 1252 0 is_stmt 1
	movl	68(%esp), %eax
	addl	$140, %esp
	.cfi_remember_state
.LCFI88:
	.cfi_def_cfa_offset 20
	popl	%ebx
	.cfi_restore 3
.LCFI89:
	.cfi_def_cfa_offset 16
.LVL246:
	popl	%esi
	.cfi_restore 6
.LCFI90:
	.cfi_def_cfa_offset 12
.LVL247:
	popl	%edi
	.cfi_restore 7
.LCFI91:
	.cfi_def_cfa_offset 8
	popl	%ebp
	.cfi_restore 5
.LCFI92:
	.cfi_def_cfa_offset 4
	ret
.LVL248:
	.p2align 2,,3
.L97:
.LCFI93:
	.cfi_restore_state
	.loc 1 865 0
	movl	%ebx, %ecx
	andl	$7, %ecx
	shrl	%cl, 40(%esp)
.LVL249:
	andl	$-8, %ebx
.LVL250:
	.loc 1 866 0
	cmpl	$31, %ebx
	ja	.L211
	movl	44(%esp), %esi
	testl	%esi, %esi
	je	.L112
	movl	44(%esp), %edx
	movl	40(%esp), %esi
	movl	%ebx, %ecx
	jmp	.L388
.LVL251:
	.p2align 2,,3
.L214:
	.loc 1 866 0 is_stmt 0 discriminator 2
	testl	%edx, %edx
	je	.L461
.L388:
	.loc 1 866 0 discriminator 1
	decl	%edx
.LVL252:
	movzbl	0(%ebp), %eax
	sall	%cl, %eax
	addl	%eax, %esi
.LVL253:
	incl	%ebp
.LVL254:
	addl	$8, %ecx
.LVL255:
	cmpl	$31, %ecx
	jbe	.L214
	movl	%edx, 44(%esp)
	movl	%esi, 40(%esp)
	movl	%ecx, %ebx
.LVL256:
.L211:
	.loc 1 867 0 is_stmt 1
	movzwl	40(%esp), %edx
	movl	40(%esp), %eax
	shrl	$16, %eax
	xorl	$65535, %eax
	cmpl	%eax, %edx
	je	.L215
	.loc 1 868 0
	movl	160(%esp), %edi
	movl	$.LC6, 24(%edi)
	.loc 1 869 0
	movl	36(%esp), %eax
	movl	$29, (%eax)
	.loc 1 870 0
	movl	$29, %eax
	jmp	.L378
.LVL257:
	.p2align 2,,3
.L98:
	.loc 1 916 0
	movl	36(%esp), %esi
	movl	64(%esi), %edx
.L123:
.LVL258:
	.loc 1 879 0
	movl	$15, (%esi)
.LVL259:
.L122:
	.loc 1 882 0
	testl	%edx, %edx
	je	.L216
.LVL260:
	movl	44(%esp), %eax
	cmpl	%edx, %eax
	ja	.L481
.L217:
	cmpl	52(%esp), %eax
	ja	.L482
.L218:
.LVL261:
	.loc 1 885 0
	testl	%eax, %eax
	je	.L112
	.loc 1 886 0
	movl	56(%esp), %edi
	movl	%ebp, %esi
	movl	%eax, %ecx
	rep movsb
	movl	%esi, %ebp
.LVL262:
	.loc 1 887 0
	subl	%eax, 44(%esp)
.LVL263:
	.loc 1 889 0
	subl	%eax, 52(%esp)
	.loc 1 890 0
	movl	%edi, 56(%esp)
.LVL264:
	.loc 1 891 0
	movl	36(%esp), %edi
.LVL265:
	subl	%eax, 64(%edi)
	movl	(%edi), %eax
.LVL266:
	.loc 1 892 0
	jmp	.L377
.LVL267:
	.p2align 2,,3
.L99:
	.loc 1 916 0
	movl	36(%esp), %ecx
	movl	64(%ecx), %edx
	jmp	.L122
	.p2align 2,,3
.L100:
.LVL268:
	.loc 1 898 0 discriminator 1
	cmpl	$13, %ebx
	ja	.L128
	.loc 1 898 0 is_stmt 0
	movl	44(%esp), %eax
	testl	%eax, %eax
	je	.L112
	movl	44(%esp), %edx
	movl	40(%esp), %esi
	movl	%ebx, %ecx
	jmp	.L379
.LVL269:
	.p2align 2,,3
.L220:
	.loc 1 898 0 discriminator 2
	testl	%edx, %edx
	je	.L461
.L379:
	.loc 1 898 0 discriminator 1
	decl	%edx
.LVL270:
	movzbl	0(%ebp), %eax
	sall	%cl, %eax
	addl	%eax, %esi
.LVL271:
	incl	%ebp
.LVL272:
	addl	$8, %ecx
.LVL273:
	cmpl	$13, %ecx
	jbe	.L220
	movl	%edx, 44(%esp)
	movl	%esi, 40(%esp)
	movl	%ecx, %ebx
.LVL274:
.L128:
	.loc 1 899 0 is_stmt 1
	movl	40(%esp), %eax
	andl	$31, %eax
	addl	$257, %eax
	movl	36(%esp), %edx
	movl	%eax, 96(%edx)
	.loc 1 900 0
	movl	40(%esp), %edx
	shrl	$5, %edx
.LVL275:
	.loc 1 901 0
	andl	$31, %edx
.LVL276:
	incl	%edx
	movl	36(%esp), %ecx
	movl	%edx, 100(%ecx)
	.loc 1 902 0
	movl	40(%esp), %esi
	shrl	$10, %esi
.LVL277:
	.loc 1 903 0
	andl	$15, %esi
.LVL278:
	addl	$4, %esi
	movl	%esi, 92(%ecx)
	.loc 1 904 0
	shrl	$14, 40(%esp)
.LVL279:
	subl	$14, %ebx
.LVL280:
	.loc 1 906 0
	cmpl	$286, %eax
	ja	.L221
	.loc 1 906 0 is_stmt 0 discriminator 1
	cmpl	$30, %edx
	ja	.L221
	.loc 1 913 0 is_stmt 1
	movl	36(%esp), %eax
	movl	$0, 104(%eax)
	.loc 1 914 0
	movl	$17, (%eax)
	xorl	%edx, %edx
	movl	40(%esp), %edi
	movl	%ebx, %ecx
	movl	%esi, 40(%esp)
	jmp	.L366
.LVL281:
	.p2align 2,,3
.L101:
	.loc 1 639 0
	movl	36(%esp), %eax
	movl	92(%eax), %esi
	movl	104(%eax), %edx
.LVL282:
	.loc 1 916 0
	cmpl	%edx, %esi
	jbe	.L121
	movl	40(%esp), %edi
	movl	%ebx, %ecx
	movl	%esi, 40(%esp)
.LVL283:
.L366:
	.loc 1 917 0 discriminator 1
	cmpl	$2, %ecx
	ja	.L224
	.loc 1 917 0 is_stmt 0
	movl	44(%esp), %ebx
	testl	%ebx, %ebx
	je	.L464
	.loc 1 917 0 discriminator 1
	decl	44(%esp)
	movzbl	0(%ebp), %eax
	sall	%cl, %eax
	addl	%eax, %edi
.LVL284:
	incl	%ebp
.LVL285:
	addl	$8, %ecx
.LVL286:
.L224:
	.loc 1 918 0 is_stmt 1
	movzwl	order.2545(%edx,%edx), %eax
	movl	%edi, %ebx
	andl	$7, %ebx
	movl	36(%esp), %esi
	movw	%bx, 112(%esi,%eax,2)
	incl	%edx
	movl	%edx, 104(%esi)
	.loc 1 919 0
	shrl	$3, %edi
.LVL287:
	subl	$3, %ecx
.LVL288:
	.loc 1 916 0
	cmpl	40(%esp), %edx
	jb	.L366
	movl	%edi, 40(%esp)
	movl	%ecx, %ebx
.LVL289:
.L121:
	.loc 1 921 0 discriminator 1
	cmpl	$18, %edx
	ja	.L226
	.loc 1 605 0
	leal	order.2545(%edx,%edx), %eax
	movl	36(%esp), %ecx
	.p2align 2,,3
.L227:
	.loc 1 922 0
	movzwl	(%eax), %edx
	movw	$0, 112(%ecx,%edx,2)
	addl	$2, %eax
	.loc 1 921 0
	cmpl	$order.2545+38, %eax
	jne	.L227
	movl	36(%esp), %edi
	movl	$19, 104(%edi)
.L226:
	.loc 1 923 0
	movl	84(%esp), %edx
	movl	36(%esp), %eax
	movl	%edx, 108(%eax)
	.loc 1 924 0
	movl	%edx, 76(%eax)
	.loc 1 925 0
	movl	$7, 84(%eax)
	.loc 1 927 0
	movl	88(%esp), %ecx
	movl	%ecx, 20(%esp)
	.loc 1 926 0
	addl	$84, %eax
	movl	%eax, 16(%esp)
	movl	36(%esp), %eax
	addl	$108, %eax
	movl	%eax, 12(%esp)
	movl	$19, 8(%esp)
	movl	36(%esp), %eax
	addl	$112, %eax
	movl	%eax, 4(%esp)
	movl	$0, (%esp)
	call	inflate_table
	movl	%eax, 68(%esp)
.LVL290:
	.loc 1 928 0
	testl	%eax, %eax
	je	.L228
	.loc 1 929 0
	movl	160(%esp), %esi
	movl	$.LC8, 24(%esi)
	.loc 1 930 0
	movl	36(%esp), %edi
	movl	$29, (%edi)
	.loc 1 931 0
	movl	$29, %eax
.LVL291:
	jmp	.L378
.LVL292:
	.p2align 2,,3
.L84:
	.loc 1 641 0
	movl	36(%esp), %edi
	movl	8(%edi), %edx
	testl	%edx, %edx
	je	.L134
.LVL293:
	.loc 1 645 0 discriminator 1
	cmpl	$15, %ebx
	ja	.L135
	.loc 1 645 0 is_stmt 0
	movl	44(%esp), %eax
	testl	%eax, %eax
	je	.L112
	movl	44(%esp), %esi
	movl	40(%esp), %edi
	movl	%ebx, %ecx
	jmp	.L382
.LVL294:
	.p2align 2,,3
.L139:
	.loc 1 645 0 discriminator 2
	testl	%esi, %esi
	je	.L417
.L382:
	.loc 1 645 0 discriminator 1
	decl	%esi
.LVL295:
	movzbl	0(%ebp), %eax
	sall	%cl, %eax
	addl	%eax, %edi
.LVL296:
	incl	%ebp
.LVL297:
	addl	$8, %ecx
.LVL298:
	cmpl	$15, %ecx
	jbe	.L139
	movl	%esi, 44(%esp)
	movl	%edi, 40(%esp)
	movl	%ecx, %ebx
.LVL299:
.L135:
	.loc 1 647 0 is_stmt 1
	testb	$2, %dl
	je	.L140
	.loc 1 647 0 is_stmt 0 discriminator 1
	cmpl	$35615, 40(%esp)
	je	.L483
.L140:
	.loc 1 654 0 is_stmt 1
	movl	36(%esp), %esi
	movl	$0, 16(%esi)
	.loc 1 655 0
	movl	32(%esi), %eax
	testl	%eax, %eax
	je	.L141
	.loc 1 656 0
	movl	$-1, 48(%eax)
.L141:
	.loc 1 657 0
	andl	$1, %edx
	je	.L142
	.loc 1 661 0 discriminator 1
	movl	40(%esp), %edx
	sall	$8, %edx
	andl	$65535, %edx
	movl	40(%esp), %eax
	shrl	$8, %eax
	addl	%edx, %eax
	movl	$31, %ecx
	xorl	%edx, %edx
	divl	%ecx
	.loc 1 657 0 discriminator 1
	testl	%edx, %edx
	jne	.L142
	.loc 1 666 0
	movl	40(%esp), %eax
	andl	$15, %eax
	cmpl	$8, %eax
	je	.L144
	.loc 1 667 0
	movl	160(%esp), %edx
	movl	$.LC1, 24(%edx)
	.loc 1 668 0
	movl	36(%esp), %ecx
	movl	$29, (%ecx)
	.loc 1 669 0
	movl	$29, %eax
	jmp	.L378
.LVL300:
	.p2align 2,,3
.L85:
	.loc 1 688 0 discriminator 1
	cmpl	$15, %ebx
	ja	.L132
	.loc 1 688 0 is_stmt 0
	movl	44(%esp), %eax
	testl	%eax, %eax
	je	.L112
	movl	44(%esp), %edx
	movl	40(%esp), %esi
	movl	%ebx, %ecx
	jmp	.L381
.LVL301:
	.p2align 2,,3
.L149:
	.loc 1 688 0 discriminator 2
	testl	%edx, %edx
	je	.L461
.L381:
	.loc 1 688 0 discriminator 1
	decl	%edx
.LVL302:
	movzbl	0(%ebp), %eax
	sall	%cl, %eax
	addl	%eax, %esi
.LVL303:
	incl	%ebp
.LVL304:
	addl	$8, %ecx
.LVL305:
	cmpl	$15, %ecx
	jbe	.L149
	movl	%edx, 44(%esp)
	movl	%esi, 40(%esp)
	movl	%ecx, %ebx
.LVL306:
.L132:
	.loc 1 689 0 is_stmt 1
	movl	40(%esp), %eax
	movl	36(%esp), %edx
	movl	%eax, 16(%edx)
	.loc 1 690 0
	cmpb	$8, %al
	je	.L150
	.loc 1 691 0
	movl	160(%esp), %ecx
	movl	$.LC1, 24(%ecx)
	.loc 1 692 0
	movl	$29, (%edx)
	.loc 1 693 0
	movl	$29, %eax
	jmp	.L378
.LVL307:
	.p2align 2,,3
.L102:
	.loc 1 639 0
	movl	36(%esp), %edi
	movl	104(%edi), %edi
	movl	%edi, 48(%esp)
	movl	36(%esp), %edx
	movl	36(%esp), %ecx
.L119:
	.loc 1 937 0 discriminator 1
	movl	96(%edx), %edx
	movl	%edx, 80(%esp)
	addl	100(%ecx), %edx
	movl	%edx, 60(%esp)
	movl	44(%esp), %eax
	movl	48(%esp), %esi
.LVL308:
.L390:
	cmpl	%esi, 60(%esp)
	jbe	.L260
	.loc 1 939 0
	movl	36(%esp), %edx
	movl	76(%edx), %edi
	movl	84(%edx), %ecx
	movl	$1, %esi
	sall	%cl, %esi
	movl	%esi, %ecx
	decl	%ecx
	movl	%ecx, 44(%esp)
	movl	40(%esp), %edx
	andl	%ecx, %edx
	leal	(%edi,%edx,4), %edx
.LVL309:
	movb	1(%edx), %cl
.LVL310:
	movw	2(%edx), %si
.LVL311:
	.loc 1 940 0
	movzbl	%cl, %edx
.LVL312:
	cmpl	%edx, %ebx
	jae	.L261
	.loc 1 941 0
	testl	%eax, %eax
	je	.L465
	movl	%ebx, %ecx
.LVL313:
	jmp	.L391
.LVL314:
	.p2align 2,,3
.L232:
	testl	%eax, %eax
	je	.L433
.LVL315:
.L391:
	.loc 1 941 0 is_stmt 0 discriminator 1
	decl	%eax
.LVL316:
	movzbl	0(%ebp), %edx
	sall	%cl, %edx
	addl	%edx, 40(%esp)
	incl	%ebp
.LVL317:
	addl	$8, %ecx
.LVL318:
	.loc 1 939 0 is_stmt 1 discriminator 1
	movl	40(%esp), %edx
	andl	44(%esp), %edx
	leal	(%edi,%edx,4), %edx
.LVL319:
	movb	1(%edx), %bl
.LVL320:
	movw	2(%edx), %si
	.loc 1 940 0 discriminator 1
	movzbl	%bl, %edx
.LVL321:
	cmpl	%ecx, %edx
	ja	.L232
	movl	%ebx, %edi
	movl	%ecx, %ebx
.LVL322:
	movl	%edi, %ecx
.LVL323:
.L261:
	.loc 1 943 0
	cmpw	$15, %si
	jbe	.L484
	.loc 1 949 0
	movzbl	%cl, %ecx
	movl	%ecx, 44(%esp)
	movl	%ecx, %edi
	.loc 1 948 0
	cmpw	$16, %si
	je	.L485
	.loc 1 960 0
	cmpw	$17, %si
	je	.L243
	.loc 1 968 0 discriminator 1
	addl	$7, %edi
	cmpl	%edi, %ebx
	jae	.L244
	.loc 1 968 0 is_stmt 0
	testl	%eax, %eax
	je	.L465
	movl	40(%esp), %esi
	movl	%ebx, %ecx
.LVL324:
	movl	%edx, 92(%esp)
	jmp	.L393
.LVL325:
	.p2align 2,,3
.L251:
	.loc 1 968 0 discriminator 2
	testl	%eax, %eax
	je	.L439
.L393:
	.loc 1 968 0 discriminator 1
	decl	%eax
.LVL326:
	movzbl	0(%ebp), %edx
	sall	%cl, %edx
	addl	%edx, %esi
.LVL327:
	incl	%ebp
.LVL328:
	addl	$8, %ecx
.LVL329:
	cmpl	%edi, %ecx
	jb	.L251
	movl	%esi, 40(%esp)
	movl	%ecx, %ebx
	movl	92(%esp), %edx
.LVL330:
.L244:
	.loc 1 969 0 is_stmt 1
	movl	40(%esp), %edi
	movb	44(%esp), %cl
	shrl	%cl, %edi
.LVL331:
	.loc 1 971 0
	movl	%edi, %esi
	andl	$127, %esi
	addl	$11, %esi
	movl	%esi, 92(%esp)
.LVL332:
	.loc 1 972 0
	shrl	$7, %edi
.LVL333:
	movl	%edi, 40(%esp)
.LVL334:
	.loc 1 969 0
	subl	%edx, %ebx
.LVL335:
	.loc 1 972 0
	subl	$7, %ebx
.LVL336:
	.loc 1 970 0
	xorl	%ecx, %ecx
.LVL337:
.L242:
	.loc 1 974 0
	addl	48(%esp), %esi
	movl	%esi, 100(%esp)
	cmpl	%esi, 60(%esp)
	jb	.L486
.LVL338:
	.loc 1 979 0
	movl	92(%esp), %edx
	decl	%edx
	movl	%edx, 96(%esp)
	.loc 1 605 0
	movl	48(%esp), %esi
	addl	$56, %esi
	movl	%esi, 108(%esp)
	movl	36(%esp), %edi
	leal	(%edi,%esi,2), %edx
	sall	$30, %edx
	shrl	$31, %edx
	movl	92(%esp), %edi
	cmpl	%edx, %edi
	jbe	.L253
	movl	%edx, %edi
.L253:
	movl	48(%esp), %edx
	testl	%edi, %edi
	je	.L254
	movl	%ebp, 44(%esp)
	movl	%eax, 104(%esp)
	movl	36(%esp), %ebp
.LVL339:
	movl	96(%esp), %eax
.LVL340:
	.p2align 2,,3
.L255:
	.loc 1 980 0
	movw	%cx, 112(%ebp,%edx,2)
	incl	%edx
.LVL341:
	.loc 1 979 0
	decl	%eax
.LVL342:
	movl	%edx, %esi
	subl	48(%esp), %esi
	cmpl	%esi, %edi
	ja	.L255
	movl	44(%esp), %ebp
	movl	%eax, 96(%esp)
	movl	104(%esp), %eax
.LVL343:
.L254:
	movl	92(%esp), %esi
	subl	%edi, %esi
	movl	%esi, 92(%esp)
	shrl	%esi
	movl	%esi, 44(%esp)
	sall	%esi
	movl	%esi, 48(%esp)
	je	.L256
	movl	%ecx, %esi
	sall	$16, %esi
	movl	%esi, 32(%esp)
	movzwl	%cx, %esi
	movl	%esi, 104(%esp)
	movl	32(%esp), %esi
	orl	%esi, 104(%esp)
	.loc 1 605 0
	movl	108(%esp), %esi
	addl	%edi, %esi
	.loc 1 979 0
	movl	36(%esp), %edi
	leal	(%edi,%esi,2), %esi
	.loc 1 605 0
	xorl	%edi, %edi
	movl	%ebp, 108(%esp)
	movl	104(%esp), %ebp
.LVL344:
	.p2align 2,,3
.L257:
	.loc 1 980 0
	movl	%ebp, (%esi,%edi,4)
	incl	%edi
	cmpl	%edi, 44(%esp)
	ja	.L257
	movl	108(%esp), %ebp
	movl	48(%esp), %esi
	subl	%esi, 96(%esp)
	addl	%esi, %edx
	cmpl	%esi, 92(%esp)
	je	.L258
.L256:
	.loc 1 605 0
	movl	96(%esp), %edi
	leal	2(%edi,%edi), %edi
	movl	%edi, 44(%esp)
	xorl	%esi, %esi
	movl	36(%esp), %edi
	leal	(%edi,%edx,2), %edx
	movl	44(%esp), %edi
	.p2align 2,,3
.L259:
	.loc 1 980 0
	movw	%cx, 112(%edx,%esi)
	addl	$2, %esi
	.loc 1 979 0
	cmpl	%edi, %esi
	jne	.L259
.L258:
	movl	100(%esp), %ecx
.LVL345:
	movl	36(%esp), %edx
	movl	%ecx, 104(%edx)
	.loc 1 980 0
	movl	%ecx, 48(%esp)
	movl	%ecx, %esi
	jmp	.L390
.LVL346:
	.p2align 2,,3
.L92:
	.loc 1 916 0
	movl	36(%esp), %edi
	movl	16(%edi), %edx
	jmp	.L124
	.p2align 2,,3
.L111:
	.loc 1 639 0
	movl	36(%esp), %edx
	movl	8(%edx), %eax
.L116:
.LVL347:
	.loc 1 1199 0
	testl	%eax, %eax
	je	.L324
	.loc 1 1199 0 is_stmt 0 discriminator 1
	movl	36(%esp), %ecx
	movl	16(%ecx), %edi
	testl	%edi, %edi
	je	.L324
	.loc 1 1200 0 is_stmt 1 discriminator 1
	cmpl	$31, %ebx
	ja	.L325
	.loc 1 1200 0 is_stmt 0
	movl	44(%esp), %esi
	testl	%esi, %esi
	je	.L112
	movl	44(%esp), %edx
	movl	40(%esp), %esi
	movl	%ebx, %ecx
	jmp	.L403
.LVL348:
	.p2align 2,,3
.L328:
	.loc 1 1200 0 discriminator 2
	testl	%edx, %edx
	je	.L461
.L403:
	.loc 1 1200 0 discriminator 1
	decl	%edx
.LVL349:
	movzbl	0(%ebp), %eax
	sall	%cl, %eax
	addl	%eax, %esi
.LVL350:
	incl	%ebp
.LVL351:
	addl	$8, %ecx
.LVL352:
	cmpl	$31, %ecx
	jbe	.L328
	movl	%edx, 44(%esp)
	movl	%esi, 40(%esp)
	movl	%ecx, %ebx
.LVL353:
.L325:
	.loc 1 1201 0 is_stmt 1
	movl	40(%esp), %eax
	movl	36(%esp), %edx
	cmpl	%eax, 28(%edx)
	je	.L359
	.loc 1 1202 0
	movl	160(%esp), %ecx
	movl	$.LC17, 24(%ecx)
	.loc 1 1203 0
	movl	$29, (%edx)
.LVL354:
.L462:
	.loc 1 1204 0
	movl	$29, %eax
	jmp	.L378
.LVL355:
	.p2align 2,,3
.L345:
	.loc 1 1212 0
	movl	$1, 68(%esp)
	jmp	.L112
	.p2align 2,,3
.L89:
	.loc 1 916 0
	movl	36(%esp), %esi
	movl	16(%esi), %edx
	movl	%edx, %ecx
	movl	%edx, %eax
	andl	$1024, %eax
.L127:
.LVL356:
	.loc 1 734 0
	testl	%eax, %eax
	je	.L176
	.loc 1 735 0
	movl	36(%esp), %edx
	movl	64(%edx), %eax
.LVL357:
	movl	44(%esp), %esi
	movl	%esi, 48(%esp)
	cmpl	%eax, %esi
	ja	.L487
.L177:
.LVL358:
	.loc 1 737 0
	movl	48(%esp), %edx
	testl	%edx, %edx
	je	.L178
	.loc 1 738 0
	movl	36(%esp), %edi
	movl	32(%edi), %edx
	testl	%edx, %edx
	je	.L179
	.loc 1 739 0 discriminator 1
	movl	16(%edx), %esi
	.loc 1 738 0 discriminator 1
	testl	%esi, %esi
	je	.L179
	.loc 1 740 0
	movl	20(%edx), %ecx
	subl	%eax, %ecx
.LVL359:
	.loc 1 742 0
	movl	24(%edx), %eax
	movl	48(%esp), %edx
	addl	%ecx, %edx
	.loc 1 741 0
	cmpl	%eax, %edx
	jbe	.L348
	movl	%eax, %edx
	subl	%ecx, %edx
.L180:
	.loc 1 741 0 is_stmt 0 discriminator 2
	leal	(%esi,%ecx), %eax
	movl	%eax, %edi
	movl	%ebp, %esi
	movl	%edx, %ecx
.LVL360:
	rep movsb
	movl	36(%esp), %eax
	movl	16(%eax), %ecx
.L179:
	.loc 1 745 0 is_stmt 1
	andb	$2, %ch
	jne	.L488
.L181:
	.loc 1 747 0
	movl	48(%esp), %edx
	subl	%edx, 44(%esp)
	.loc 1 748 0
	addl	%edx, %ebp
.LVL361:
	.loc 1 749 0
	movl	36(%esp), %ecx
	movl	64(%ecx), %eax
	subl	%edx, %eax
	movl	%eax, 64(%ecx)
.L178:
	.loc 1 751 0
	testl	%eax, %eax
	jne	.L112
	movl	36(%esp), %esi
	movl	16(%esi), %edx
.LVL362:
.L176:
	.loc 1 753 0
	movl	36(%esp), %edi
	movl	$0, 64(%edi)
	.loc 1 754 0
	movl	$6, (%edi)
	.loc 1 756 0
	testb	$8, %dh
	jne	.L489
.L182:
	.loc 1 772 0
	movl	36(%esp), %edi
	movl	32(%edi), %eax
	testl	%eax, %eax
	je	.L187
	.loc 1 773 0
	movl	$0, 28(%eax)
	jmp	.L187
.LVL363:
	.p2align 2,,3
.L109:
	.loc 1 1169 0
	movl	52(%esp), %edi
	testl	%edi, %edi
	je	.L112
	.loc 1 1170 0
	movl	36(%esp), %esi
	movl	64(%esi), %eax
	movl	56(%esp), %edx
	movb	%al, (%edx)
	incl	%edx
	movl	%edx, 56(%esp)
.LVL364:
	.loc 1 1171 0
	decl	52(%esp)
	.loc 1 1172 0
	movl	$20, (%esi)
	.loc 1 1173 0
	movl	$20, %eax
	jmp	.L378
.LVL365:
	.p2align 2,,3
.L335:
	.loc 1 1246 0
	subl	$-128, %eax
	jmp	.L339
.LVL366:
	.p2align 2,,3
.L461:
	movl	%edx, 44(%esp)
	movl	%esi, 40(%esp)
	movl	%ecx, %ebx
	jmp	.L112
.LVL367:
	.p2align 2,,3
.L349:
	.loc 1 804 0
	xorl	%ebx, %ebx
.LVL368:
	movl	$0, 40(%esp)
	.p2align 2,,3
.L194:
.LVL369:
	.loc 1 806 0
	movl	36(%esp), %edi
	movl	32(%edi), %eax
	testl	%eax, %eax
	je	.L199
	.loc 1 807 0
	sarl	$9, %edx
	andl	$1, %edx
	movl	%edx, 44(%eax)
	.loc 1 808 0
	movl	$1, 48(%eax)
.L199:
	.loc 1 810 0
	movl	$0, 8(%esp)
	movl	$0, 4(%esp)
	movl	$0, (%esp)
	call	crc32
	movl	36(%esp), %edx
	movl	%eax, 24(%edx)
	movl	160(%esp), %ecx
	movl	%eax, 48(%ecx)
	.loc 1 811 0
	movl	$11, (%edx)
	.loc 1 812 0
	movl	$11, %eax
	jmp	.L378
.LVL370:
	.p2align 2,,3
.L80:
	.loc 1 629 0
	movl	4(%ebx), %eax
	testl	%eax, %eax
	jne	.L344
	movl	$0, 72(%esp)
	jmp	.L81
.LVL371:
	.p2align 2,,3
.L188:
	.loc 1 793 0
	movl	36(%esp), %edi
	movl	32(%edi), %eax
	testl	%eax, %eax
	je	.L193
	.loc 1 794 0
	movl	$0, 36(%eax)
	jmp	.L193
.LVL372:
	.p2align 2,,3
.L332:
	.loc 1 1245 0 discriminator 2
	movl	160(%esp), %ebp
	movl	12(%ebp), %eax
	subl	%esi, %eax
	movl	%eax, 4(%esp)
	movl	36(%esp), %edx
	movl	24(%edx), %eax
	movl	%eax, (%esp)
	call	adler32
	jmp	.L333
.LVL373:
	.p2align 2,,3
.L453:
	movl	%esi, 44(%esp)
	movl	%edi, 40(%esp)
	movl	%ecx, %ebx
	jmp	.L112
.LVL374:
	.p2align 2,,3
.L449:
	movl	%edx, 44(%esp)
	movl	%ecx, %ebx
	jmp	.L112
.LVL375:
	.p2align 2,,3
.L216:
	.loc 1 895 0
	movl	36(%esp), %eax
	movl	$11, (%eax)
	.loc 1 896 0
	movl	$11, %eax
	jmp	.L378
.LVL376:
	.p2align 2,,3
.L303:
	movl	%edx, %esi
	.loc 1 1157 0
	movl	56(%esp), %edx
	subl	%edi, %edx
.LVL377:
	.loc 1 1158 0
	movl	64(%esi), %edi
.LVL378:
	movl	%edi, %eax
.LVL379:
.L307:
	cmpl	52(%esp), %edi
	jbe	.L308
	movl	52(%esp), %edi
.LVL380:
.L308:
	.loc 1 1161 0
	subl	%edi, 52(%esp)
	.loc 1 1162 0
	subl	%edi, %eax
	movl	36(%esp), %ecx
	movl	%eax, 64(%ecx)
	movl	%edi, %esi
	shrl	$2, %esi
	leal	0(,%esi,4), %eax
	movl	%eax, 48(%esp)
	.loc 1 605 0
	movl	56(%esp), %eax
	addl	$4, %eax
	cmpl	%eax, %edx
	seta	%cl
	leal	4(%edx), %eax
	cmpl	%eax, 56(%esp)
	seta	%al
	orl	%eax, %ecx
	movl	56(%esp), %eax
	orl	%edx, %eax
	testb	$3, %al
	sete	%al
	cmpl	$9, %edi
	seta	60(%esp)
	andl	60(%esp), %eax
	.loc 1 1162 0
	testb	%al, %cl
	je	.L356
	movl	48(%esp), %eax
	testl	%eax, %eax
	je	.L356
	.loc 1 605 0
	xorl	%eax, %eax
	movl	%ebp, 60(%esp)
	movl	56(%esp), %ebp
.LVL381:
	.p2align 2,,3
.L310:
	.loc 1 1164 0 discriminator 1
	movl	(%edx,%eax,4), %ecx
	movl	%ecx, 0(%ebp,%eax,4)
	incl	%eax
	cmpl	%eax, %esi
	ja	.L310
	movl	60(%esp), %ebp
	.loc 1 1164 0 is_stmt 0
	movl	56(%esp), %ecx
	addl	48(%esp), %ecx
	movl	%edi, %esi
	subl	48(%esp), %esi
	addl	48(%esp), %edx
	cmpl	48(%esp), %edi
	je	.L311
.LVL382:
.L309:
	.loc 1 605 0 is_stmt 1
	xorl	%eax, %eax
	movl	%ebp, 48(%esp)
	movl	%edx, %ebp
	.p2align 2,,3
.L312:
	.loc 1 1164 0
	movb	0(%ebp,%eax), %dl
	movb	%dl, (%ecx,%eax)
	incl	%eax
	.loc 1 1165 0
	cmpl	%esi, %eax
	jne	.L312
	movl	48(%esp), %ebp
.L311:
	addl	%edi, 56(%esp)
	.loc 1 1166 0
	movl	36(%esp), %edx
	movl	64(%edx), %eax
	testl	%eax, %eax
	je	.L313
	movl	(%edx), %eax
	jmp	.L377
	.p2align 2,,3
.L313:
	.loc 1 1166 0 is_stmt 0 discriminator 1
	movl	$20, (%edx)
	movl	$20, %eax
	jmp	.L378
.LVL383:
	.p2align 2,,3
.L487:
	.loc 1 735 0 is_stmt 1
	movl	%eax, 48(%esp)
	jmp	.L177
.LVL384:
	.p2align 2,,3
.L281:
	.loc 1 1072 0 discriminator 1
	cmpl	%edx, %ebx
	jae	.L283
	.loc 1 1072 0 is_stmt 0
	movl	44(%esp), %ecx
	testl	%ecx, %ecx
	je	.L112
	movl	44(%esp), %esi
	movl	40(%esp), %edi
	movl	%ebx, %ecx
	jmp	.L398
.LVL385:
	.p2align 2,,3
.L286:
	.loc 1 1072 0 discriminator 2
	testl	%esi, %esi
	je	.L453
.L398:
	.loc 1 1072 0 discriminator 1
	decl	%esi
.LVL386:
	movzbl	0(%ebp), %eax
	sall	%cl, %eax
	addl	%eax, %edi
.LVL387:
	incl	%ebp
.LVL388:
	addl	$8, %ecx
.LVL389:
	cmpl	%edx, %ecx
	jb	.L286
	movl	%esi, 44(%esp)
	movl	%edi, 40(%esp)
	movl	%ecx, %ebx
.LVL390:
.L283:
	.loc 1 1073 0 is_stmt 1
	movl	$1, %eax
	movb	%dl, %cl
	sall	%cl, %eax
	decl	%eax
	andl	40(%esp), %eax
	movl	36(%esp), %esi
	addl	64(%esi), %eax
	movl	%eax, 64(%esi)
	.loc 1 1074 0
	shrl	%cl, 40(%esp)
	subl	%edx, %ebx
.LVL391:
	.loc 1 1075 0
	addl	%edx, 7108(%esi)
	movl	%esi, %edi
	jmp	.L282
.LVL392:
	.p2align 2,,3
.L482:
	.loc 1 882 0
	movl	52(%esp), %eax
	jmp	.L218
	.p2align 2,,3
.L481:
	movl	%edx, %eax
	jmp	.L217
.LVL393:
	.p2align 2,,3
.L365:
	movl	36(%esp), %edi
	movl	16(%edi), %edx
	jmp	.L88
	.p2align 2,,3
.L357:
	.loc 1 1175 0
	xorl	%eax, %eax
.L314:
.LVL394:
	.loc 1 1197 0
	movl	36(%esp), %edx
	movl	$27, (%edx)
	jmp	.L116
.LVL395:
	.p2align 2,,3
.L134:
	.loc 1 642 0
	movl	$12, (%edi)
	.loc 1 643 0
	movl	$12, %eax
	jmp	.L378
.LVL396:
	.p2align 2,,3
.L471:
	.loc 1 1129 0
	movl	7104(%edx), %eax
	testl	%eax, %eax
	je	.L304
	.loc 1 1130 0
	movl	160(%esp), %ecx
	movl	$.LC15, 24(%ecx)
	.loc 1 1131 0
	movl	$29, (%edx)
	.loc 1 1132 0
	movl	$29, %eax
	jmp	.L378
.LVL397:
	.p2align 2,,3
.L474:
	.loc 1 1086 0
	movl	36(%esp), %edi
	movl	7108(%edi), %esi
	movzbl	%dl, %edx
.LVL398:
.L292:
	.loc 1 1097 0
	movb	%dl, %cl
	shrl	%cl, 40(%esp)
	subl	60(%esp), %ebx
.LVL399:
	.loc 1 1098 0
	addl	%esi, %edx
	movl	36(%esp), %esi
	movl	%edx, 7108(%esi)
	.loc 1 1099 0
	testb	$64, 80(%esp)
	je	.L297
	.loc 1 1100 0
	movl	160(%esp), %edi
	movl	$.LC14, 24(%edi)
	.loc 1 1101 0
	movl	$29, (%esi)
	.loc 1 1102 0
	movl	$29, %eax
.LVL400:
	jmp	.L378
.LVL401:
	.p2align 2,,3
.L473:
	.loc 1 1036 0
	movzbl	80(%esp), %eax
.LVL402:
	.loc 1 1047 0
	movb	80(%esp), %cl
	shrl	%cl, 40(%esp)
	subl	%esi, %ebx
.LVL403:
	.loc 1 1048 0
	movl	36(%esp), %esi
	movl	%eax, 7108(%esi)
	.loc 1 1049 0
	movzwl	%dx, %edx
	movl	%edx, 64(%esi)
.LVL404:
.L272:
	.loc 1 1054 0
	movl	36(%esp), %eax
	movl	$25, (%eax)
	.loc 1 1055 0
	movl	$25, %eax
	jmp	.L378
.LVL405:
	.p2align 2,,3
.L484:
	.loc 1 944 0
	shrl	%cl, 40(%esp)
	subl	%edx, %ebx
.LVL406:
	.loc 1 945 0
	movl	48(%esp), %edi
	movl	36(%esp), %edx
	movw	%si, 112(%edx,%edi,2)
	incl	%edi
	movl	%edi, 48(%esp)
	movl	%edi, 104(%edx)
	movl	%edi, %esi
	jmp	.L390
.LVL407:
.L472:
	.loc 1 1023 0
	movl	56(%esp), %edx
	movl	160(%esp), %edi
	movl	%edx, 12(%edi)
	movl	52(%esp), %ecx
	movl	%ecx, 16(%edi)
	movl	%ebp, (%edi)
	movl	44(%esp), %esi
	movl	%esi, 4(%edi)
	movl	40(%esp), %eax
	movl	36(%esp), %edx
	movl	%eax, 56(%edx)
	movl	%ebx, 60(%edx)
	.loc 1 1024 0
	movl	64(%esp), %ebx
.LVL408:
	movl	%ebx, 4(%esp)
	movl	%edi, (%esp)
	call	inflate_fast
.LVL409:
	.loc 1 1025 0
	movl	12(%edi), %edx
	movl	%edx, 56(%esp)
.LVL410:
	movl	16(%edi), %ebx
	movl	%ebx, 52(%esp)
.LVL411:
	movl	(%edi), %ebp
.LVL412:
	movl	4(%edi), %ebx
	movl	%ebx, 44(%esp)
.LVL413:
	movl	36(%esp), %ebx
	movl	56(%ebx), %ebx
	movl	%ebx, 40(%esp)
.LVL414:
	movl	36(%esp), %esi
	movl	60(%esi), %ebx
.LVL415:
	.loc 1 1026 0
	movl	(%esi), %eax
	cmpl	$11, %eax
	jne	.L377
	.loc 1 1027 0
	movl	$-1, 7108(%esi)
	jmp	.L378
.LVL416:
.L208:
	.loc 1 856 0
	movl	$16, (%esi)
	.loc 1 857 0
	movl	$16, %eax
	jmp	.L210
.LVL417:
	.p2align 2,,3
.L168:
	.loc 1 730 0
	movl	36(%esp), %esi
	movl	32(%esi), %eax
	testl	%eax, %eax
	je	.L347
	.loc 1 731 0
	movl	$0, 16(%eax)
	xorl	%eax, %eax
	jmp	.L175
.LVL418:
	.p2align 2,,3
.L433:
	movl	%eax, 44(%esp)
	movl	%ecx, %ebx
.LVL419:
	jmp	.L112
.LVL420:
	.p2align 2,,3
.L417:
	movl	%esi, 44(%esp)
.LVL421:
.L464:
	movl	%edi, 40(%esp)
	movl	%ecx, %ebx
	jmp	.L112
.LVL422:
	.p2align 2,,3
.L478:
	.loc 1 788 0
	movl	%esi, 8(%esp)
	movl	%ebp, 4(%esp)
	movl	24(%eax), %eax
	movl	%eax, (%esp)
	call	crc32
	movl	36(%esp), %ecx
	movl	%eax, 24(%ecx)
	jmp	.L192
	.p2align 2,,3
.L477:
	.loc 1 767 0
	movl	%esi, 8(%esp)
	movl	%ebp, 4(%esp)
	movl	24(%eax), %eax
	movl	%eax, (%esp)
	call	crc32
	movl	36(%esp), %ecx
	movl	%eax, 24(%ecx)
	jmp	.L186
.LVL423:
	.p2align 2,,3
.L221:
	.loc 1 907 0
	movl	160(%esp), %esi
	movl	$.LC7, 24(%esi)
	.loc 1 908 0
	movl	36(%esp), %edi
	movl	$29, (%edi)
	.loc 1 909 0
	movl	$29, %eax
	jmp	.L378
.LVL424:
	.p2align 2,,3
.L305:
	.loc 1 1153 0
	subl	%edi, %edx
	addl	52(%esi), %edx
.LVL425:
	movl	%esi, %ecx
	jmp	.L306
.LVL426:
	.p2align 2,,3
.L297:
	.loc 1 1104 0
	movzwl	%ax, %eax
	movl	%eax, 68(%esi)
	.loc 1 1105 0
	movb	48(%esp), %dl
	andl	$15, %edx
	movl	%edx, 72(%esi)
	.loc 1 1106 0
	movl	$23, (%esi)
	jmp	.L117
.LVL427:
.L451:
	movl	%esi, 44(%esp)
	jmp	.L112
.LVL428:
.L476:
	.loc 1 718 0 discriminator 1
	movb	40(%esp), %al
	movb	%al, 124(%esp)
	movl	40(%esp), %eax
	shrl	$8, %eax
	movb	%al, 125(%esp)
	movl	$2, 8(%esp)
	leal	124(%esp), %eax
	movl	%eax, 4(%esp)
	movl	24(%ebx), %eax
	movl	%eax, (%esp)
	call	crc32
	movl	%eax, 24(%ebx)
	movl	16(%ebx), %edx
	movl	36(%esp), %ebx
	jmp	.L167
.LVL429:
.L273:
	.loc 1 1039 0
	movzwl	%dx, %edx
	movl	%edx, 92(%esp)
	.loc 1 1040 0
	movzbl	80(%esp), %eax
	movl	%eax, 100(%esp)
	addl	%eax, %ecx
	movl	$1, %eax
	sall	%cl, %eax
	decl	%eax
	movl	%eax, 96(%esp)
	andl	40(%esp), %eax
	movb	80(%esp), %cl
	shrl	%cl, %eax
	.loc 1 1039 0
	addl	%edx, %eax
	leal	(%edi,%eax,4), %eax
	movb	(%eax), %dl
	movb	%dl, 48(%esp)
.LVL430:
	movb	1(%eax), %dl
	movb	%dl, 60(%esp)
.LVL431:
	movw	2(%eax), %dx
.LVL432:
	.loc 1 1041 0
	movzbl	60(%esp), %eax
.LVL433:
	movl	100(%esp), %ecx
	addl	%eax, %ecx
	movl	%ecx, 80(%esp)
	cmpl	%ecx, %ebx
	jae	.L275
	.loc 1 1042 0
	movl	44(%esp), %eax
	testl	%eax, %eax
	je	.L112
	movl	%esi, 80(%esp)
	movl	44(%esp), %esi
	movl	%edi, 44(%esp)
	movl	100(%esp), %edi
	jmp	.L397
.LVL434:
	.p2align 2,,3
.L278:
	testl	%esi, %esi
	je	.L451
.L397:
	.loc 1 1042 0 is_stmt 0 discriminator 1
	decl	%esi
.LVL435:
	movzbl	0(%ebp), %eax
	movb	%bl, %cl
	sall	%cl, %eax
	addl	%eax, 40(%esp)
	incl	%ebp
.LVL436:
	addl	$8, %ebx
.LVL437:
	.loc 1 1040 0 is_stmt 1 discriminator 1
	movl	40(%esp), %eax
	andl	96(%esp), %eax
	movl	%edi, %ecx
	shrl	%cl, %eax
	.loc 1 1039 0 discriminator 1
	addl	92(%esp), %eax
	movl	44(%esp), %edx
	leal	(%edx,%eax,4), %eax
	movb	(%eax), %dl
	movb	%dl, 48(%esp)
	movb	1(%eax), %dl
	movb	%dl, 60(%esp)
.LVL438:
	movw	2(%eax), %dx
	.loc 1 1041 0 discriminator 1
	movzbl	60(%esp), %eax
.LVL439:
	leal	(%eax,%edi), %ecx
	cmpl	%ebx, %ecx
	ja	.L278
	movl	%esi, 44(%esp)
	movl	80(%esp), %esi
.LVL440:
	movl	%ecx, 80(%esp)
.L275:
	.loc 1 1044 0
	movb	100(%esp), %cl
	shrl	%cl, 40(%esp)
	subl	%esi, %ebx
.LVL441:
	.loc 1 1047 0
	movb	%al, %cl
	shrl	%cl, 40(%esp)
	movzbl	60(%esp), %eax
	subl	%eax, %ebx
.LVL442:
	.loc 1 1048 0
	movl	80(%esp), %edi
	movl	36(%esp), %esi
	movl	%edi, 7108(%esi)
	.loc 1 1049 0
	movzwl	%dx, %edx
	movl	%edx, 64(%esi)
	.loc 1 1050 0
	cmpb	$0, 48(%esp)
	jne	.L274
	jmp	.L272
.LVL443:
	.p2align 2,,3
.L348:
	.loc 1 741 0
	movl	48(%esp), %edx
	jmp	.L180
.LVL444:
.L279:
	.loc 1 1063 0
	testb	$64, %dl
	je	.L280
	.loc 1 1064 0
	movl	160(%esp), %ecx
	movl	$.LC13, 24(%ecx)
	.loc 1 1065 0
	movl	36(%esp), %esi
	movl	$29, (%esi)
	.loc 1 1066 0
	movl	$29, %eax
	jmp	.L378
.LVL445:
.L439:
	movl	%eax, 44(%esp)
	movl	%esi, 40(%esp)
	movl	%ecx, %ebx
	jmp	.L112
.LVL446:
.L142:
	.loc 1 662 0
	movl	160(%esp), %edi
	movl	$.LC0, 24(%edi)
	.loc 1 663 0
	movl	36(%esp), %eax
	movl	$29, (%eax)
	.loc 1 664 0
	movl	$29, %eax
	jmp	.L378
.LVL447:
.L207:
.LBB40:
.LBB41:
	.loc 1 298 0
	movl	36(%esp), %edi
	movl	$lenfix.2516, 76(%edi)
	.loc 1 299 0
	movl	$9, 84(%edi)
	.loc 1 300 0
	movl	$distfix.2517, 80(%edi)
	.loc 1 301 0
	movl	$5, 88(%edi)
.LBE41:
.LBE40:
	.loc 1 847 0
	movl	$19, (%edi)
	.loc 1 848 0
	cmpl	$6, 164(%esp)
	je	.L490
	movl	$19, %eax
	jmp	.L210
.LVL448:
.L209:
	.loc 1 859 0
	movl	160(%esp), %ecx
	movl	$.LC5, 24(%ecx)
	.loc 1 860 0
	movl	36(%esp), %esi
	movl	$29, (%esi)
	movl	$29, %eax
	jmp	.L210
.LVL449:
.L488:
	.loc 1 746 0
	movl	48(%esp), %edx
	movl	%edx, 8(%esp)
	movl	%ebp, 4(%esp)
	movl	36(%esp), %ecx
	movl	24(%ecx), %eax
	movl	%eax, (%esp)
	call	crc32
	movl	36(%esp), %esi
	movl	%eax, 24(%esi)
	jmp	.L181
.LVL450:
.L475:
	.loc 1 709 0 discriminator 1
	movb	40(%esp), %al
	movb	%al, 124(%esp)
	movl	40(%esp), %eax
	shrl	$8, %eax
	movb	%al, 125(%esp)
	movl	40(%esp), %eax
	shrl	$16, %eax
	movb	%al, 126(%esp)
	movl	40(%esp), %eax
	shrl	$24, %eax
	movb	%al, 127(%esp)
	movl	$4, 8(%esp)
	leal	124(%esp), %eax
	movl	%eax, 4(%esp)
	movl	24(%ebx), %eax
	movl	%eax, (%esp)
	call	crc32
	movl	%eax, 24(%ebx)
	movl	36(%esp), %ebx
	jmp	.L160
.LVL451:
.L215:
	.loc 1 872 0
	movl	36(%esp), %ebx
.LVL452:
	movl	%edx, 64(%ebx)
.LVL453:
	.loc 1 876 0
	movl	$14, (%ebx)
	.loc 1 875 0
	xorl	%ebx, %ebx
	.loc 1 877 0
	cmpl	$6, 164(%esp)
	.loc 1 875 0
	movl	$0, 40(%esp)
	.loc 1 877 0
	je	.L112
	movl	36(%esp), %esi
	jmp	.L123
.LVL454:
.L150:
	.loc 1 695 0
	testl	$57344, 40(%esp)
	je	.L151
	.loc 1 696 0
	movl	160(%esp), %esi
	movl	$.LC3, 24(%esi)
	.loc 1 697 0
	movl	36(%esp), %edi
	movl	$29, (%edi)
	.loc 1 698 0
	movl	$29, %eax
	jmp	.L378
.LVL455:
.L174:
	.loc 1 727 0 discriminator 1
	movb	40(%esp), %al
	movb	%al, 124(%esp)
	movl	40(%esp), %eax
	shrl	$8, %eax
	movb	%al, 125(%esp)
	movl	$2, 8(%esp)
	leal	124(%esp), %eax
	movl	%eax, 4(%esp)
	movl	36(%esp), %ebx
	movl	24(%ebx), %eax
	movl	%eax, (%esp)
	call	crc32
	movl	%eax, 24(%ebx)
	movl	16(%ebx), %edx
	jmp	.L463
.LVL456:
.L347:
	.loc 1 730 0
	xorl	%eax, %eax
	jmp	.L175
.LVL457:
.L485:
	.loc 1 949 0 discriminator 1
	addl	$2, %edi
	cmpl	%edi, %ebx
	jae	.L236
	.loc 1 949 0 is_stmt 0
	testl	%eax, %eax
	je	.L465
	movl	40(%esp), %esi
	movl	%ebx, %ecx
.LVL458:
	movl	%edx, 92(%esp)
	jmp	.L392
.LVL459:
	.p2align 2,,3
.L239:
	.loc 1 949 0 discriminator 2
	testl	%eax, %eax
	je	.L439
.L392:
	.loc 1 949 0 discriminator 1
	decl	%eax
.LVL460:
	movzbl	0(%ebp), %edx
	sall	%cl, %edx
	addl	%edx, %esi
.LVL461:
	incl	%ebp
.LVL462:
	addl	$8, %ecx
.LVL463:
	cmpl	%edi, %ecx
	jb	.L239
	movl	%esi, 40(%esp)
	movl	%ecx, %ebx
	movl	92(%esp), %edx
.LVL464:
.L236:
	.loc 1 950 0 is_stmt 1
	movb	44(%esp), %cl
	shrl	%cl, 40(%esp)
	subl	%edx, %ebx
.LVL465:
	.loc 1 951 0
	movl	48(%esp), %edx
	testl	%edx, %edx
	je	.L491
	.loc 1 956 0
	movl	48(%esp), %edx
	movl	36(%esp), %esi
	movzwl	110(%esi,%edx,2), %ecx
.LVL466:
	.loc 1 957 0
	movl	40(%esp), %edx
	andl	$3, %edx
	addl	$3, %edx
	movl	%edx, 92(%esp)
.LVL467:
	.loc 1 958 0
	shrl	$2, 40(%esp)
	subl	$2, %ebx
.LVL468:
	movl	%edx, %esi
	jmp	.L242
.LVL469:
.L280:
	.loc 1 1068 0
	andl	$15, %edx
	movl	36(%esp), %edi
	movl	%edx, 72(%edi)
	.loc 1 1069 0
	movl	$21, (%edi)
	jmp	.L118
.LVL470:
.L465:
	movl	%eax, 44(%esp)
	jmp	.L112
.LVL471:
.L243:
	.loc 1 961 0 discriminator 1
	addl	$3, %edi
	cmpl	%edi, %ebx
	jae	.L246
	.loc 1 961 0 is_stmt 0
	testl	%eax, %eax
	je	.L465
	movl	40(%esp), %esi
	movl	%ebx, %ecx
.LVL472:
	movl	%edx, 92(%esp)
	jmp	.L394
.LVL473:
	.p2align 2,,3
.L249:
	.loc 1 961 0 discriminator 2
	testl	%eax, %eax
	je	.L439
.L394:
	.loc 1 961 0 discriminator 1
	decl	%eax
.LVL474:
	movzbl	0(%ebp), %edx
	sall	%cl, %edx
	addl	%edx, %esi
.LVL475:
	incl	%ebp
.LVL476:
	addl	$8, %ecx
.LVL477:
	cmpl	%edi, %ecx
	jb	.L249
	movl	%esi, 40(%esp)
	movl	%ecx, %ebx
	movl	92(%esp), %edx
.LVL478:
.L246:
	.loc 1 962 0 is_stmt 1
	movl	40(%esp), %edi
	movb	44(%esp), %cl
	shrl	%cl, %edi
.LVL479:
	.loc 1 964 0
	movl	%edi, %esi
	andl	$7, %esi
	addl	$3, %esi
	movl	%esi, 92(%esp)
.LVL480:
	.loc 1 965 0
	shrl	$3, %edi
.LVL481:
	movl	%edi, 40(%esp)
.LVL482:
	.loc 1 962 0
	movl	$-3, %esi
.LVL483:
	subl	%edx, %esi
	.loc 1 965 0
	addl	%esi, %ebx
.LVL484:
	.loc 1 963 0
	xorl	%ecx, %ecx
	movl	92(%esp), %esi
	jmp	.L242
.LVL485:
.L355:
	.loc 1 1083 0
	movl	%esi, 60(%esp)
	jmp	.L287
.LVL486:
.L359:
	.loc 1 1206 0
	xorl	%ebx, %ebx
.LVL487:
	movl	$0, 40(%esp)
.L324:
.LVL488:
	.loc 1 1210 0
	movl	36(%esp), %esi
	movl	$28, (%esi)
	.loc 1 1212 0
	movl	$1, 68(%esp)
	jmp	.L112
.LVL489:
.L151:
	.loc 1 700 0
	movl	36(%esp), %ebx
.LVL490:
	movl	32(%ebx), %eax
	testl	%eax, %eax
	je	.L152
	.loc 1 701 0
	movl	40(%esp), %edx
	shrl	$8, %edx
	andl	$1, %edx
	movl	%edx, (%eax)
.L152:
	.loc 1 702 0
	testl	$512, 40(%esp)
	jne	.L492
.L153:
.LVL491:
	.loc 1 704 0
	movl	36(%esp), %ebx
	movl	$2, (%ebx)
	.loc 1 703 0
	xorl	%ebx, %ebx
	movl	$0, 40(%esp)
	jmp	.L154
.LVL492:
.L469:
	.loc 1 1184 0
	movl	8(%edx), %eax
	movl	52(%esp), %ebx
.LVL493:
	movl	%ebx, 64(%esp)
	.loc 1 1193 0
	xorl	%ebx, %ebx
	movl	$0, 40(%esp)
	jmp	.L314
.LVL494:
.L320:
	.loc 1 1182 0 discriminator 2
	subl	%eax, %edx
	movl	%edx, 4(%esp)
	movl	36(%esp), %ecx
	movl	24(%ecx), %eax
.LVL495:
	movl	%eax, (%esp)
	call	adler32
.LVL496:
	jmp	.L321
.LVL497:
.L228:
	.loc 1 934 0
	movl	36(%esp), %eax
.LVL498:
	movl	$0, 104(%eax)
	.loc 1 935 0
	movl	$18, (%eax)
	movl	$0, 48(%esp)
	movl	%eax, %edx
	movl	%eax, %ecx
	jmp	.L119
.LVL499:
.L260:
	movl	%eax, 44(%esp)
	.loc 1 985 0
	movl	36(%esp), %edi
	cmpl	$29, (%edi)
	je	.L462
	.loc 1 988 0
	cmpw	$0, 624(%edi)
	jne	.L263
	.loc 1 989 0
	movl	160(%esp), %eax
.LVL500:
	movl	$.LC10, 24(%eax)
	.loc 1 990 0
	movl	$29, (%edi)
	.loc 1 991 0
	movl	$29, %eax
	jmp	.L378
.LVL501:
.L470:
	.loc 1 821 0
	movl	56(%esp), %edx
	movl	160(%esp), %edi
	movl	%edx, 12(%edi)
	movl	52(%esp), %ecx
	movl	%ecx, 16(%edi)
	movl	%ebp, (%edi)
	movl	44(%esp), %esi
	movl	%esi, 4(%edi)
	movl	40(%esp), %eax
	movl	36(%esp), %edx
	movl	%eax, 56(%edx)
	movl	%ebx, 60(%edx)
	.loc 1 822 0
	movl	$2, 68(%esp)
	jmp	.L79
.LVL502:
.L492:
	.loc 1 702 0 discriminator 1
	movb	40(%esp), %al
	movb	%al, 124(%esp)
	movl	40(%esp), %eax
	shrl	$8, %eax
	movb	%al, 125(%esp)
	movl	$2, 8(%esp)
	leal	124(%esp), %eax
	movl	%eax, 4(%esp)
	movl	36(%esp), %ebx
	movl	24(%ebx), %eax
	movl	%eax, (%esp)
	call	crc32
	movl	%eax, 24(%ebx)
	jmp	.L153
.LVL503:
.L483:
	.loc 1 648 0
	movl	$0, 8(%esp)
	movl	$0, 4(%esp)
	movl	$0, (%esp)
	call	crc32
	movl	36(%esp), %ebx
.LVL504:
	movl	%eax, 24(%ebx)
	.loc 1 649 0
	movb	$31, 124(%esp)
	movb	$-117, 125(%esp)
	movl	$2, 8(%esp)
	leal	124(%esp), %edx
	movl	%edx, 4(%esp)
	movl	%eax, (%esp)
	call	crc32
	movl	%eax, 24(%ebx)
.LVL505:
	.loc 1 651 0
	movl	$1, (%ebx)
	.loc 1 652 0
	movl	$1, %eax
	.loc 1 650 0
	xorl	%ebx, %ebx
	movl	$0, 40(%esp)
	.loc 1 652 0
	jmp	.L378
.LVL506:
.L144:
	.loc 1 671 0
	shrl	$4, 40(%esp)
.LVL507:
	.loc 1 672 0
	movl	40(%esp), %ecx
	andl	$15, %ecx
	addl	$8, %ecx
.LVL508:
	.loc 1 673 0
	movl	36(%esp), %esi
	movl	36(%esi), %eax
	testl	%eax, %eax
	jne	.L145
	.loc 1 674 0
	movl	%ecx, 36(%esi)
.L146:
	.loc 1 680 0
	movl	$1, %eax
	sall	%cl, %eax
	movl	36(%esp), %ebx
.LVL509:
	movl	%eax, 20(%ebx)
	.loc 1 682 0
	movl	$0, 8(%esp)
	movl	$0, 4(%esp)
	movl	$0, (%esp)
	call	adler32
.LVL510:
	movl	%eax, 24(%ebx)
	movl	160(%esp), %ebx
	movl	%eax, 48(%ebx)
	.loc 1 683 0
	movl	40(%esp), %eax
	andl	$512, %eax
	cmpl	$1, %eax
	sbbl	%eax, %eax
	andl	$2, %eax
	addl	$9, %eax
	movl	36(%esp), %ebx
	movl	%eax, (%ebx)
.LVL511:
	.loc 1 684 0
	xorl	%ebx, %ebx
	movl	$0, 40(%esp)
	.loc 1 685 0
	jmp	.L377
.LVL512:
.L263:
	.loc 1 997 0
	movl	84(%esp), %ecx
	movl	36(%esp), %edx
	movl	%ecx, 108(%edx)
	.loc 1 998 0
	movl	%ecx, 76(%edx)
	.loc 1 999 0
	movl	$9, 84(%edx)
	.loc 1 1000 0
	movl	%edx, %esi
	addl	$108, %esi
	movl	88(%esp), %edi
	movl	%edi, 20(%esp)
	movl	%edx, %eax
.LVL513:
	addl	$84, %eax
	movl	%eax, 16(%esp)
	movl	%esi, 12(%esp)
	movl	80(%esp), %eax
	movl	%eax, 8(%esp)
	movl	%edx, %eax
	addl	$112, %eax
	movl	%eax, 4(%esp)
	movl	$1, (%esp)
	call	inflate_table
	movl	%eax, 68(%esp)
.LVL514:
	.loc 1 1002 0
	testl	%eax, %eax
	je	.L264
	.loc 1 1003 0
	movl	160(%esp), %edx
	movl	$.LC11, 24(%edx)
	.loc 1 1004 0
	movl	36(%esp), %ecx
	movl	$29, (%ecx)
	.loc 1 1005 0
	movl	$29, %eax
.LVL515:
	jmp	.L378
.LVL516:
.L145:
	.loc 1 675 0
	cmpl	%eax, %ecx
	jbe	.L146
	.loc 1 671 0
	subl	$4, %ebx
.LVL517:
	.loc 1 676 0
	movl	160(%esp), %edi
	movl	$.LC2, 24(%edi)
	.loc 1 677 0
	movl	36(%esp), %eax
	movl	$29, (%eax)
	.loc 1 678 0
	movl	$29, %eax
	jmp	.L378
.LVL518:
.L264:
	.loc 1 1007 0
	movl	36(%esp), %edi
	movl	108(%edi), %eax
.LVL519:
	movl	%eax, 80(%edi)
	.loc 1 1008 0
	movl	$6, 88(%edi)
	.loc 1 1009 0
	movl	88(%esp), %eax
	movl	%eax, 20(%esp)
	movl	%edi, %eax
	addl	$88, %eax
	movl	%eax, 16(%esp)
	movl	%esi, 12(%esp)
	movl	100(%edi), %eax
	movl	%eax, 8(%esp)
	movl	96(%edi), %eax
	leal	112(%edi,%eax,2), %eax
	movl	%eax, 4(%esp)
	movl	$2, (%esp)
	call	inflate_table
	movl	%eax, 68(%esp)
.LVL520:
	.loc 1 1011 0
	testl	%eax, %eax
	je	.L265
	.loc 1 1012 0
	movl	160(%esp), %edx
	movl	$.LC12, 24(%edx)
	.loc 1 1013 0
	movl	$29, (%edi)
	.loc 1 1014 0
	movl	$29, %eax
.LVL521:
	jmp	.L378
.LVL522:
.L490:
	.loc 1 849 0
	shrl	$3, 40(%esp)
.LVL523:
	subl	$3, %ebx
.LVL524:
	.loc 1 850 0
	jmp	.L112
.LVL525:
.L486:
	movl	%eax, 44(%esp)
	.loc 1 975 0
	movl	160(%esp), %edi
	movl	$.LC9, 24(%edi)
	.loc 1 976 0
	movl	36(%esp), %eax
.LVL526:
	movl	$29, (%eax)
	.loc 1 977 0
	jmp	.L462
.LVL527:
.L491:
	movl	%eax, 44(%esp)
	.loc 1 952 0
	movl	160(%esp), %esi
	movl	$.LC9, 24(%esi)
	.loc 1 953 0
	movl	36(%esp), %edi
	movl	$29, (%edi)
	.loc 1 954 0
	jmp	.L462
.LVL528:
.L356:
	.loc 1 605 0
	movl	%edi, %esi
	movl	56(%esp), %ecx
	jmp	.L309
	.cfi_endproc
.LFE34:
	.size	inflate, .-inflate
	.p2align 2,,3
	.globl	inflateEnd
	.type	inflateEnd, @function
inflateEnd:
.LFB35:
	.loc 1 1256 0
	.cfi_startproc
.LVL529:
	pushl	%ebx
.LCFI94:
	.cfi_def_cfa_offset 8
	.cfi_offset 3, -8
	subl	$24, %esp
.LCFI95:
	.cfi_def_cfa_offset 32
	movl	32(%esp), %ebx
	.loc 1 1258 0
	testl	%ebx, %ebx
	je	.L498
	.loc 1 1258 0 is_stmt 0 discriminator 1
	movl	28(%ebx), %eax
	testl	%eax, %eax
	je	.L498
	movl	36(%ebx), %edx
	testl	%edx, %edx
	je	.L498
.LVL530:
	.loc 1 1261 0 is_stmt 1
	movl	52(%eax), %ecx
	testl	%ecx, %ecx
	je	.L495
	.loc 1 1261 0 is_stmt 0 discriminator 1
	movl	%ecx, 4(%esp)
	movl	40(%ebx), %eax
	movl	%eax, (%esp)
	call	*%edx
.LVL531:
	movl	36(%ebx), %edx
	movl	28(%ebx), %eax
.L495:
	.loc 1 1262 0 is_stmt 1
	movl	%eax, 4(%esp)
	movl	40(%ebx), %eax
	movl	%eax, (%esp)
	call	*%edx
	.loc 1 1263 0
	movl	$0, 28(%ebx)
	.loc 1 1265 0
	xorl	%eax, %eax
.L494:
	.loc 1 1266 0
	addl	$24, %esp
	.cfi_remember_state
.LCFI96:
	.cfi_def_cfa_offset 8
	popl	%ebx
.LCFI97:
	.cfi_def_cfa_offset 4
	.cfi_restore 3
	ret
	.p2align 2,,3
.L498:
.LCFI98:
	.cfi_restore_state
	.loc 1 1259 0
	movl	$-2, %eax
	jmp	.L494
	.cfi_endproc
.LFE35:
	.size	inflateEnd, .-inflateEnd
	.p2align 2,,3
	.globl	inflateGetDictionary
	.type	inflateGetDictionary, @function
inflateGetDictionary:
.LFB36:
	.loc 1 1272 0
	.cfi_startproc
.LVL532:
	pushl	%edi
.LCFI99:
	.cfi_def_cfa_offset 8
	.cfi_offset 7, -8
	pushl	%esi
.LCFI100:
	.cfi_def_cfa_offset 12
	.cfi_offset 6, -12
	pushl	%ebx
.LCFI101:
	.cfi_def_cfa_offset 16
	.cfi_offset 3, -16
	movl	16(%esp), %edx
	movl	20(%esp), %eax
	movl	24(%esp), %ebx
	.loc 1 1276 0
	testl	%edx, %edx
	je	.L503
	.loc 1 1276 0 is_stmt 0 discriminator 2
	movl	28(%edx), %edx
	testl	%edx, %edx
	je	.L503
.LVL533:
	.loc 1 1280 0 is_stmt 1
	movl	44(%edx), %ecx
	testl	%ecx, %ecx
	jne	.L505
.L501:
	.loc 1 1286 0
	testl	%ebx, %ebx
	je	.L504
	.loc 1 1287 0
	movl	44(%edx), %eax
	movl	%eax, (%ebx)
	.loc 1 1288 0
	xorl	%eax, %eax
.LVL534:
.L500:
	.loc 1 1289 0
	popl	%ebx
	.cfi_remember_state
.LCFI102:
	.cfi_def_cfa_offset 12
	.cfi_restore 3
	popl	%esi
.LCFI103:
	.cfi_def_cfa_offset 8
	.cfi_restore 6
	popl	%edi
.LCFI104:
	.cfi_def_cfa_offset 4
	.cfi_restore 7
	ret
.LVL535:
	.p2align 2,,3
.L505:
.LCFI105:
	.cfi_restore_state
	.loc 1 1280 0 discriminator 1
	testl	%eax, %eax
	je	.L501
	.loc 1 1282 0
	movl	48(%edx), %esi
	.loc 1 1281 0
	subl	%esi, %ecx
	addl	52(%edx), %esi
	movl	%eax, %edi
	rep movsb
	.loc 1 1283 0
	movl	48(%edx), %ecx
	subl	%ecx, %eax
	addl	44(%edx), %eax
	movl	52(%edx), %esi
	movl	%eax, %edi
	rep movsb
	jmp	.L501
	.p2align 2,,3
.L504:
	.loc 1 1288 0
	xorl	%eax, %eax
	jmp	.L500
.LVL536:
	.p2align 2,,3
.L503:
	.loc 1 1276 0
	movl	$-2, %eax
	jmp	.L500
	.cfi_endproc
.LFE36:
	.size	inflateGetDictionary, .-inflateGetDictionary
	.p2align 2,,3
	.globl	inflateSetDictionary
	.type	inflateSetDictionary, @function
inflateSetDictionary:
.LFB37:
	.loc 1 1295 0
	.cfi_startproc
.LVL537:
	pushl	%edi
.LCFI106:
	.cfi_def_cfa_offset 8
	.cfi_offset 7, -8
	pushl	%esi
.LCFI107:
	.cfi_def_cfa_offset 12
	.cfi_offset 6, -12
	pushl	%ebx
.LCFI108:
	.cfi_def_cfa_offset 16
	.cfi_offset 3, -16
	subl	$32, %esp
.LCFI109:
	.cfi_def_cfa_offset 48
	movl	48(%esp), %esi
	movl	52(%esp), %edi
	movl	56(%esp), %ecx
	.loc 1 1301 0
	testl	%esi, %esi
	je	.L514
	.loc 1 1301 0 is_stmt 0 discriminator 2
	movl	28(%esi), %ebx
	testl	%ebx, %ebx
	je	.L514
.LVL538:
	.loc 1 1303 0 is_stmt 1
	movl	8(%ebx), %edx
	testl	%edx, %edx
	jne	.L516
	.loc 1 1307 0
	cmpl	$10, (%ebx)
	je	.L509
.LVL539:
.L510:
	.loc 1 1316 0
	leal	(%edi,%ecx), %edx
	movl	%esi, %eax
	call	updatewindow
.LVL540:
	.loc 1 1317 0
	testl	%eax, %eax
	jne	.L517
	.loc 1 1321 0
	movl	$1, 12(%ebx)
	.loc 1 1323 0
	xorl	%eax, %eax
.LVL541:
.L507:
	.loc 1 1324 0
	addl	$32, %esp
	.cfi_remember_state
.LCFI110:
	.cfi_def_cfa_offset 16
	popl	%ebx
.LCFI111:
	.cfi_def_cfa_offset 12
	.cfi_restore 3
	popl	%esi
.LCFI112:
	.cfi_def_cfa_offset 8
	.cfi_restore 6
	popl	%edi
.LCFI113:
	.cfi_def_cfa_offset 4
	.cfi_restore 7
	ret
.LVL542:
	.p2align 2,,3
.L516:
.LCFI114:
	.cfi_restore_state
	.loc 1 1303 0 discriminator 1
	cmpl	$10, (%ebx)
	jne	.L514
.L509:
	.loc 1 1308 0
	movl	$0, 8(%esp)
	movl	$0, 4(%esp)
	movl	$0, (%esp)
	movl	%ecx, 28(%esp)
	call	adler32
.LVL543:
	.loc 1 1309 0
	movl	28(%esp), %ecx
	movl	%ecx, 8(%esp)
	movl	%edi, 4(%esp)
	movl	%eax, (%esp)
	call	adler32
.LVL544:
	.loc 1 1310 0
	cmpl	%eax, 24(%ebx)
	movl	28(%esp), %ecx
	je	.L510
	.loc 1 1311 0
	movl	$-3, %eax
.LVL545:
	jmp	.L507
.LVL546:
	.p2align 2,,3
.L514:
	.loc 1 1304 0
	movl	$-2, %eax
	jmp	.L507
.LVL547:
	.p2align 2,,3
.L517:
	.loc 1 1318 0
	movl	$30, (%ebx)
	.loc 1 1319 0
	movl	$-4, %eax
.LVL548:
	jmp	.L507
	.cfi_endproc
.LFE37:
	.size	inflateSetDictionary, .-inflateSetDictionary
	.p2align 2,,3
	.globl	inflateGetHeader
	.type	inflateGetHeader, @function
inflateGetHeader:
.LFB38:
	.loc 1 1329 0
	.cfi_startproc
.LVL549:
	movl	4(%esp), %eax
	movl	8(%esp), %edx
	.loc 1 1333 0
	testl	%eax, %eax
	je	.L521
	.loc 1 1333 0 is_stmt 0 discriminator 2
	movl	28(%eax), %eax
	testl	%eax, %eax
	je	.L521
.LVL550:
	.loc 1 1335 0 is_stmt 1
	testb	$2, 8(%eax)
	je	.L522
	.loc 1 1338 0
	movl	%edx, 32(%eax)
	.loc 1 1339 0
	movl	$0, 48(%edx)
	.loc 1 1340 0
	xorl	%eax, %eax
	ret
	.p2align 2,,3
.L522:
	.loc 1 1335 0
	movl	$-2, %eax
	.loc 1 1341 0
	ret
.LVL551:
	.p2align 2,,3
.L521:
	.loc 1 1333 0
	movl	$-2, %eax
	ret
	.cfi_endproc
.LFE38:
	.size	inflateGetHeader, .-inflateGetHeader
	.p2align 2,,3
	.globl	inflateSync
	.type	inflateSync, @function
inflateSync:
.LFB40:
	.loc 1 1379 0
	.cfi_startproc
.LVL552:
	pushl	%ebp
.LCFI115:
	.cfi_def_cfa_offset 8
	.cfi_offset 5, -8
	pushl	%edi
.LCFI116:
	.cfi_def_cfa_offset 12
	.cfi_offset 7, -12
	pushl	%esi
.LCFI117:
	.cfi_def_cfa_offset 16
	.cfi_offset 6, -16
	pushl	%ebx
.LCFI118:
	.cfi_def_cfa_offset 20
	.cfi_offset 3, -20
	subl	$20, %esp
.LCFI119:
	.cfi_def_cfa_offset 40
	movl	40(%esp), %edx
	.loc 1 1386 0
	testl	%edx, %edx
	je	.L542
	.loc 1 1386 0 is_stmt 0 discriminator 2
	movl	28(%edx), %eax
	testl	%eax, %eax
	je	.L542
.LVL553:
	.loc 1 1388 0 is_stmt 1
	movl	4(%edx), %ebp
	testl	%ebp, %ebp
	je	.L556
.L525:
	.loc 1 1391 0
	cmpl	$31, (%eax)
	je	.L557
	.loc 1 1392 0
	movl	$31, (%eax)
	.loc 1 1393 0
	movl	60(%eax), %esi
	movl	%esi, %ecx
	andl	$7, %ecx
	movl	56(%eax), %ebx
	sall	%cl, %ebx
	movl	%ebx, 56(%eax)
	.loc 1 1394 0
	movl	%esi, %edi
	andl	$-8, %edi
	movl	%edi, 60(%eax)
.LVL554:
	.loc 1 1396 0
	cmpl	$7, %edi
	jbe	.L528
	movl	%ebx, %ebp
	leal	16(%esp), %ecx
	.loc 1 1377 0
	subl	$8, %edi
	shrl	$3, %edi
	leal	17(%esp,%edi), %esi
	.loc 1 1397 0
	movb	%bl, (%ecx)
.LVL555:
	.loc 1 1398 0
	shrl	$8, %ebp
	incl	%ecx
	.loc 1 1396 0
	cmpl	%esi, %ecx
	je	.L558
	.p2align 2,,3
.L544:
	movl	%ebp, %ebx
	.loc 1 1397 0
	movb	%bl, (%ecx)
	.loc 1 1398 0
	shrl	$8, %ebp
	incl	%ecx
	.loc 1 1396 0
	cmpl	%esi, %ecx
	jne	.L544
.L558:
	incl	%edi
	movl	%ebp, 56(%eax)
	movl	$0, 60(%eax)
	.loc 1 1401 0
	movl	$0, 104(%eax)
.LVL556:
	xorl	%ecx, %ecx
	xorl	%ebx, %ebx
.LBB50:
.LBB51:
	.loc 1 1370 0
	movl	$4, %ebp
	movl	%eax, (%esp)
	movl	%edx, %esi
	jmp	.L534
.LVL557:
	.p2align 2,,3
.L560:
	movl	%ebp, %eax
	subl	%ecx, %eax
	movl	%eax, %ecx
.LVL558:
.L532:
	.loc 1 1371 0
	incl	%ebx
.LVL559:
	.loc 1 1364 0
	cmpl	%edi, %ebx
	jae	.L554
.L561:
	cmpl	$4, %ecx
	je	.L554
.LVL560:
.L534:
	.loc 1 1365 0
	movb	16(%esp,%ebx), %dl
	cmpl	$2, %ecx
	sbbl	%eax, %eax
	notl	%eax
	cmpb	%al, %dl
	je	.L559
	.loc 1 1367 0
	testb	%dl, %dl
	je	.L560
	.loc 1 1368 0
	xorl	%ecx, %ecx
.LVL561:
	.loc 1 1371 0
	incl	%ebx
.LVL562:
	.loc 1 1364 0
	cmpl	%edi, %ebx
	jb	.L561
.LVL563:
	.p2align 2,,3
.L554:
	movl	(%esp), %eax
	movl	%esi, %edx
.LVL564:
.L533:
	.loc 1 1373 0
	movl	%ecx, 104(%eax)
	movl	4(%edx), %ebp
.LVL565:
.L527:
.LBE51:
.LBE50:
	.loc 1 1406 0
	movl	(%edx), %edi
.LVL566:
.LBB53:
.LBB54:
	.loc 1 1364 0
	xorl	%ebx, %ebx
	testl	%ebp, %ebp
	je	.L535
	cmpl	$3, %ecx
	ja	.L535
	.loc 1 1370 0
	movl	%eax, (%esp)
	movl	%edx, %esi
	jmp	.L539
.LVL567:
	.p2align 2,,3
.L563:
	movl	$4, %eax
	subl	%ecx, %eax
	movl	%eax, %ecx
.LVL568:
.L538:
	.loc 1 1371 0
	incl	%ebx
.LVL569:
	.loc 1 1364 0
	cmpl	%ebp, %ebx
	je	.L555
.L564:
	cmpl	$3, %ecx
	ja	.L555
.LVL570:
.L539:
	.loc 1 1365 0
	movb	(%edi,%ebx), %dl
	cmpl	$2, %ecx
	sbbl	%eax, %eax
	notl	%eax
	cmpb	%al, %dl
	je	.L562
	.loc 1 1367 0
	testb	%dl, %dl
	je	.L563
	.loc 1 1368 0
	xorl	%ecx, %ecx
.LVL571:
	.loc 1 1371 0
	incl	%ebx
.LVL572:
	.loc 1 1364 0
	cmpl	%ebp, %ebx
	jne	.L564
	.p2align 2,,3
.L555:
	movl	(%esp), %eax
	movl	%esi, %edx
.LVL573:
.L535:
	.loc 1 1373 0
	movl	%ecx, 104(%eax)
.LBE54:
.LBE53:
	.loc 1 1407 0
	subl	%ebx, 4(%edx)
	.loc 1 1408 0
	addl	%ebx, %edi
	movl	%edi, (%edx)
	.loc 1 1409 0
	addl	8(%edx), %ebx
	movl	%ebx, 8(%edx)
	.loc 1 1412 0
	cmpl	$4, %ecx
	jne	.L551
.LVL574:
	.loc 1 1413 0
	movl	20(%edx), %esi
.LVL575:
.LBB56:
.LBB57:
	.loc 1 136 0
	movl	$0, 40(%eax)
	.loc 1 137 0
	movl	$0, 44(%eax)
	.loc 1 138 0
	movl	$0, 48(%eax)
.LVL576:
.LBB58:
.LBB59:
	.loc 1 111 0
	movl	$0, 28(%eax)
	movl	$0, 20(%edx)
	movl	$0, 8(%edx)
	.loc 1 112 0
	movl	$0, 24(%edx)
	.loc 1 113 0
	movl	8(%eax), %ecx
.LVL577:
	testl	%ecx, %ecx
	jne	.L565
.L540:
	.loc 1 116 0
	movl	$0, 4(%eax)
	.loc 1 117 0
	movl	$0, 12(%eax)
	.loc 1 118 0
	movl	$32768, 20(%eax)
	.loc 1 119 0
	movl	$0, 32(%eax)
	.loc 1 120 0
	movl	$0, 56(%eax)
	.loc 1 121 0
	movl	$0, 60(%eax)
	.loc 1 122 0
	leal	1328(%eax), %ecx
	movl	%ecx, 108(%eax)
	movl	%ecx, 80(%eax)
	movl	%ecx, 76(%eax)
	.loc 1 123 0
	movl	$1, 7104(%eax)
	.loc 1 124 0
	movl	$-1, 7108(%eax)
.LBE59:
.LBE58:
.LBE57:
.LBE56:
	.loc 1 1415 0
	movl	%ebx, 8(%edx)
	movl	%esi, 20(%edx)
	.loc 1 1416 0
	movl	$11, (%eax)
	.loc 1 1417 0
	xorl	%eax, %eax
.LVL578:
.L524:
	.loc 1 1418 0
	addl	$20, %esp
	.cfi_remember_state
.LCFI120:
	.cfi_def_cfa_offset 20
	popl	%ebx
.LCFI121:
	.cfi_def_cfa_offset 16
	.cfi_restore 3
	popl	%esi
.LCFI122:
	.cfi_def_cfa_offset 12
	.cfi_restore 6
	popl	%edi
.LCFI123:
	.cfi_def_cfa_offset 8
	.cfi_restore 7
	popl	%ebp
.LCFI124:
	.cfi_def_cfa_offset 4
	.cfi_restore 5
	ret
.LVL579:
	.p2align 2,,3
.L559:
.LCFI125:
	.cfi_restore_state
.LBB63:
.LBB52:
	.loc 1 1366 0
	incl	%ecx
.LVL580:
	jmp	.L532
.LVL581:
	.p2align 2,,3
.L562:
.LBE52:
.LBE63:
.LBB64:
.LBB55:
	incl	%ecx
.LVL582:
	jmp	.L538
.LVL583:
	.p2align 2,,3
.L556:
.LBE55:
.LBE64:
	.loc 1 1388 0 discriminator 1
	cmpl	$7, 60(%eax)
	ja	.L525
	.loc 1 1388 0 is_stmt 0
	movl	$-5, %eax
	jmp	.L524
.LVL584:
	.p2align 2,,3
.L565:
.LBB65:
.LBB62:
.LBB61:
.LBB60:
	.loc 1 114 0 is_stmt 1
	andl	$1, %ecx
	movl	%ecx, 48(%edx)
	jmp	.L540
.LVL585:
	.p2align 2,,3
.L557:
.LBE60:
.LBE61:
.LBE62:
.LBE65:
	.loc 1 1391 0
	movl	104(%eax), %ecx
	jmp	.L527
.LVL586:
	.p2align 2,,3
.L551:
	.loc 1 1412 0
	movl	$-3, %eax
	.loc 1 1418 0
	addl	$20, %esp
	.cfi_remember_state
.LCFI126:
	.cfi_def_cfa_offset 20
	popl	%ebx
	.cfi_restore 3
.LCFI127:
	.cfi_def_cfa_offset 16
	popl	%esi
	.cfi_restore 6
.LCFI128:
	.cfi_def_cfa_offset 12
	popl	%edi
	.cfi_restore 7
.LCFI129:
	.cfi_def_cfa_offset 8
	popl	%ebp
	.cfi_restore 5
.LCFI130:
	.cfi_def_cfa_offset 4
.LVL587:
	ret
.LVL588:
	.p2align 2,,3
.L528:
.LCFI131:
	.cfi_restore_state
	.loc 1 1401 0
	movl	$0, 104(%eax)
.LVL589:
	.loc 1 1362 0
	xorl	%ecx, %ecx
	jmp	.L533
.LVL590:
.L542:
	.loc 1 1386 0
	movl	$-2, %eax
	jmp	.L524
	.cfi_endproc
.LFE40:
	.size	inflateSync, .-inflateSync
	.p2align 2,,3
	.globl	inflateSyncPoint
	.type	inflateSyncPoint, @function
inflateSyncPoint:
.LFB41:
	.loc 1 1430 0
	.cfi_startproc
.LVL591:
	movl	4(%esp), %eax
	.loc 1 1433 0
	testl	%eax, %eax
	je	.L569
	.loc 1 1433 0 is_stmt 0 discriminator 2
	movl	28(%eax), %eax
	testl	%eax, %eax
	je	.L569
.LVL592:
	.loc 1 1435 0 is_stmt 1
	cmpl	$13, (%eax)
	je	.L571
	xorl	%eax, %eax
	.loc 1 1436 0
	ret
	.p2align 2,,3
.L571:
	.loc 1 1428 0 discriminator 1
	movl	60(%eax), %ecx
	.loc 1 1433 0 discriminator 1
	xorl	%eax, %eax
	testl	%ecx, %ecx
	sete	%al
	ret
.LVL593:
	.p2align 2,,3
.L569:
	.loc 1 1433 0 is_stmt 0
	movl	$-2, %eax
	ret
	.cfi_endproc
.LFE41:
	.size	inflateSyncPoint, .-inflateSyncPoint
	.p2align 2,,3
	.globl	inflateCopy
	.type	inflateCopy, @function
inflateCopy:
.LFB42:
	.loc 1 1441 0 is_stmt 1
	.cfi_startproc
.LVL594:
	pushl	%ebp
.LCFI132:
	.cfi_def_cfa_offset 8
	.cfi_offset 5, -8
	pushl	%edi
.LCFI133:
	.cfi_def_cfa_offset 12
	.cfi_offset 7, -12
	pushl	%esi
.LCFI134:
	.cfi_def_cfa_offset 16
	.cfi_offset 6, -16
	pushl	%ebx
.LCFI135:
	.cfi_def_cfa_offset 20
	.cfi_offset 3, -20
	subl	$28, %esp
.LCFI136:
	.cfi_def_cfa_offset 48
	movl	52(%esp), %esi
	.loc 1 1448 0
	movl	48(%esp), %eax
	testl	%eax, %eax
	je	.L583
	.loc 1 1448 0 is_stmt 0 discriminator 1
	testl	%esi, %esi
	je	.L583
	movl	28(%esi), %ebx
	testl	%ebx, %ebx
	je	.L583
	.loc 1 1449 0 is_stmt 1 discriminator 1
	movl	32(%esi), %eax
	.loc 1 1448 0 discriminator 1
	testl	%eax, %eax
	je	.L583
	.loc 1 1449 0
	movl	36(%esi), %ebp
	testl	%ebp, %ebp
	je	.L583
.LVL595:
	.loc 1 1454 0
	movl	$7116, 8(%esp)
	movl	$1, 4(%esp)
	movl	40(%esi), %edx
	movl	%edx, (%esp)
	call	*%eax
.LVL596:
	movl	%eax, %ebp
.LVL597:
	.loc 1 1456 0
	testl	%eax, %eax
	je	.L584
.LVL598:
	.loc 1 1458 0
	movl	52(%ebx), %edi
	testl	%edi, %edi
	je	.L585
	.loc 1 1459 0
	movl	$1, 8(%esp)
	.loc 1 1460 0
	movl	36(%ebx), %ecx
	movl	$1, %eax
.LVL599:
	sall	%cl, %eax
	.loc 1 1459 0
	movl	%eax, 4(%esp)
	movl	40(%esi), %eax
	movl	%eax, (%esp)
	call	*32(%esi)
.LVL600:
	.loc 1 1461 0
	testl	%eax, %eax
	je	.L586
.LVL601:
.L574:
	.loc 1 1468 0
	movl	$14, %ecx
	movl	48(%esp), %edi
	rep movsl
	.loc 1 1469 0
	movw	$1779, %cx
	movl	%ebp, %edi
	movl	%ebx, %esi
	rep movsl
	.loc 1 1470 0
	movl	76(%ebx), %edx
	leal	1328(%ebx), %ecx
	cmpl	%ecx, %edx
	jae	.L587
.L576:
	.loc 1 1475 0
	movl	108(%ebx), %edx
	subl	%ecx, %edx
	sarl	$2, %edx
	leal	1328(%ebp,%edx,4), %edx
	movl	%edx, 108(%ebp)
	.loc 1 1476 0
	testl	%eax, %eax
	je	.L578
.LVL602:
	.loc 1 1477 0
	movl	36(%ebx), %ecx
	movl	$1, %edx
	sall	%cl, %edx
	.loc 1 1478 0
	movl	52(%ebx), %esi
	movl	%eax, %edi
	movl	%edx, %ecx
	rep movsb
.LVL603:
.L578:
	.loc 1 1480 0
	movl	%eax, 52(%ebp)
	.loc 1 1481 0
	movl	48(%esp), %eax
.LVL604:
	movl	%ebp, 28(%eax)
	.loc 1 1482 0
	xorl	%eax, %eax
.LVL605:
.L573:
	.loc 1 1483 0
	addl	$28, %esp
	.cfi_remember_state
.LCFI137:
	.cfi_def_cfa_offset 20
	popl	%ebx
.LCFI138:
	.cfi_def_cfa_offset 16
	.cfi_restore 3
	popl	%esi
.LCFI139:
	.cfi_def_cfa_offset 12
	.cfi_restore 6
	popl	%edi
.LCFI140:
	.cfi_def_cfa_offset 8
	.cfi_restore 7
	popl	%ebp
.LCFI141:
	.cfi_def_cfa_offset 4
	.cfi_restore 5
	ret
.LVL606:
	.p2align 2,,3
.L587:
.LCFI142:
	.cfi_restore_state
	.loc 1 1471 0 discriminator 1
	leal	7100(%ebx), %esi
	.loc 1 1470 0 discriminator 1
	cmpl	%esi, %edx
	ja	.L576
	.loc 1 1472 0
	subl	%ecx, %edx
	sarl	$2, %edx
	leal	1328(%ebp,%edx,4), %edx
	movl	%edx, 76(%ebp)
	.loc 1 1473 0
	movl	80(%ebx), %edx
	subl	%ecx, %edx
	sarl	$2, %edx
	leal	1328(%ebp,%edx,4), %edx
	movl	%edx, 80(%ebp)
	jmp	.L576
.LVL607:
	.p2align 2,,3
.L585:
	.loc 1 1457 0
	xorl	%eax, %eax
	jmp	.L574
.LVL608:
	.p2align 2,,3
.L583:
	.loc 1 1450 0
	movl	$-2, %eax
	jmp	.L573
.LVL609:
.L584:
	.loc 1 1456 0
	movl	$-4, %eax
.LVL610:
	jmp	.L573
.LVL611:
.L586:
	.loc 1 1462 0
	movl	%ebp, 4(%esp)
	movl	40(%esi), %eax
.LVL612:
	movl	%eax, (%esp)
	call	*36(%esi)
	.loc 1 1463 0
	movl	$-4, %eax
	jmp	.L573
	.cfi_endproc
.LFE42:
	.size	inflateCopy, .-inflateCopy
	.p2align 2,,3
	.globl	inflateUndermine
	.type	inflateUndermine, @function
inflateUndermine:
.LFB43:
	.loc 1 1488 0
	.cfi_startproc
.LVL613:
	movl	4(%esp), %eax
	.loc 1 1491 0
	testl	%eax, %eax
	je	.L590
	.loc 1 1491 0 is_stmt 0 discriminator 2
	movl	28(%eax), %eax
	testl	%eax, %eax
	je	.L591
.LVL614:
	.loc 1 1497 0 is_stmt 1
	movl	$1, 7104(%eax)
	.loc 1 1498 0
	movl	$-3, %eax
	ret
.LVL615:
	.p2align 2,,3
.L590:
	.loc 1 1491 0
	movl	$-2, %eax
	ret
	.p2align 2,,3
.L591:
	movl	$-2, %eax
	.loc 1 1500 0
	ret
	.cfi_endproc
.LFE43:
	.size	inflateUndermine, .-inflateUndermine
	.p2align 2,,3
	.globl	inflateMark
	.type	inflateMark, @function
inflateMark:
.LFB44:
	.loc 1 1504 0
	.cfi_startproc
.LVL616:
	movl	4(%esp), %eax
	.loc 1 1507 0
	testl	%eax, %eax
	je	.L596
	.loc 1 1507 0 is_stmt 0 discriminator 2
	movl	28(%eax), %edx
	testl	%edx, %edx
	je	.L597
.LVL617:
	.loc 1 1509 0 is_stmt 1
	movl	7108(%edx), %eax
	sall	$16, %eax
	.loc 1 1510 0
	movl	(%edx), %ecx
	.loc 1 1509 0
	cmpl	$15, %ecx
	je	.L599
	.loc 1 1509 0 is_stmt 0 discriminator 2
	cmpl	$24, %ecx
	je	.L600
	.loc 1 1509 0
	xorl	%ecx, %ecx
	addl	%ecx, %eax
	ret
	.p2align 2,,3
.L599:
	.loc 1 1509 0 discriminator 1
	movl	64(%edx), %ecx
	addl	%ecx, %eax
	ret
	.p2align 2,,3
.L600:
	.loc 1 1509 0
	movl	7112(%edx), %ecx
	subl	64(%edx), %ecx
	addl	%ecx, %eax
	ret
.LVL618:
.L596:
	.loc 1 1507 0 is_stmt 1
	movl	$-65536, %eax
	ret
.L597:
	movl	$-65536, %eax
	.loc 1 1512 0
	ret
	.cfi_endproc
.LFE44:
	.size	inflateMark, .-inflateMark
	.section	.rodata
	.align 32
	.type	lenfix.2516, @object
	.size	lenfix.2516, 2048
lenfix.2516:
	.byte	96
	.byte	7
	.value	0
	.byte	0
	.byte	8
	.value	80
	.byte	0
	.byte	8
	.value	16
	.byte	20
	.byte	8
	.value	115
	.byte	18
	.byte	7
	.value	31
	.byte	0
	.byte	8
	.value	112
	.byte	0
	.byte	8
	.value	48
	.byte	0
	.byte	9
	.value	192
	.byte	16
	.byte	7
	.value	10
	.byte	0
	.byte	8
	.value	96
	.byte	0
	.byte	8
	.value	32
	.byte	0
	.byte	9
	.value	160
	.byte	0
	.byte	8
	.value	0
	.byte	0
	.byte	8
	.value	128
	.byte	0
	.byte	8
	.value	64
	.byte	0
	.byte	9
	.value	224
	.byte	16
	.byte	7
	.value	6
	.byte	0
	.byte	8
	.value	88
	.byte	0
	.byte	8
	.value	24
	.byte	0
	.byte	9
	.value	144
	.byte	19
	.byte	7
	.value	59
	.byte	0
	.byte	8
	.value	120
	.byte	0
	.byte	8
	.value	56
	.byte	0
	.byte	9
	.value	208
	.byte	17
	.byte	7
	.value	17
	.byte	0
	.byte	8
	.value	104
	.byte	0
	.byte	8
	.value	40
	.byte	0
	.byte	9
	.value	176
	.byte	0
	.byte	8
	.value	8
	.byte	0
	.byte	8
	.value	136
	.byte	0
	.byte	8
	.value	72
	.byte	0
	.byte	9
	.value	240
	.byte	16
	.byte	7
	.value	4
	.byte	0
	.byte	8
	.value	84
	.byte	0
	.byte	8
	.value	20
	.byte	21
	.byte	8
	.value	227
	.byte	19
	.byte	7
	.value	43
	.byte	0
	.byte	8
	.value	116
	.byte	0
	.byte	8
	.value	52
	.byte	0
	.byte	9
	.value	200
	.byte	17
	.byte	7
	.value	13
	.byte	0
	.byte	8
	.value	100
	.byte	0
	.byte	8
	.value	36
	.byte	0
	.byte	9
	.value	168
	.byte	0
	.byte	8
	.value	4
	.byte	0
	.byte	8
	.value	132
	.byte	0
	.byte	8
	.value	68
	.byte	0
	.byte	9
	.value	232
	.byte	16
	.byte	7
	.value	8
	.byte	0
	.byte	8
	.value	92
	.byte	0
	.byte	8
	.value	28
	.byte	0
	.byte	9
	.value	152
	.byte	20
	.byte	7
	.value	83
	.byte	0
	.byte	8
	.value	124
	.byte	0
	.byte	8
	.value	60
	.byte	0
	.byte	9
	.value	216
	.byte	18
	.byte	7
	.value	23
	.byte	0
	.byte	8
	.value	108
	.byte	0
	.byte	8
	.value	44
	.byte	0
	.byte	9
	.value	184
	.byte	0
	.byte	8
	.value	12
	.byte	0
	.byte	8
	.value	140
	.byte	0
	.byte	8
	.value	76
	.byte	0
	.byte	9
	.value	248
	.byte	16
	.byte	7
	.value	3
	.byte	0
	.byte	8
	.value	82
	.byte	0
	.byte	8
	.value	18
	.byte	21
	.byte	8
	.value	163
	.byte	19
	.byte	7
	.value	35
	.byte	0
	.byte	8
	.value	114
	.byte	0
	.byte	8
	.value	50
	.byte	0
	.byte	9
	.value	196
	.byte	17
	.byte	7
	.value	11
	.byte	0
	.byte	8
	.value	98
	.byte	0
	.byte	8
	.value	34
	.byte	0
	.byte	9
	.value	164
	.byte	0
	.byte	8
	.value	2
	.byte	0
	.byte	8
	.value	130
	.byte	0
	.byte	8
	.value	66
	.byte	0
	.byte	9
	.value	228
	.byte	16
	.byte	7
	.value	7
	.byte	0
	.byte	8
	.value	90
	.byte	0
	.byte	8
	.value	26
	.byte	0
	.byte	9
	.value	148
	.byte	20
	.byte	7
	.value	67
	.byte	0
	.byte	8
	.value	122
	.byte	0
	.byte	8
	.value	58
	.byte	0
	.byte	9
	.value	212
	.byte	18
	.byte	7
	.value	19
	.byte	0
	.byte	8
	.value	106
	.byte	0
	.byte	8
	.value	42
	.byte	0
	.byte	9
	.value	180
	.byte	0
	.byte	8
	.value	10
	.byte	0
	.byte	8
	.value	138
	.byte	0
	.byte	8
	.value	74
	.byte	0
	.byte	9
	.value	244
	.byte	16
	.byte	7
	.value	5
	.byte	0
	.byte	8
	.value	86
	.byte	0
	.byte	8
	.value	22
	.byte	64
	.byte	8
	.value	0
	.byte	19
	.byte	7
	.value	51
	.byte	0
	.byte	8
	.value	118
	.byte	0
	.byte	8
	.value	54
	.byte	0
	.byte	9
	.value	204
	.byte	17
	.byte	7
	.value	15
	.byte	0
	.byte	8
	.value	102
	.byte	0
	.byte	8
	.value	38
	.byte	0
	.byte	9
	.value	172
	.byte	0
	.byte	8
	.value	6
	.byte	0
	.byte	8
	.value	134
	.byte	0
	.byte	8
	.value	70
	.byte	0
	.byte	9
	.value	236
	.byte	16
	.byte	7
	.value	9
	.byte	0
	.byte	8
	.value	94
	.byte	0
	.byte	8
	.value	30
	.byte	0
	.byte	9
	.value	156
	.byte	20
	.byte	7
	.value	99
	.byte	0
	.byte	8
	.value	126
	.byte	0
	.byte	8
	.value	62
	.byte	0
	.byte	9
	.value	220
	.byte	18
	.byte	7
	.value	27
	.byte	0
	.byte	8
	.value	110
	.byte	0
	.byte	8
	.value	46
	.byte	0
	.byte	9
	.value	188
	.byte	0
	.byte	8
	.value	14
	.byte	0
	.byte	8
	.value	142
	.byte	0
	.byte	8
	.value	78
	.byte	0
	.byte	9
	.value	252
	.byte	96
	.byte	7
	.value	0
	.byte	0
	.byte	8
	.value	81
	.byte	0
	.byte	8
	.value	17
	.byte	21
	.byte	8
	.value	131
	.byte	18
	.byte	7
	.value	31
	.byte	0
	.byte	8
	.value	113
	.byte	0
	.byte	8
	.value	49
	.byte	0
	.byte	9
	.value	194
	.byte	16
	.byte	7
	.value	10
	.byte	0
	.byte	8
	.value	97
	.byte	0
	.byte	8
	.value	33
	.byte	0
	.byte	9
	.value	162
	.byte	0
	.byte	8
	.value	1
	.byte	0
	.byte	8
	.value	129
	.byte	0
	.byte	8
	.value	65
	.byte	0
	.byte	9
	.value	226
	.byte	16
	.byte	7
	.value	6
	.byte	0
	.byte	8
	.value	89
	.byte	0
	.byte	8
	.value	25
	.byte	0
	.byte	9
	.value	146
	.byte	19
	.byte	7
	.value	59
	.byte	0
	.byte	8
	.value	121
	.byte	0
	.byte	8
	.value	57
	.byte	0
	.byte	9
	.value	210
	.byte	17
	.byte	7
	.value	17
	.byte	0
	.byte	8
	.value	105
	.byte	0
	.byte	8
	.value	41
	.byte	0
	.byte	9
	.value	178
	.byte	0
	.byte	8
	.value	9
	.byte	0
	.byte	8
	.value	137
	.byte	0
	.byte	8
	.value	73
	.byte	0
	.byte	9
	.value	242
	.byte	16
	.byte	7
	.value	4
	.byte	0
	.byte	8
	.value	85
	.byte	0
	.byte	8
	.value	21
	.byte	16
	.byte	8
	.value	258
	.byte	19
	.byte	7
	.value	43
	.byte	0
	.byte	8
	.value	117
	.byte	0
	.byte	8
	.value	53
	.byte	0
	.byte	9
	.value	202
	.byte	17
	.byte	7
	.value	13
	.byte	0
	.byte	8
	.value	101
	.byte	0
	.byte	8
	.value	37
	.byte	0
	.byte	9
	.value	170
	.byte	0
	.byte	8
	.value	5
	.byte	0
	.byte	8
	.value	133
	.byte	0
	.byte	8
	.value	69
	.byte	0
	.byte	9
	.value	234
	.byte	16
	.byte	7
	.value	8
	.byte	0
	.byte	8
	.value	93
	.byte	0
	.byte	8
	.value	29
	.byte	0
	.byte	9
	.value	154
	.byte	20
	.byte	7
	.value	83
	.byte	0
	.byte	8
	.value	125
	.byte	0
	.byte	8
	.value	61
	.byte	0
	.byte	9
	.value	218
	.byte	18
	.byte	7
	.value	23
	.byte	0
	.byte	8
	.value	109
	.byte	0
	.byte	8
	.value	45
	.byte	0
	.byte	9
	.value	186
	.byte	0
	.byte	8
	.value	13
	.byte	0
	.byte	8
	.value	141
	.byte	0
	.byte	8
	.value	77
	.byte	0
	.byte	9
	.value	250
	.byte	16
	.byte	7
	.value	3
	.byte	0
	.byte	8
	.value	83
	.byte	0
	.byte	8
	.value	19
	.byte	21
	.byte	8
	.value	195
	.byte	19
	.byte	7
	.value	35
	.byte	0
	.byte	8
	.value	115
	.byte	0
	.byte	8
	.value	51
	.byte	0
	.byte	9
	.value	198
	.byte	17
	.byte	7
	.value	11
	.byte	0
	.byte	8
	.value	99
	.byte	0
	.byte	8
	.value	35
	.byte	0
	.byte	9
	.value	166
	.byte	0
	.byte	8
	.value	3
	.byte	0
	.byte	8
	.value	131
	.byte	0
	.byte	8
	.value	67
	.byte	0
	.byte	9
	.value	230
	.byte	16
	.byte	7
	.value	7
	.byte	0
	.byte	8
	.value	91
	.byte	0
	.byte	8
	.value	27
	.byte	0
	.byte	9
	.value	150
	.byte	20
	.byte	7
	.value	67
	.byte	0
	.byte	8
	.value	123
	.byte	0
	.byte	8
	.value	59
	.byte	0
	.byte	9
	.value	214
	.byte	18
	.byte	7
	.value	19
	.byte	0
	.byte	8
	.value	107
	.byte	0
	.byte	8
	.value	43
	.byte	0
	.byte	9
	.value	182
	.byte	0
	.byte	8
	.value	11
	.byte	0
	.byte	8
	.value	139
	.byte	0
	.byte	8
	.value	75
	.byte	0
	.byte	9
	.value	246
	.byte	16
	.byte	7
	.value	5
	.byte	0
	.byte	8
	.value	87
	.byte	0
	.byte	8
	.value	23
	.byte	64
	.byte	8
	.value	0
	.byte	19
	.byte	7
	.value	51
	.byte	0
	.byte	8
	.value	119
	.byte	0
	.byte	8
	.value	55
	.byte	0
	.byte	9
	.value	206
	.byte	17
	.byte	7
	.value	15
	.byte	0
	.byte	8
	.value	103
	.byte	0
	.byte	8
	.value	39
	.byte	0
	.byte	9
	.value	174
	.byte	0
	.byte	8
	.value	7
	.byte	0
	.byte	8
	.value	135
	.byte	0
	.byte	8
	.value	71
	.byte	0
	.byte	9
	.value	238
	.byte	16
	.byte	7
	.value	9
	.byte	0
	.byte	8
	.value	95
	.byte	0
	.byte	8
	.value	31
	.byte	0
	.byte	9
	.value	158
	.byte	20
	.byte	7
	.value	99
	.byte	0
	.byte	8
	.value	127
	.byte	0
	.byte	8
	.value	63
	.byte	0
	.byte	9
	.value	222
	.byte	18
	.byte	7
	.value	27
	.byte	0
	.byte	8
	.value	111
	.byte	0
	.byte	8
	.value	47
	.byte	0
	.byte	9
	.value	190
	.byte	0
	.byte	8
	.value	15
	.byte	0
	.byte	8
	.value	143
	.byte	0
	.byte	8
	.value	79
	.byte	0
	.byte	9
	.value	254
	.byte	96
	.byte	7
	.value	0
	.byte	0
	.byte	8
	.value	80
	.byte	0
	.byte	8
	.value	16
	.byte	20
	.byte	8
	.value	115
	.byte	18
	.byte	7
	.value	31
	.byte	0
	.byte	8
	.value	112
	.byte	0
	.byte	8
	.value	48
	.byte	0
	.byte	9
	.value	193
	.byte	16
	.byte	7
	.value	10
	.byte	0
	.byte	8
	.value	96
	.byte	0
	.byte	8
	.value	32
	.byte	0
	.byte	9
	.value	161
	.byte	0
	.byte	8
	.value	0
	.byte	0
	.byte	8
	.value	128
	.byte	0
	.byte	8
	.value	64
	.byte	0
	.byte	9
	.value	225
	.byte	16
	.byte	7
	.value	6
	.byte	0
	.byte	8
	.value	88
	.byte	0
	.byte	8
	.value	24
	.byte	0
	.byte	9
	.value	145
	.byte	19
	.byte	7
	.value	59
	.byte	0
	.byte	8
	.value	120
	.byte	0
	.byte	8
	.value	56
	.byte	0
	.byte	9
	.value	209
	.byte	17
	.byte	7
	.value	17
	.byte	0
	.byte	8
	.value	104
	.byte	0
	.byte	8
	.value	40
	.byte	0
	.byte	9
	.value	177
	.byte	0
	.byte	8
	.value	8
	.byte	0
	.byte	8
	.value	136
	.byte	0
	.byte	8
	.value	72
	.byte	0
	.byte	9
	.value	241
	.byte	16
	.byte	7
	.value	4
	.byte	0
	.byte	8
	.value	84
	.byte	0
	.byte	8
	.value	20
	.byte	21
	.byte	8
	.value	227
	.byte	19
	.byte	7
	.value	43
	.byte	0
	.byte	8
	.value	116
	.byte	0
	.byte	8
	.value	52
	.byte	0
	.byte	9
	.value	201
	.byte	17
	.byte	7
	.value	13
	.byte	0
	.byte	8
	.value	100
	.byte	0
	.byte	8
	.value	36
	.byte	0
	.byte	9
	.value	169
	.byte	0
	.byte	8
	.value	4
	.byte	0
	.byte	8
	.value	132
	.byte	0
	.byte	8
	.value	68
	.byte	0
	.byte	9
	.value	233
	.byte	16
	.byte	7
	.value	8
	.byte	0
	.byte	8
	.value	92
	.byte	0
	.byte	8
	.value	28
	.byte	0
	.byte	9
	.value	153
	.byte	20
	.byte	7
	.value	83
	.byte	0
	.byte	8
	.value	124
	.byte	0
	.byte	8
	.value	60
	.byte	0
	.byte	9
	.value	217
	.byte	18
	.byte	7
	.value	23
	.byte	0
	.byte	8
	.value	108
	.byte	0
	.byte	8
	.value	44
	.byte	0
	.byte	9
	.value	185
	.byte	0
	.byte	8
	.value	12
	.byte	0
	.byte	8
	.value	140
	.byte	0
	.byte	8
	.value	76
	.byte	0
	.byte	9
	.value	249
	.byte	16
	.byte	7
	.value	3
	.byte	0
	.byte	8
	.value	82
	.byte	0
	.byte	8
	.value	18
	.byte	21
	.byte	8
	.value	163
	.byte	19
	.byte	7
	.value	35
	.byte	0
	.byte	8
	.value	114
	.byte	0
	.byte	8
	.value	50
	.byte	0
	.byte	9
	.value	197
	.byte	17
	.byte	7
	.value	11
	.byte	0
	.byte	8
	.value	98
	.byte	0
	.byte	8
	.value	34
	.byte	0
	.byte	9
	.value	165
	.byte	0
	.byte	8
	.value	2
	.byte	0
	.byte	8
	.value	130
	.byte	0
	.byte	8
	.value	66
	.byte	0
	.byte	9
	.value	229
	.byte	16
	.byte	7
	.value	7
	.byte	0
	.byte	8
	.value	90
	.byte	0
	.byte	8
	.value	26
	.byte	0
	.byte	9
	.value	149
	.byte	20
	.byte	7
	.value	67
	.byte	0
	.byte	8
	.value	122
	.byte	0
	.byte	8
	.value	58
	.byte	0
	.byte	9
	.value	213
	.byte	18
	.byte	7
	.value	19
	.byte	0
	.byte	8
	.value	106
	.byte	0
	.byte	8
	.value	42
	.byte	0
	.byte	9
	.value	181
	.byte	0
	.byte	8
	.value	10
	.byte	0
	.byte	8
	.value	138
	.byte	0
	.byte	8
	.value	74
	.byte	0
	.byte	9
	.value	245
	.byte	16
	.byte	7
	.value	5
	.byte	0
	.byte	8
	.value	86
	.byte	0
	.byte	8
	.value	22
	.byte	64
	.byte	8
	.value	0
	.byte	19
	.byte	7
	.value	51
	.byte	0
	.byte	8
	.value	118
	.byte	0
	.byte	8
	.value	54
	.byte	0
	.byte	9
	.value	205
	.byte	17
	.byte	7
	.value	15
	.byte	0
	.byte	8
	.value	102
	.byte	0
	.byte	8
	.value	38
	.byte	0
	.byte	9
	.value	173
	.byte	0
	.byte	8
	.value	6
	.byte	0
	.byte	8
	.value	134
	.byte	0
	.byte	8
	.value	70
	.byte	0
	.byte	9
	.value	237
	.byte	16
	.byte	7
	.value	9
	.byte	0
	.byte	8
	.value	94
	.byte	0
	.byte	8
	.value	30
	.byte	0
	.byte	9
	.value	157
	.byte	20
	.byte	7
	.value	99
	.byte	0
	.byte	8
	.value	126
	.byte	0
	.byte	8
	.value	62
	.byte	0
	.byte	9
	.value	221
	.byte	18
	.byte	7
	.value	27
	.byte	0
	.byte	8
	.value	110
	.byte	0
	.byte	8
	.value	46
	.byte	0
	.byte	9
	.value	189
	.byte	0
	.byte	8
	.value	14
	.byte	0
	.byte	8
	.value	142
	.byte	0
	.byte	8
	.value	78
	.byte	0
	.byte	9
	.value	253
	.byte	96
	.byte	7
	.value	0
	.byte	0
	.byte	8
	.value	81
	.byte	0
	.byte	8
	.value	17
	.byte	21
	.byte	8
	.value	131
	.byte	18
	.byte	7
	.value	31
	.byte	0
	.byte	8
	.value	113
	.byte	0
	.byte	8
	.value	49
	.byte	0
	.byte	9
	.value	195
	.byte	16
	.byte	7
	.value	10
	.byte	0
	.byte	8
	.value	97
	.byte	0
	.byte	8
	.value	33
	.byte	0
	.byte	9
	.value	163
	.byte	0
	.byte	8
	.value	1
	.byte	0
	.byte	8
	.value	129
	.byte	0
	.byte	8
	.value	65
	.byte	0
	.byte	9
	.value	227
	.byte	16
	.byte	7
	.value	6
	.byte	0
	.byte	8
	.value	89
	.byte	0
	.byte	8
	.value	25
	.byte	0
	.byte	9
	.value	147
	.byte	19
	.byte	7
	.value	59
	.byte	0
	.byte	8
	.value	121
	.byte	0
	.byte	8
	.value	57
	.byte	0
	.byte	9
	.value	211
	.byte	17
	.byte	7
	.value	17
	.byte	0
	.byte	8
	.value	105
	.byte	0
	.byte	8
	.value	41
	.byte	0
	.byte	9
	.value	179
	.byte	0
	.byte	8
	.value	9
	.byte	0
	.byte	8
	.value	137
	.byte	0
	.byte	8
	.value	73
	.byte	0
	.byte	9
	.value	243
	.byte	16
	.byte	7
	.value	4
	.byte	0
	.byte	8
	.value	85
	.byte	0
	.byte	8
	.value	21
	.byte	16
	.byte	8
	.value	258
	.byte	19
	.byte	7
	.value	43
	.byte	0
	.byte	8
	.value	117
	.byte	0
	.byte	8
	.value	53
	.byte	0
	.byte	9
	.value	203
	.byte	17
	.byte	7
	.value	13
	.byte	0
	.byte	8
	.value	101
	.byte	0
	.byte	8
	.value	37
	.byte	0
	.byte	9
	.value	171
	.byte	0
	.byte	8
	.value	5
	.byte	0
	.byte	8
	.value	133
	.byte	0
	.byte	8
	.value	69
	.byte	0
	.byte	9
	.value	235
	.byte	16
	.byte	7
	.value	8
	.byte	0
	.byte	8
	.value	93
	.byte	0
	.byte	8
	.value	29
	.byte	0
	.byte	9
	.value	155
	.byte	20
	.byte	7
	.value	83
	.byte	0
	.byte	8
	.value	125
	.byte	0
	.byte	8
	.value	61
	.byte	0
	.byte	9
	.value	219
	.byte	18
	.byte	7
	.value	23
	.byte	0
	.byte	8
	.value	109
	.byte	0
	.byte	8
	.value	45
	.byte	0
	.byte	9
	.value	187
	.byte	0
	.byte	8
	.value	13
	.byte	0
	.byte	8
	.value	141
	.byte	0
	.byte	8
	.value	77
	.byte	0
	.byte	9
	.value	251
	.byte	16
	.byte	7
	.value	3
	.byte	0
	.byte	8
	.value	83
	.byte	0
	.byte	8
	.value	19
	.byte	21
	.byte	8
	.value	195
	.byte	19
	.byte	7
	.value	35
	.byte	0
	.byte	8
	.value	115
	.byte	0
	.byte	8
	.value	51
	.byte	0
	.byte	9
	.value	199
	.byte	17
	.byte	7
	.value	11
	.byte	0
	.byte	8
	.value	99
	.byte	0
	.byte	8
	.value	35
	.byte	0
	.byte	9
	.value	167
	.byte	0
	.byte	8
	.value	3
	.byte	0
	.byte	8
	.value	131
	.byte	0
	.byte	8
	.value	67
	.byte	0
	.byte	9
	.value	231
	.byte	16
	.byte	7
	.value	7
	.byte	0
	.byte	8
	.value	91
	.byte	0
	.byte	8
	.value	27
	.byte	0
	.byte	9
	.value	151
	.byte	20
	.byte	7
	.value	67
	.byte	0
	.byte	8
	.value	123
	.byte	0
	.byte	8
	.value	59
	.byte	0
	.byte	9
	.value	215
	.byte	18
	.byte	7
	.value	19
	.byte	0
	.byte	8
	.value	107
	.byte	0
	.byte	8
	.value	43
	.byte	0
	.byte	9
	.value	183
	.byte	0
	.byte	8
	.value	11
	.byte	0
	.byte	8
	.value	139
	.byte	0
	.byte	8
	.value	75
	.byte	0
	.byte	9
	.value	247
	.byte	16
	.byte	7
	.value	5
	.byte	0
	.byte	8
	.value	87
	.byte	0
	.byte	8
	.value	23
	.byte	64
	.byte	8
	.value	0
	.byte	19
	.byte	7
	.value	51
	.byte	0
	.byte	8
	.value	119
	.byte	0
	.byte	8
	.value	55
	.byte	0
	.byte	9
	.value	207
	.byte	17
	.byte	7
	.value	15
	.byte	0
	.byte	8
	.value	103
	.byte	0
	.byte	8
	.value	39
	.byte	0
	.byte	9
	.value	175
	.byte	0
	.byte	8
	.value	7
	.byte	0
	.byte	8
	.value	135
	.byte	0
	.byte	8
	.value	71
	.byte	0
	.byte	9
	.value	239
	.byte	16
	.byte	7
	.value	9
	.byte	0
	.byte	8
	.value	95
	.byte	0
	.byte	8
	.value	31
	.byte	0
	.byte	9
	.value	159
	.byte	20
	.byte	7
	.value	99
	.byte	0
	.byte	8
	.value	127
	.byte	0
	.byte	8
	.value	63
	.byte	0
	.byte	9
	.value	223
	.byte	18
	.byte	7
	.value	27
	.byte	0
	.byte	8
	.value	111
	.byte	0
	.byte	8
	.value	47
	.byte	0
	.byte	9
	.value	191
	.byte	0
	.byte	8
	.value	15
	.byte	0
	.byte	8
	.value	143
	.byte	0
	.byte	8
	.value	79
	.byte	0
	.byte	9
	.value	255
	.align 32
	.type	distfix.2517, @object
	.size	distfix.2517, 128
distfix.2517:
	.byte	16
	.byte	5
	.value	1
	.byte	23
	.byte	5
	.value	257
	.byte	19
	.byte	5
	.value	17
	.byte	27
	.byte	5
	.value	4097
	.byte	17
	.byte	5
	.value	5
	.byte	25
	.byte	5
	.value	1025
	.byte	21
	.byte	5
	.value	65
	.byte	29
	.byte	5
	.value	16385
	.byte	16
	.byte	5
	.value	3
	.byte	24
	.byte	5
	.value	513
	.byte	20
	.byte	5
	.value	33
	.byte	28
	.byte	5
	.value	8193
	.byte	18
	.byte	5
	.value	9
	.byte	26
	.byte	5
	.value	2049
	.byte	22
	.byte	5
	.value	129
	.byte	64
	.byte	5
	.value	0
	.byte	16
	.byte	5
	.value	2
	.byte	23
	.byte	5
	.value	385
	.byte	19
	.byte	5
	.value	25
	.byte	27
	.byte	5
	.value	6145
	.byte	17
	.byte	5
	.value	7
	.byte	25
	.byte	5
	.value	1537
	.byte	21
	.byte	5
	.value	97
	.byte	29
	.byte	5
	.value	24577
	.byte	16
	.byte	5
	.value	4
	.byte	24
	.byte	5
	.value	769
	.byte	20
	.byte	5
	.value	49
	.byte	28
	.byte	5
	.value	12289
	.byte	18
	.byte	5
	.value	13
	.byte	26
	.byte	5
	.value	3073
	.byte	22
	.byte	5
	.value	193
	.byte	64
	.byte	5
	.value	0
	.align 32
	.type	order.2545, @object
	.size	order.2545, 38
order.2545:
	.value	16
	.value	17
	.value	18
	.value	0
	.value	8
	.value	7
	.value	9
	.value	6
	.value	10
	.value	5
	.value	11
	.value	4
	.value	12
	.value	3
	.value	13
	.value	2
	.value	14
	.value	1
	.value	15
	.text
.Letext0:
	.file 2 "zconf.h"
	.file 3 "zlib.h"
	.file 4 "inftrees.h"
	.file 5 "inflate.h"
	.file 6 "inffixed.h"
	.file 7 "/home/anton/workspace/embox-trunk/./src/include/../util/dlist_debug.h"
	.section	.note.GNU-stack,"",@progbits
