	.file	"inftrees.c"
	.text
.Ltext0:
	.p2align 2,,3
	.globl	inflate_table
	.hidden	inflate_table
	.type	inflate_table, @function
inflate_table:
.LFB25:
	.file 1 "inftrees.c"
	.loc 1 39 0
	.cfi_startproc
.LVL0:
	pushl	%ebp
.LCFI0:
	.cfi_def_cfa_offset 8
	.cfi_offset 5, -8
	pushl	%edi
.LCFI1:
	.cfi_def_cfa_offset 12
	.cfi_offset 7, -12
	pushl	%esi
.LCFI2:
	.cfi_def_cfa_offset 16
	.cfi_offset 6, -16
	pushl	%ebx
.LCFI3:
	.cfi_def_cfa_offset 20
	.cfi_offset 3, -20
	subl	$136, %esp
.LCFI4:
	.cfi_def_cfa_offset 156
	movl	164(%esp), %eax
	movl	176(%esp), %edi
.LVL1:
	.loc 1 108 0
	movl	$0, 72(%esp)
.LVL2:
	movl	$0, 76(%esp)
	movl	$0, 80(%esp)
	movl	$0, 84(%esp)
	movl	$0, 88(%esp)
	movl	$0, 92(%esp)
	movl	$0, 96(%esp)
	movl	$0, 100(%esp)
.LVL3:
	.loc 1 109 0
	testl	%eax, %eax
	je	.L2
	xorl	%edx, %edx
	movl	160(%esp), %ebx
.LVL4:
	.p2align 2,,3
.L3:
	.loc 1 110 0 discriminator 2
	movzwl	(%ebx,%edx,2), %ecx
	incw	72(%esp,%ecx,2)
	.loc 1 109 0 discriminator 2
	incl	%edx
.LVL5:
	cmpl	%eax, %edx
	jne	.L3
.LVL6:
.L2:
	.loc 1 113 0
	movl	172(%esp), %edx
	movl	(%edx), %edx
	movl	%edx, 8(%esp)
.LVL7:
	.loc 1 115 0
	movw	102(%esp), %dx
	testw	%dx, %dx
	jne	.L40
.LVL8:
	cmpw	$0, 100(%esp)
	jne	.L41
.LVL9:
	cmpw	$0, 98(%esp)
	jne	.L42
.LVL10:
	cmpw	$0, 96(%esp)
	jne	.L43
.LVL11:
	cmpw	$0, 94(%esp)
	jne	.L44
.LVL12:
	cmpw	$0, 92(%esp)
	jne	.L45
.LVL13:
	cmpw	$0, 90(%esp)
	jne	.L46
.LVL14:
	cmpw	$0, 88(%esp)
	jne	.L47
.LVL15:
	cmpw	$0, 86(%esp)
	jne	.L48
.LVL16:
	cmpw	$0, 84(%esp)
	jne	.L49
.LVL17:
	cmpw	$0, 82(%esp)
	jne	.L50
.LVL18:
	cmpw	$0, 80(%esp)
	jne	.L51
.LVL19:
	cmpw	$0, 78(%esp)
	jne	.L52
.LVL20:
	cmpw	$0, 76(%esp)
	jne	.L53
.LVL21:
	cmpw	$0, 74(%esp)
	jne	.L54
.LVL22:
	.loc 1 121 0
	movl	168(%esp), %ebx
	movl	(%ebx), %eax
	movb	$64, (%eax)
	movb	$1, 1(%eax)
	movw	$0, 2(%eax)
	.loc 1 122 0
	movb	$64, 4(%eax)
	movb	$1, 5(%eax)
	movw	$0, 6(%eax)
	addl	$8, %eax
	movl	%eax, (%ebx)
	.loc 1 123 0
	movl	172(%esp), %esi
	movl	$1, (%esi)
	.loc 1 124 0
	xorl	%eax, %eax
	.loc 1 306 0
	addl	$136, %esp
	.cfi_remember_state
.LCFI5:
	.cfi_def_cfa_offset 20
	popl	%ebx
.LCFI6:
	.cfi_def_cfa_offset 16
	.cfi_restore 3
	popl	%esi
.LCFI7:
	.cfi_def_cfa_offset 12
	.cfi_restore 6
	popl	%edi
.LCFI8:
	.cfi_def_cfa_offset 8
	.cfi_restore 7
	popl	%ebp
.LCFI9:
	.cfi_def_cfa_offset 4
	.cfi_restore 5
	ret
.LVL23:
.L40:
.LCFI10:
	.cfi_restore_state
	.loc 1 114 0
	movl	$15, 20(%esp)
.LVL24:
.L4:
	.loc 1 127 0
	movl	$1, %ebp
	cmpw	$0, 74(%esp)
	jne	.L5
	movl	20(%esp), %ecx
	jmp	.L38
.LVL25:
	.p2align 2,,3
.L8:
	cmpw	$0, 72(%esp,%ebp,2)
	jne	.L7
.LVL26:
.L38:
	.loc 1 126 0
	incl	%ebp
.LVL27:
	cmpl	%ecx, %ebp
	jne	.L8
.LVL28:
.L5:
	.loc 1 134 0
	movzwl	74(%esp), %ecx
	movl	$2, %ebx
.LVL29:
	.loc 1 135 0
	subl	%ecx, %ebx
.LVL30:
	js	.L71
.LVL31:
.L39:
	.loc 1 133 0
	sall	%ebx
.LVL32:
	.loc 1 134 0
	movzwl	76(%esp), %ecx
.LVL33:
	.loc 1 135 0
	subl	%ecx, %ebx
.LVL34:
	js	.L71
.LVL35:
	.loc 1 133 0
	sall	%ebx
.LVL36:
	.loc 1 134 0
	movzwl	78(%esp), %ecx
.LVL37:
	.loc 1 135 0
	subl	%ecx, %ebx
.LVL38:
	js	.L71
.LVL39:
	.loc 1 133 0
	sall	%ebx
.LVL40:
	.loc 1 134 0
	movzwl	80(%esp), %ecx
.LVL41:
	.loc 1 135 0
	subl	%ecx, %ebx
.LVL42:
	js	.L71
.LVL43:
	.loc 1 133 0
	sall	%ebx
.LVL44:
	.loc 1 134 0
	movzwl	82(%esp), %ecx
.LVL45:
	.loc 1 135 0
	subl	%ecx, %ebx
.LVL46:
	js	.L71
.LVL47:
	.loc 1 133 0
	sall	%ebx
.LVL48:
	.loc 1 134 0
	movzwl	84(%esp), %ecx
.LVL49:
	.loc 1 135 0
	subl	%ecx, %ebx
.LVL50:
	js	.L71
.LVL51:
	.loc 1 133 0
	sall	%ebx
.LVL52:
	.loc 1 134 0
	movzwl	86(%esp), %ecx
.LVL53:
	.loc 1 135 0
	subl	%ecx, %ebx
.LVL54:
	js	.L71
.LVL55:
	.loc 1 133 0
	sall	%ebx
.LVL56:
	.loc 1 134 0
	movzwl	88(%esp), %ecx
.LVL57:
	.loc 1 135 0
	subl	%ecx, %ebx
.LVL58:
	js	.L71
.LVL59:
	.loc 1 133 0
	sall	%ebx
.LVL60:
	.loc 1 134 0
	movzwl	90(%esp), %ecx
.LVL61:
	.loc 1 135 0
	subl	%ecx, %ebx
.LVL62:
	js	.L71
.LVL63:
	.loc 1 133 0
	sall	%ebx
.LVL64:
	.loc 1 134 0
	movzwl	92(%esp), %ecx
.LVL65:
	.loc 1 135 0
	subl	%ecx, %ebx
.LVL66:
	js	.L71
.LVL67:
	.loc 1 133 0
	sall	%ebx
.LVL68:
	.loc 1 134 0
	movzwl	94(%esp), %ecx
.LVL69:
	.loc 1 135 0
	subl	%ecx, %ebx
.LVL70:
	js	.L71
.LVL71:
	.loc 1 133 0
	sall	%ebx
.LVL72:
	.loc 1 134 0
	movzwl	96(%esp), %ecx
.LVL73:
	.loc 1 135 0
	subl	%ecx, %ebx
.LVL74:
	js	.L71
.LVL75:
	.loc 1 133 0
	sall	%ebx
.LVL76:
	.loc 1 134 0
	movzwl	98(%esp), %ecx
.LVL77:
	.loc 1 135 0
	subl	%ecx, %ebx
.LVL78:
	js	.L71
.LVL79:
	.loc 1 133 0
	sall	%ebx
.LVL80:
	.loc 1 134 0
	movzwl	100(%esp), %ecx
.LVL81:
	.loc 1 135 0
	subl	%ecx, %ebx
.LVL82:
	js	.L71
.LVL83:
	.loc 1 133 0
	leal	(%ebx,%ebx), %ecx
.LVL84:
	.loc 1 134 0
	movzwl	%dx, %edx
	subl	%edx, %ecx
.LVL85:
	.loc 1 135 0
	cmpl	$0, %ecx
	jl	.L71
.LVL86:
	.loc 1 137 0
	je	.L9
	.loc 1 137 0 is_stmt 0 discriminator 1
	movl	156(%esp), %edx
	testl	%edx, %edx
	je	.L71
	cmpl	$1, 20(%esp)
	jne	.L71
.L9:
	.loc 1 141 0 is_stmt 1
	movw	$0, 106(%esp)
.LVL87:
	.loc 1 143 0
	movw	74(%esp), %dx
	movw	%dx, 108(%esp)
.LVL88:
	addl	76(%esp), %edx
	movw	%dx, 110(%esp)
.LVL89:
	addw	78(%esp), %dx
	movw	%dx, 112(%esp)
.LVL90:
	addl	80(%esp), %edx
	movw	%dx, 114(%esp)
.LVL91:
	addw	82(%esp), %dx
	movw	%dx, 116(%esp)
.LVL92:
	addl	84(%esp), %edx
	movw	%dx, 118(%esp)
.LVL93:
	addw	86(%esp), %dx
	movw	%dx, 120(%esp)
.LVL94:
	addl	88(%esp), %edx
	movw	%dx, 122(%esp)
.LVL95:
	addw	90(%esp), %dx
	movw	%dx, 124(%esp)
.LVL96:
	addl	92(%esp), %edx
	movw	%dx, 126(%esp)
.LVL97:
	addw	94(%esp), %dx
	movw	%dx, 128(%esp)
.LVL98:
	addl	96(%esp), %edx
	movw	%dx, 130(%esp)
.LVL99:
	addw	98(%esp), %dx
	movw	%dx, 132(%esp)
.LVL100:
	addl	100(%esp), %edx
	movw	%dx, 134(%esp)
.LVL101:
	.loc 1 146 0
	testl	%eax, %eax
	je	.L10
	xorl	%edx, %edx
	movl	%ebp, 12(%esp)
	movl	160(%esp), %esi
.LVL102:
	.p2align 2,,3
.L12:
	.loc 1 147 0
	movw	(%esi,%edx,2), %cx
	testw	%cx, %cx
	je	.L11
	.loc 1 147 0 is_stmt 0 discriminator 1
	movzwl	%cx, %ecx
	movw	104(%esp,%ecx,2), %bx
	movzwl	%bx, %ebp
	movw	%dx, (%edi,%ebp,2)
	incl	%ebx
	movw	%bx, 104(%esp,%ecx,2)
.L11:
	.loc 1 146 0 is_stmt 1
	incl	%edx
.LVL103:
	cmpl	%eax, %edx
	jne	.L12
	movl	12(%esp), %ebp
.LVL104:
.L10:
	movl	20(%esp), %eax
	movl	8(%esp), %edx
	cmpl	%edx, %eax
	jbe	.L13
	movl	%edx, %eax
.L13:
	movl	%ebp, 44(%esp)
	cmpl	%eax, %ebp
	jae	.L14
	movl	%eax, 44(%esp)
.L14:
	.loc 1 181 0
	movl	156(%esp), %esi
	testl	%esi, %esi
	jne	.L93
.LVL105:
	.loc 1 203 0
	movl	168(%esp), %ebx
	movl	(%ebx), %ebx
	movl	%ebx, 36(%esp)
.LVL106:
	.loc 1 207 0
	movl	$1, 52(%esp)
	movb	44(%esp), %cl
	sall	%cl, 52(%esp)
.LVL107:
	.loc 1 208 0
	movl	52(%esp), %ebx
	decl	%ebx
	movl	%ebx, 60(%esp)
.LVL108:
	.loc 1 183 0
	movl	%edi, 68(%esp)
	movl	%edi, 64(%esp)
	.loc 1 184 0
	movl	$19, 48(%esp)
.LVL109:
.L19:
	.loc 1 212 0
	movl	%edi, 28(%esp)
	.loc 1 288 0
	movl	44(%esp), %eax
	movl	$-1, 56(%esp)
	xorl	%edx, %edx
	movl	$0, 24(%esp)
	movl	%edi, %esi
.LVL110:
	.p2align 2,,3
.L20:
	.loc 1 218 0
	movl	%ebp, %ebx
	subb	24(%esp), %bl
	movb	%bl, 12(%esp)
.LVL111:
	.loc 1 219 0
	movw	(%esi), %bx
.LVL112:
	movzwl	%bx, %ecx
	cmpl	48(%esp), %ecx
	jl	.L75
	.loc 1 223 0
	jle	.L76
	.loc 1 224 0
	sall	%ecx
	movl	68(%esp), %edi
	movzbl	(%edi,%ecx), %esi
.LVL113:
	.loc 1 225 0
	movl	64(%esp), %edi
	movw	(%edi,%ecx), %bx
.LVL114:
.L21:
	.loc 1 233 0
	movl	%ebp, %ecx
	subl	24(%esp), %ecx
	movl	$1, %edi
	sall	%cl, %edi
	movl	%edi, 8(%esp)
.LVL115:
	.loc 1 234 0
	movl	$1, %edi
.LVL116:
	movb	%al, %cl
	sall	%cl, %edi
	movl	%edi, 32(%esp)
.LVL117:
	.loc 1 32 0
	movl	8(%esp), %ecx
	negl	%ecx
	sall	$2, %ecx
	movl	%ecx, 16(%esp)
	.loc 1 238 0
	movl	%edx, %edi
.LVL118:
	movb	24(%esp), %cl
	shrl	%cl, %edi
	movl	32(%esp), %ecx
	addl	%edi, %ecx
	subl	8(%esp), %ecx
	movl	36(%esp), %edi
	leal	(%edi,%ecx,4), %ecx
	.loc 1 234 0
	movl	32(%esp), %edi
	movl	%edx, 4(%esp)
	movl	%esi, %edx
.LVL119:
	movl	%eax, %esi
.LVL120:
	movb	%dl, %al
.LVL121:
	movb	12(%esp), %dl
.LVL122:
	.p2align 2,,3
.L22:
	.loc 1 238 0 discriminator 1
	movb	%al, (%ecx)
	movb	%dl, 1(%ecx)
	movw	%bx, 2(%ecx)
	addl	16(%esp), %ecx
	.loc 1 239 0 discriminator 1
	subl	8(%esp), %edi
.LVL123:
	jne	.L22
	movl	%esi, %eax
.LVL124:
	movl	4(%esp), %edx
	.loc 1 242 0
	leal	-1(%ebp), %ecx
	movl	$1, %ebx
.LVL125:
	sall	%cl, %ebx
	movl	%ebx, %ecx
.LVL126:
	.loc 1 243 0
	testl	%edx, %ebx
	je	.L23
.LVL127:
	.p2align 2,,3
.L84:
	.loc 1 244 0
	shrl	%ecx
.LVL128:
	.loc 1 243 0
	testl	%edx, %ecx
	jne	.L84
.L23:
	.loc 1 245 0
	testl	%ecx, %ecx
	je	.L77
	.loc 1 246 0
	leal	-1(%ecx), %ebx
	andl	%edx, %ebx
.LVL129:
	.loc 1 247 0
	leal	(%ebx,%ecx), %edx
.LVL130:
.L25:
	.loc 1 254 0
	movw	72(%esp,%ebp,2), %cx
.LVL131:
	decl	%ecx
	movw	%cx, 72(%esp,%ebp,2)
	testw	%cx, %cx
	jne	.L26
	.loc 1 255 0
	cmpl	20(%esp), %ebp
	je	.L27
	.loc 1 256 0
	movl	28(%esp), %esi
.LVL132:
	movzwl	2(%esi), %ecx
	movl	160(%esp), %edi
.LVL133:
	movzwl	(%edi,%ecx,2), %ebp
.LVL134:
.L26:
	.loc 1 260 0
	cmpl	%ebp, 44(%esp)
	jae	.L28
	.loc 1 260 0 is_stmt 0 discriminator 1
	movl	60(%esp), %edi
	andl	%edx, %edi
	cmpl	56(%esp), %edi
	je	.L28
	.loc 1 262 0 is_stmt 1
	movl	24(%esp), %ebx
	testl	%ebx, %ebx
	jne	.L29
	movl	44(%esp), %ecx
	movl	%ecx, 24(%esp)
.L29:
.LVL135:
	.loc 1 269 0
	movl	%ebp, %eax
.LVL136:
	subl	24(%esp), %eax
.LVL137:
	.loc 1 271 0
	cmpl	20(%esp), %ebp
	jae	.L30
	.loc 1 270 0
	movl	$1, %ebx
	movb	%al, %cl
	sall	%cl, %ebx
	movl	%ebx, 12(%esp)
	.loc 1 272 0
	movzwl	72(%esp,%ebp,2), %ebx
	subl	%ebx, 12(%esp)
.LVL138:
	.loc 1 273 0
	movl	12(%esp), %ecx
	testl	%ecx, %ecx
	jle	.L30
	.loc 1 32 0
	movl	24(%esp), %ecx
	leal	72(%esp,%ecx,2), %esi
	movl	%ebp, 8(%esp)
	movl	%ecx, %ebp
.LVL139:
	movl	12(%esp), %ecx
	jmp	.L83
.LVL140:
	.p2align 2,,3
.L33:
	.loc 1 275 0
	sall	%ecx
.LVL141:
	.loc 1 272 0
	movzwl	(%esi,%eax,2), %ebx
	subl	%ebx, %ecx
.LVL142:
	.loc 1 273 0
	testl	%ecx, %ecx
	jle	.L91
.L83:
	.loc 1 274 0
	incl	%eax
.LVL143:
	.loc 1 271 0
	leal	(%eax,%ebp), %ebx
	cmpl	%ebx, 20(%esp)
	ja	.L33
.LVL144:
.L91:
	movl	8(%esp), %ebp
.LVL145:
.L30:
	.loc 1 279 0
	movl	$1, %ebx
	movb	%al, %cl
	sall	%cl, %ebx
	addl	%ebx, 52(%esp)
	.loc 1 280 0
	cmpl	$1, 156(%esp)
	je	.L94
	.loc 1 280 0 is_stmt 0 discriminator 2
	cmpl	$2, 156(%esp)
	je	.L95
.L35:
	.loc 1 266 0 is_stmt 1
	movl	36(%esp), %esi
	movl	32(%esp), %ebx
	leal	(%esi,%ebx,4), %esi
	movl	%esi, 36(%esp)
.LVL146:
	.loc 1 286 0
	leal	0(,%edi,4), %ecx
	movl	168(%esp), %esi
	movl	(%esi), %ebx
	movb	%al, (%ebx,%ecx)
	.loc 1 287 0
	movl	(%esi), %ebx
	movl	%ebx, %esi
	movb	44(%esp), %bl
	movb	%bl, 1(%esi,%ecx)
	.loc 1 288 0
	movl	168(%esp), %ebx
	movl	(%ebx), %esi
	movl	36(%esp), %ebx
	subl	%esi, %ebx
	sarl	$2, %ebx
	movw	%bx, 2(%esi,%ecx)
	movl	%edi, 56(%esp)
.LVL147:
.L28:
	.loc 1 212 0
	addl	$2, 28(%esp)
	movl	28(%esp), %esi
	jmp	.L20
.LVL148:
	.p2align 2,,3
.L77:
	.loc 1 250 0
	xorl	%edx, %edx
	jmp	.L25
.LVL149:
	.p2align 2,,3
.L75:
	.loc 1 220 0
	xorl	%esi, %esi
	jmp	.L21
	.p2align 2,,3
.L76:
	.loc 1 229 0
	xorl	%ebx, %ebx
	.loc 1 228 0
	movl	$96, %esi
	jmp	.L21
.LVL150:
.L95:
	.loc 1 281 0
	cmpl	$592, 52(%esp)
	jbe	.L35
.LVL151:
.L81:
	.loc 1 282 0
	movl	$1, %eax
	.loc 1 306 0
	addl	$136, %esp
	.cfi_remember_state
.LCFI11:
	.cfi_def_cfa_offset 20
	popl	%ebx
	.cfi_restore 3
.LCFI12:
	.cfi_def_cfa_offset 16
	popl	%esi
	.cfi_restore 6
.LCFI13:
	.cfi_def_cfa_offset 12
	popl	%edi
	.cfi_restore 7
.LCFI14:
	.cfi_def_cfa_offset 8
	popl	%ebp
	.cfi_restore 5
.LCFI15:
	.cfi_def_cfa_offset 4
	ret
.LVL152:
.L94:
.LCFI16:
	.cfi_restore_state
	.loc 1 280 0 discriminator 1
	cmpl	$852, 52(%esp)
	jbe	.L35
	jmp	.L81
.LVL153:
.L71:
	.loc 1 138 0
	movl	$-1, %eax
	.loc 1 306 0
	addl	$136, %esp
	.cfi_remember_state
.LCFI17:
	.cfi_def_cfa_offset 20
	popl	%ebx
	.cfi_restore 3
.LCFI18:
	.cfi_def_cfa_offset 16
	popl	%esi
	.cfi_restore 6
.LCFI19:
	.cfi_def_cfa_offset 12
	popl	%edi
	.cfi_restore 7
.LCFI20:
	.cfi_def_cfa_offset 8
	popl	%ebp
	.cfi_restore 5
.LCFI21:
	.cfi_def_cfa_offset 4
	ret
.LVL154:
.L7:
.LCFI22:
	.cfi_restore_state
	.loc 1 134 0
	movzwl	74(%esp), %ecx
.LVL155:
	movl	$2, %ebx
	subl	%ecx, %ebx
.LVL156:
	jmp	.L39
.LVL157:
.L27:
	.loc 1 295 0
	testl	%edx, %edx
	je	.L36
.LVL158:
	.loc 1 299 0
	movl	36(%esp), %esi
	leal	(%esi,%edx,4), %eax
.LVL159:
	movb	$64, (%eax)
	movb	12(%esp), %dl
.LVL160:
	movb	%dl, 1(%eax)
	movw	$0, 2(%eax)
.LVL161:
.L36:
	.loc 1 303 0
	movl	52(%esp), %eax
	sall	$2, %eax
	movl	168(%esp), %ebx
	addl	%eax, (%ebx)
	.loc 1 304 0
	movl	44(%esp), %ecx
	movl	172(%esp), %esi
	movl	%ecx, (%esi)
	.loc 1 305 0
	xorl	%eax, %eax
	.loc 1 306 0
	addl	$136, %esp
	.cfi_remember_state
.LCFI23:
	.cfi_def_cfa_offset 20
	popl	%ebx
	.cfi_restore 3
.LCFI24:
	.cfi_def_cfa_offset 16
	popl	%esi
	.cfi_restore 6
.LCFI25:
	.cfi_def_cfa_offset 12
	popl	%edi
	.cfi_restore 7
.LCFI26:
	.cfi_def_cfa_offset 8
.LVL162:
	popl	%ebp
	.cfi_restore 5
.LCFI27:
	.cfi_def_cfa_offset 4
.LVL163:
	ret
.LVL164:
.L93:
.LCFI28:
	.cfi_restore_state
	.loc 1 181 0
	cmpl	$1, 156(%esp)
	je	.L17
.LVL165:
	.loc 1 203 0
	movl	168(%esp), %ebx
	movl	(%ebx), %ebx
	movl	%ebx, 36(%esp)
.LVL166:
	.loc 1 207 0
	movl	$1, 52(%esp)
	movb	44(%esp), %cl
	sall	%cl, 52(%esp)
.LVL167:
	.loc 1 208 0
	movl	52(%esp), %ebx
	decl	%ebx
	movl	%ebx, 60(%esp)
.LVL168:
	.loc 1 211 0
	cmpl	$2, 156(%esp)
	jne	.L73
	.loc 1 212 0
	cmpl	$592, 52(%esp)
	ja	.L81
.L73:
	.loc 1 196 0
	movl	$-1, 48(%esp)
	.loc 1 195 0
	movl	$dext.2253, 68(%esp)
	.loc 1 194 0
	movl	$dbase.2252, 64(%esp)
	jmp	.L19
.LVL169:
.L17:
	.loc 1 203 0
	movl	168(%esp), %esi
	movl	(%esi), %esi
	movl	%esi, 36(%esp)
.LVL170:
	.loc 1 207 0
	movl	156(%esp), %ebx
	movb	44(%esp), %cl
	sall	%cl, %ebx
	movl	%ebx, 52(%esp)
.LVL171:
	.loc 1 208 0
	decl	%ebx
.LVL172:
	movl	%ebx, 60(%esp)
.LVL173:
	.loc 1 191 0
	movl	$256, 48(%esp)
	.loc 1 190 0
	movl	$lext.2251-514, 68(%esp)
	.loc 1 188 0
	movl	$lbase.2250-514, 64(%esp)
	.loc 1 211 0
	cmpl	$852, 52(%esp)
	jbe	.L19
	jmp	.L81
.LVL174:
.L41:
	.loc 1 114 0
	movl	$14, 20(%esp)
	jmp	.L4
.LVL175:
.L42:
	movl	$13, 20(%esp)
	jmp	.L4
.LVL176:
.L43:
	movl	$12, 20(%esp)
	jmp	.L4
.LVL177:
.L44:
	movl	$11, 20(%esp)
	jmp	.L4
.LVL178:
.L45:
	movl	$10, 20(%esp)
	jmp	.L4
.LVL179:
.L54:
	.loc 1 115 0
	movl	$1, 20(%esp)
	movl	$1, %ebp
	jmp	.L5
.LVL180:
.L51:
	.loc 1 114 0
	movl	$4, 20(%esp)
	jmp	.L4
.LVL181:
.L50:
	movl	$5, 20(%esp)
	jmp	.L4
.LVL182:
.L47:
	movl	$8, 20(%esp)
	jmp	.L4
.LVL183:
.L46:
	movl	$9, 20(%esp)
	jmp	.L4
.LVL184:
.L49:
	movl	$6, 20(%esp)
	jmp	.L4
.LVL185:
.L48:
	movl	$7, 20(%esp)
	jmp	.L4
.LVL186:
.L53:
	movl	$2, 20(%esp)
	jmp	.L4
.LVL187:
.L52:
	movl	$3, 20(%esp)
	jmp	.L4
	.cfi_endproc
.LFE25:
	.size	inflate_table, .-inflate_table
	.globl	inflate_copyright
	.section	.rodata
	.align 32
	.type	inflate_copyright, @object
	.size	inflate_copyright, 47
inflate_copyright:
	.string	" inflate 1.2.8 Copyright 1995-2013 Mark Adler "
	.align 32
	.type	lbase.2250, @object
	.size	lbase.2250, 62
lbase.2250:
	.value	3
	.value	4
	.value	5
	.value	6
	.value	7
	.value	8
	.value	9
	.value	10
	.value	11
	.value	13
	.value	15
	.value	17
	.value	19
	.value	23
	.value	27
	.value	31
	.value	35
	.value	43
	.value	51
	.value	59
	.value	67
	.value	83
	.value	99
	.value	115
	.value	131
	.value	163
	.value	195
	.value	227
	.value	258
	.value	0
	.value	0
	.align 32
	.type	dbase.2252, @object
	.size	dbase.2252, 64
dbase.2252:
	.value	1
	.value	2
	.value	3
	.value	4
	.value	5
	.value	7
	.value	9
	.value	13
	.value	17
	.value	25
	.value	33
	.value	49
	.value	65
	.value	97
	.value	129
	.value	193
	.value	257
	.value	385
	.value	513
	.value	769
	.value	1025
	.value	1537
	.value	2049
	.value	3073
	.value	4097
	.value	6145
	.value	8193
	.value	12289
	.value	16385
	.value	24577
	.value	0
	.value	0
	.align 32
	.type	lext.2251, @object
	.size	lext.2251, 62
lext.2251:
	.value	16
	.value	16
	.value	16
	.value	16
	.value	16
	.value	16
	.value	16
	.value	16
	.value	17
	.value	17
	.value	17
	.value	17
	.value	18
	.value	18
	.value	18
	.value	18
	.value	19
	.value	19
	.value	19
	.value	19
	.value	20
	.value	20
	.value	20
	.value	20
	.value	21
	.value	21
	.value	21
	.value	21
	.value	16
	.value	72
	.value	78
	.align 32
	.type	dext.2253, @object
	.size	dext.2253, 64
dext.2253:
	.value	16
	.value	16
	.value	16
	.value	16
	.value	17
	.value	17
	.value	18
	.value	18
	.value	19
	.value	19
	.value	20
	.value	20
	.value	21
	.value	21
	.value	22
	.value	22
	.value	23
	.value	23
	.value	24
	.value	24
	.value	25
	.value	25
	.value	26
	.value	26
	.value	27
	.value	27
	.value	28
	.value	28
	.value	29
	.value	29
	.value	64
	.value	64
	.text
.Letext0:
	.file 2 "inftrees.h"
	.file 3 "/home/user/workspace/embox/./src/include/../util/dlist_debug.h"
	.section	.note.GNU-stack,"",@progbits
