	.file	"uncompr.c"
	.text
.Ltext0:
	.section	.rodata.str1.1,"aMS",@progbits,1
.LC0:
	.string	"1.2.8"
	.text
	.p2align 2,,3
	.globl	uncompress
	.type	uncompress, @function
uncompress:
.LFB20:
	.file 1 "uncompr.c"
	.loc 1 29 0
	.cfi_startproc
.LVL0:
	pushl	%edi
.LCFI0:
	.cfi_def_cfa_offset 8
	.cfi_offset 7, -8
	pushl	%esi
.LCFI1:
	.cfi_def_cfa_offset 12
	.cfi_offset 6, -12
	pushl	%ebx
.LCFI2:
	.cfi_def_cfa_offset 16
	.cfi_offset 3, -16
	subl	$80, %esp
.LCFI3:
	.cfi_def_cfa_offset 96
	movl	100(%esp), %edi
	.loc 1 33 0
	movl	104(%esp), %eax
	movl	%eax, 24(%esp)
	.loc 1 34 0
	movl	108(%esp), %eax
	movl	%eax, 28(%esp)
	.loc 1 38 0
	movl	96(%esp), %eax
	movl	%eax, 36(%esp)
	.loc 1 39 0
	movl	(%edi), %eax
	movl	%eax, 40(%esp)
	.loc 1 42 0
	movl	$0, 56(%esp)
	.loc 1 43 0
	movl	$0, 60(%esp)
	.loc 1 45 0
	movl	$56, 8(%esp)
	movl	$.LC0, 4(%esp)
	leal	24(%esp), %esi
	movl	%esi, (%esp)
	call	inflateInit_
	movl	%eax, %ebx
.LVL1:
	.loc 1 46 0
	testl	%eax, %eax
	je	.L7
.LVL2:
.L2:
	.loc 1 59 0
	movl	%ebx, %eax
	addl	$80, %esp
	.cfi_remember_state
.LCFI4:
	.cfi_def_cfa_offset 16
	popl	%ebx
.LCFI5:
	.cfi_def_cfa_offset 12
	.cfi_restore 3
	popl	%esi
.LCFI6:
	.cfi_def_cfa_offset 8
	.cfi_restore 6
	popl	%edi
.LCFI7:
	.cfi_def_cfa_offset 4
	.cfi_restore 7
	ret
.LVL3:
	.p2align 2,,3
.L7:
.LCFI8:
	.cfi_restore_state
	.loc 1 48 0
	movl	$4, 4(%esp)
	movl	%esi, (%esp)
	call	inflate
.LVL4:
	movl	%eax, %ebx
.LVL5:
	.loc 1 49 0
	cmpl	$1, %eax
	je	.L3
	.loc 1 50 0
	movl	%esi, (%esp)
	call	inflateEnd
.LVL6:
	.loc 1 51 0
	cmpl	$2, %ebx
	je	.L5
	.loc 1 51 0 is_stmt 0 discriminator 1
	cmpl	$-5, %ebx
	jne	.L2
	movl	28(%esp), %eax
	testl	%eax, %eax
	jne	.L2
.L5:
	.loc 1 52 0 is_stmt 1
	movl	$-3, %ebx
.LVL7:
	jmp	.L2
.LVL8:
	.p2align 2,,3
.L3:
	.loc 1 55 0
	movl	44(%esp), %eax
.LVL9:
	movl	%eax, (%edi)
	.loc 1 57 0
	movl	%esi, (%esp)
	call	inflateEnd
	movl	%eax, %ebx
.LVL10:
	.loc 1 58 0
	jmp	.L2
	.cfi_endproc
.LFE20:
	.size	uncompress, .-uncompress
.Letext0:
	.file 2 "zconf.h"
	.file 3 "zlib.h"
	.file 4 "/home/user/workspace/embox/./src/include/../util/dlist_debug.h"
	.section	.note.GNU-stack,"",@progbits
