	.file	"deflate.c"
	.text
.Ltext0:
	.p2align 2,,3
	.type	longest_match, @function
longest_match:
.LFB43:
	.file 1 "deflate.c"
	.loc 1 1151 0
	.cfi_startproc
.LVL0:
	pushl	%ebp
.LCFI0:
	.cfi_def_cfa_offset 8
	.cfi_offset 5, -8
	pushl	%edi
.LCFI1:
	.cfi_def_cfa_offset 12
	.cfi_offset 7, -12
	pushl	%esi
.LCFI2:
	.cfi_def_cfa_offset 16
	.cfi_offset 6, -16
	pushl	%ebx
.LCFI3:
	.cfi_def_cfa_offset 20
	.cfi_offset 3, -20
	subl	$48, %esp
.LCFI4:
	.cfi_def_cfa_offset 68
	.loc 1 1152 0
	movl	124(%eax), %ecx
.LVL1:
	.loc 1 1153 0
	movl	56(%eax), %edi
	movl	108(%eax), %ebx
	movl	%ebx, 8(%esp)
	addl	%edi, %ebx
	movl	%ebx, 28(%esp)
.LVL2:
	.loc 1 1156 0
	movl	120(%eax), %esi
	movl	%esi, 44(%esp)
.LVL3:
	.loc 1 1157 0
	movl	144(%eax), %ebp
	movl	%ebp, 36(%esp)
.LVL4:
	.loc 1 1158 0
	movl	44(%eax), %ebp
	leal	-262(%ebp), %ebx
.LVL5:
	.loc 1 1159 0
	cmpl	%ebx, 8(%esp)
	jbe	.L12
.LVL6:
	.loc 1 1159 0 is_stmt 0 discriminator 1
	movl	8(%esp), %ebx
	addl	$262, %ebx
	subl	%ebp, %ebx
	movl	%ebx, 12(%esp)
.LVL7:
.L2:
	.loc 1 1163 0 is_stmt 1
	movl	64(%eax), %ebp
.LVL8:
	.loc 1 1164 0
	movl	52(%eax), %ebx
	movl	%ebx, 20(%esp)
.LVL9:
	.loc 1 1174 0
	movl	8(%esp), %ebx
	leal	258(%edi,%ebx), %ebx
	movl	%ebx, 40(%esp)
.LVL10:
	.loc 1 1175 0
	movl	28(%esp), %ebx
.LVL11:
	movb	-1(%ebx,%esi), %bl
	movb	%bl, 35(%esp)
.LVL12:
	.loc 1 1176 0
	movl	28(%esp), %ebx
	movb	(%ebx,%esi), %bl
	movb	%bl, 16(%esp)
.LVL13:
	.loc 1 1185 0
	cmpl	140(%eax), %esi
	jb	.L3
	.loc 1 1186 0
	shrl	$2, %ecx
.LVL14:
.L3:
	.loc 1 1191 0
	movl	116(%eax), %ebx
	movl	%ebx, 24(%esp)
	cmpl	%ebx, 36(%esp)
	jbe	.L27
	.loc 1 1191 0 is_stmt 0 discriminator 1
	movl	%ebx, 36(%esp)
.LVL15:
	movl	%ecx, 4(%esp)
	movl	44(%esp), %ebx
	movl	%eax, 44(%esp)
	jmp	.L24
.LVL16:
	.p2align 2,,3
.L5:
	.loc 1 1284 0 is_stmt 1
	andl	20(%esp), %edx
	movzwl	0(%ebp,%edx,2), %edx
.LVL17:
	.loc 1 1285 0
	cmpl	%edx, 12(%esp)
	jae	.L29
.LVL18:
	.loc 1 1285 0 is_stmt 0 discriminator 1
	decl	4(%esp)
	je	.L29
.LVL19:
.L24:
	.loc 1 1197 0 is_stmt 1
	leal	(%edi,%edx), %eax
.LVL20:
	.loc 1 1242 0
	movl	%ebx, %esi
	movb	(%eax,%ebx), %cl
	movb	%cl, 8(%esp)
	movb	16(%esp), %cl
	cmpb	%cl, 8(%esp)
	jne	.L5
	.loc 1 1243 0 discriminator 1
	movb	-1(%eax,%ebx), %cl
	movb	%cl, 34(%esp)
	.loc 1 1242 0 discriminator 1
	movb	35(%esp), %cl
	cmpb	%cl, 34(%esp)
	jne	.L5
	.loc 1 1243 0
	movl	28(%esp), %ecx
	movb	(%ecx), %cl
	cmpb	%cl, (%eax)
	jne	.L5
.LVL21:
	.loc 1 1244 0
	movl	28(%esp), %ecx
	movb	1(%ecx), %cl
	cmpb	%cl, 1(%eax)
	jne	.L5
	.loc 1 1253 0
	movl	28(%esp), %ecx
	addl	$2, %ecx
	movl	%ecx, 16(%esp)
.LVL22:
	addl	$2, %eax
.LVL23:
	movl	4(%esp), %ecx
.LVL24:
	movl	%ecx, 28(%esp)
	movl	16(%esp), %ecx
	movl	%edx, (%esp)
.LVL25:
.L7:
	.loc 1 1148 0
	leal	1(%ecx), %edx
	movl	%edx, 16(%esp)
.LVL26:
	.loc 1 1264 0
	movb	1(%eax), %dl
	cmpb	%dl, 1(%ecx)
	jne	.L22
	.loc 1 1148 0
	leal	2(%ecx), %edx
	movl	%edx, 16(%esp)
.LVL27:
	.loc 1 1260 0
	movb	2(%eax), %dl
	cmpb	%dl, 2(%ecx)
	jne	.L20
	.loc 1 1148 0 discriminator 1
	leal	3(%ecx), %edx
	movl	%edx, 16(%esp)
.LVL28:
	.loc 1 1260 0 discriminator 1
	movb	3(%eax), %dl
	cmpb	%dl, 3(%ecx)
	jne	.L21
	.loc 1 1148 0
	leal	4(%ecx), %edx
	movl	%edx, 16(%esp)
.LVL29:
	.loc 1 1261 0
	movb	4(%eax), %dl
	cmpb	%dl, 4(%ecx)
	jne	.L22
	.loc 1 1148 0 discriminator 1
	leal	5(%ecx), %edx
	movl	%edx, 16(%esp)
.LVL30:
	.loc 1 1261 0 discriminator 1
	movb	5(%eax), %dl
	cmpb	%dl, 5(%ecx)
	jne	.L20
	.loc 1 1148 0
	leal	6(%ecx), %edx
	movl	%edx, 16(%esp)
.LVL31:
	.loc 1 1262 0
	movb	6(%eax), %dl
	cmpb	%dl, 6(%ecx)
	jne	.L21
	.loc 1 1148 0 discriminator 1
	leal	7(%ecx), %edx
	movl	%edx, 16(%esp)
.LVL32:
	.loc 1 1262 0 discriminator 1
	movb	7(%eax), %dl
	cmpb	%dl, 7(%ecx)
	jne	.L22
	.loc 1 1148 0
	addl	$8, %ecx
.LVL33:
	addl	$8, %eax
.LVL34:
	.loc 1 1263 0
	movb	(%eax), %dl
	cmpb	%dl, (%ecx)
	jne	.L28
	.loc 1 1263 0 is_stmt 0 discriminator 1
	cmpl	%ecx, 40(%esp)
	ja	.L7
	movl	%ecx, 16(%esp)
	movl	28(%esp), %ecx
.LVL35:
	movl	%ecx, 4(%esp)
	movl	(%esp), %edx
	movl	16(%esp), %eax
.LVL36:
.L6:
	.loc 1 1268 0 is_stmt 1
	subl	40(%esp), %eax
	addl	$258, %eax
.LVL37:
	.loc 1 1269 0
	movl	40(%esp), %ecx
	subl	$258, %ecx
	movl	%ecx, 28(%esp)
.LVL38:
	.loc 1 1273 0
	cmpl	%eax, %ebx
	jge	.L23
	.loc 1 1274 0
	movl	44(%esp), %ebx
.LVL39:
	movl	%edx, 112(%ebx)
.LVL40:
	movl	%eax, %esi
	.loc 1 1276 0
	cmpl	%eax, 36(%esp)
	jle	.L9
	.loc 1 1280 0
	movl	28(%esp), %eax
.LVL41:
	movb	-1(%eax,%esi), %al
	movb	%al, 35(%esp)
.LVL42:
	.loc 1 1281 0
	movl	28(%esp), %ecx
	movb	(%ecx,%esi), %cl
.LVL43:
	movb	%cl, 16(%esp)
.LVL44:
	movl	%esi, %ebx
	jmp	.L5
.LVL45:
	.p2align 2,,3
.L29:
	movl	%esi, %eax
.LVL46:
.L9:
	.loc 1 1285 0
	cmpl	24(%esp), %eax
	jbe	.L11
	movl	24(%esp), %eax
.L11:
	.loc 1 1289 0
	addl	$48, %esp
	.cfi_remember_state
.LCFI5:
	.cfi_def_cfa_offset 20
	popl	%ebx
.LCFI6:
	.cfi_def_cfa_offset 16
	.cfi_restore 3
	popl	%esi
.LCFI7:
	.cfi_def_cfa_offset 12
	.cfi_restore 6
	popl	%edi
.LCFI8:
	.cfi_def_cfa_offset 8
	.cfi_restore 7
	popl	%ebp
.LCFI9:
	.cfi_def_cfa_offset 4
	.cfi_restore 5
	ret
.LVL47:
	.p2align 2,,3
.L27:
.LCFI10:
	.cfi_restore_state
	movl	%ecx, 4(%esp)
	movl	44(%esp), %ebx
	movl	%eax, 44(%esp)
	jmp	.L24
.LVL48:
	.p2align 2,,3
.L12:
	.loc 1 1159 0
	movl	$0, 12(%esp)
	jmp	.L2
.LVL49:
.L23:
	.loc 1 1273 0
	movb	8(%esp), %al
.LVL50:
	movb	%al, 16(%esp)
	movb	34(%esp), %cl
.LVL51:
	movb	%cl, 35(%esp)
	jmp	.L5
.LVL52:
.L22:
	movl	28(%esp), %eax
	movl	%eax, 4(%esp)
	movl	(%esp), %edx
	movl	16(%esp), %eax
	jmp	.L6
.L20:
	movl	28(%esp), %edx
	movl	%edx, 4(%esp)
	movl	(%esp), %edx
	movl	16(%esp), %eax
	jmp	.L6
.L21:
	movl	28(%esp), %ecx
	movl	%ecx, 4(%esp)
	movl	(%esp), %edx
	movl	16(%esp), %eax
	jmp	.L6
.LVL53:
.L28:
	movl	%ecx, 16(%esp)
	movl	28(%esp), %edx
	movl	%edx, 4(%esp)
	movl	(%esp), %edx
	movl	%ecx, %eax
.LVL54:
	jmp	.L6
	.cfi_endproc
.LFE43:
	.size	longest_match, .-longest_match
	.p2align 2,,3
	.type	fill_window, @function
fill_window:
.LFB44:
	.loc 1 1392 0
	.cfi_startproc
.LVL55:
	pushl	%ebp
.LCFI11:
	.cfi_def_cfa_offset 8
	.cfi_offset 5, -8
	pushl	%edi
.LCFI12:
	.cfi_def_cfa_offset 12
	.cfi_offset 7, -12
	pushl	%esi
.LCFI13:
	.cfi_def_cfa_offset 16
	.cfi_offset 6, -16
	pushl	%ebx
.LCFI14:
	.cfi_def_cfa_offset 20
	.cfi_offset 3, -20
	subl	$76, %esp
.LCFI15:
	.cfi_def_cfa_offset 96
	movl	%eax, %ebx
	.loc 1 1396 0
	movl	44(%eax), %ecx
	movl	%ecx, 36(%esp)
.LVL56:
	movl	116(%eax), %edi
	movl	%edi, 32(%esp)
	.loc 1 1441 0
	sall	%ecx
	movl	%ecx, 56(%esp)
	movl	36(%esp), %eax
.LVL57:
	leal	-262(%eax), %ebp
	movl	%ebp, 52(%esp)
	.loc 1 1390 0
	movl	%eax, %edx
	negl	%edx
	sall	%edx
	movl	%edx, 60(%esp)
.LVL58:
	.p2align 2,,3
.L47:
	.loc 1 1401 0
	movl	108(%ebx), %ecx
	movl	60(%ebx), %edx
	subl	%edi, %edx
	subl	%ecx, %edx
	movl	%edx, 28(%esp)
.LVL59:
	.loc 1 1419 0
	addl	52(%esp), %eax
	cmpl	%eax, %ecx
	jae	.L57
	.loc 1 1452 0
	movl	(%ebx), %ebp
	movl	4(%ebp), %edx
.LVL60:
	testl	%edx, %edx
	je	.L39
.L61:
	.loc 1 1467 0
	movl	56(%ebx), %esi
	movl	116(%ebx), %eax
.LVL61:
.LBB36:
.LBB37:
	.loc 1 1083 0
	cmpl	%edx, 28(%esp)
	jae	.L52
.LVL62:
	.loc 1 1084 0
	movl	28(%esp), %edi
	testl	%edi, %edi
	jne	.L58
	xorl	%edx, %edx
.LVL63:
.L41:
.LBE37:
.LBE36:
	.loc 1 1468 0
	addl	%eax, %edx
.LVL64:
	movl	%edx, 32(%esp)
	movl	%edx, 116(%ebx)
	.loc 1 1471 0
	movl	5812(%ebx), %edx
	movl	32(%esp), %eax
	addl	%edx, %eax
	cmpl	$2, %eax
	jbe	.L44
.LBB42:
	.loc 1 1472 0
	movl	108(%ebx), %esi
	subl	%edx, %esi
.LVL65:
	.loc 1 1473 0
	movl	56(%ebx), %eax
	movl	%eax, 40(%esp)
	movzbl	(%eax,%esi), %edi
	movl	%edi, 72(%ebx)
	.loc 1 1474 0
	movl	88(%ebx), %ecx
	movl	%ecx, 44(%esp)
	movl	84(%ebx), %ebp
.LVL66:
	movl	%ebp, 48(%esp)
	movzbl	1(%eax,%esi), %eax
	sall	%cl, %edi
	xorl	%edi, %eax
	andl	48(%esp), %eax
	movl	%eax, 72(%ebx)
	movl	%edx, 20(%esp)
	.p2align 2,,3
.L45:
	.loc 1 1478 0 discriminator 1
	movl	20(%esp), %edx
	testl	%edx, %edx
	je	.L44
	.loc 1 1479 0
	movl	40(%esp), %edx
	movzbl	2(%edx,%esi), %edi
	movb	44(%esp), %cl
	sall	%cl, %eax
	xorl	%edi, %eax
	andl	48(%esp), %eax
	movl	%eax, 72(%ebx)
	.loc 1 1481 0
	leal	(%eax,%eax), %ecx
	addl	68(%ebx), %ecx
	movl	52(%ebx), %edi
	andl	%esi, %edi
	movw	(%ecx), %dx
	movl	64(%ebx), %ebp
	movw	%dx, 0(%ebp,%edi,2)
	.loc 1 1483 0
	movw	%si, (%ecx)
	.loc 1 1484 0
	incl	%esi
.LVL67:
	.loc 1 1485 0
	decl	20(%esp)
	movl	20(%esp), %edi
	movl	%edi, 5812(%ebx)
	.loc 1 1486 0
	movl	32(%esp), %ecx
	addl	%edi, %ecx
	cmpl	$2, %ecx
	ja	.L45
.LVL68:
.L44:
.LBE42:
	.loc 1 1494 0
	cmpl	$261, 32(%esp)
	ja	.L39
	.loc 1 1494 0 is_stmt 0 discriminator 1
	movl	(%ebx), %eax
	movl	4(%eax), %eax
	testl	%eax, %eax
	je	.L39
	.loc 1 1494 0
	movl	44(%ebx), %eax
	movl	32(%esp), %edi
	jmp	.L47
.LVL69:
	.p2align 2,,3
.L52:
.LBB43:
.LBB38:
	.loc 1 1083 0 is_stmt 1
	xorl	%edi, %edi
.LVL70:
.L40:
.LBE38:
.LBE43:
	.loc 1 1467 0
	addl	%ecx, %eax
.LVL71:
	addl	%esi, %eax
.LBB44:
.LBB39:
	.loc 1 1086 0
	movl	%edi, 4(%ebp)
	.loc 1 1088 0
	movl	0(%ebp), %esi
.LVL72:
	movl	%eax, %edi
	movl	%edx, %ecx
.LVL73:
	rep movsb
	.loc 1 1089 0
	movl	28(%ebp), %ecx
	movl	24(%ecx), %ecx
	cmpl	$1, %ecx
	je	.L59
	.loc 1 1093 0
	cmpl	$2, %ecx
	je	.L60
.L43:
	.loc 1 1097 0
	addl	%edx, 0(%ebp)
	.loc 1 1098 0
	addl	%edx, 8(%ebp)
	movl	116(%ebx), %eax
	jmp	.L41
.LVL74:
	.p2align 2,,3
.L57:
.LBE39:
.LBE44:
	.loc 1 1421 0
	movl	56(%ebx), %eax
	movl	36(%esp), %esi
	addl	%eax, %esi
	movl	%eax, %edi
	movl	36(%esp), %ecx
	rep movsb
	.loc 1 1422 0
	movl	36(%esp), %ecx
	subl	%ecx, 112(%ebx)
	.loc 1 1423 0
	movl	108(%ebx), %ecx
	subl	36(%esp), %ecx
	movl	%ecx, 108(%ebx)
	.loc 1 1424 0
	movl	36(%esp), %edi
	subl	%edi, 92(%ebx)
	.loc 1 1432 0
	movl	76(%ebx), %eax
.LVL75:
	.loc 1 1433 0
	leal	(%eax,%eax), %edx
	addl	68(%ebx), %edx
.LVL76:
	.loc 1 1390 0
	movl	%eax, %esi
	negl	%esi
	leal	(%edx,%esi,2), %esi
.LVL77:
	.p2align 2,,3
.L35:
	.loc 1 1435 0
	movzwl	-2(%esi,%eax,2), %edx
	.loc 1 1436 0
	movl	%edx, %ebp
	subl	%edi, %ebp
	cmpl	%edx, %edi
	jbe	.L34
	xorl	%ebp, %ebp
.L34:
	movw	%bp, -2(%esi,%eax,2)
.LVL78:
	.loc 1 1437 0
	decl	%eax
.LVL79:
	jne	.L35
.LVL80:
	.loc 1 1441 0
	movl	56(%esp), %esi
	addl	64(%ebx), %esi
.LVL81:
	.loc 1 1396 0
	movl	36(%esp), %eax
	.loc 1 1390 0
	addl	60(%esp), %esi
.LVL82:
	movl	%eax, %edi
.LVL83:
	.p2align 2,,3
.L38:
	.loc 1 1443 0
	movzwl	-2(%esi,%eax,2), %edx
	.loc 1 1444 0
	movl	%edx, %ebp
	subl	%edi, %ebp
	cmpl	%edx, %edi
	jbe	.L37
	xorl	%ebp, %ebp
.L37:
	movw	%bp, -2(%esi,%eax,2)
.LVL84:
	.loc 1 1448 0
	decl	%eax
.LVL85:
	jne	.L38
	.loc 1 1450 0
	movl	36(%esp), %ebp
	addl	%ebp, 28(%esp)
	.loc 1 1452 0
	movl	(%ebx), %ebp
	movl	4(%ebp), %edx
	testl	%edx, %edx
	jne	.L61
.LVL86:
	.p2align 2,,3
.L39:
	.loc 1 1503 0
	movl	5824(%ebx), %edx
	movl	60(%ebx), %ebp
	cmpl	%ebp, %edx
	jae	.L31
.LBB45:
	.loc 1 1504 0
	movl	116(%ebx), %esi
	addl	108(%ebx), %esi
.LVL87:
	.loc 1 1507 0
	cmpl	%esi, %edx
	jae	.L49
.LVL88:
	.loc 1 1511 0
	subl	%esi, %ebp
	cmpl	$258, %ebp
	ja	.L62
.L50:
.LVL89:
	.loc 1 1514 0
	movl	56(%ebx), %edx
	addl	%esi, %edx
	xorl	%eax, %eax
	movl	%edx, %edi
	movl	%ebp, %ecx
	rep stosb
	.loc 1 1515 0
	addl	%ebp, %esi
.LVL90:
	movl	%esi, 5824(%ebx)
.LVL91:
.L31:
.LBE45:
	.loc 1 1532 0
	addl	$76, %esp
	.cfi_remember_state
.LCFI16:
	.cfi_def_cfa_offset 20
	popl	%ebx
.LCFI17:
	.cfi_def_cfa_offset 16
	.cfi_restore 3
.LVL92:
	popl	%esi
.LCFI18:
	.cfi_def_cfa_offset 12
	.cfi_restore 6
	popl	%edi
.LCFI19:
	.cfi_def_cfa_offset 8
	.cfi_restore 7
	popl	%ebp
.LCFI20:
	.cfi_def_cfa_offset 4
	.cfi_restore 5
	ret
.LVL93:
	.p2align 2,,3
.L49:
.LCFI21:
	.cfi_restore_state
.LBB46:
	.loc 1 1517 0
	leal	258(%esi), %eax
	cmpl	%eax, %edx
	jae	.L31
	.loc 1 1522 0
	subl	%edx, %esi
.LVL94:
	.loc 1 1523 0
	subl	%edx, %ebp
	.loc 1 1522 0
	addl	$258, %esi
.LVL95:
	cmpl	%ebp, %esi
	jbe	.L51
	movl	%ebp, %esi
.LVL96:
.L51:
	.loc 1 1525 0
	addl	56(%ebx), %edx
	xorl	%eax, %eax
.LVL97:
	movl	%edx, %edi
	movl	%esi, %ecx
	rep stosb
	.loc 1 1526 0
	addl	%esi, 5824(%ebx)
.LBE46:
	.loc 1 1532 0
	addl	$76, %esp
	.cfi_remember_state
.LCFI22:
	.cfi_def_cfa_offset 20
	popl	%ebx
	.cfi_restore 3
.LCFI23:
	.cfi_def_cfa_offset 16
.LVL98:
	popl	%esi
	.cfi_restore 6
.LCFI24:
	.cfi_def_cfa_offset 12
.LVL99:
	popl	%edi
	.cfi_restore 7
.LCFI25:
	.cfi_def_cfa_offset 8
	popl	%ebp
	.cfi_restore 5
.LCFI26:
	.cfi_def_cfa_offset 4
	ret
.LVL100:
	.p2align 2,,3
.L59:
.LCFI27:
	.cfi_restore_state
.LBB47:
.LBB40:
	.loc 1 1090 0
	movl	%edx, 8(%esp)
	movl	%eax, 4(%esp)
	movl	48(%ebp), %eax
	movl	%eax, (%esp)
	movl	%edx, 24(%esp)
	call	adler32
	movl	%eax, 48(%ebp)
	movl	24(%esp), %edx
	jmp	.L43
	.p2align 2,,3
.L60:
	.loc 1 1094 0
	movl	%edx, 8(%esp)
	movl	%eax, 4(%esp)
	movl	48(%ebp), %eax
	movl	%eax, (%esp)
	movl	%edx, 24(%esp)
	call	crc32
	movl	%eax, 48(%ebp)
	movl	24(%esp), %edx
	jmp	.L43
.LVL101:
	.p2align 2,,3
.L62:
.LBE40:
.LBE47:
.LBB48:
	.loc 1 1511 0
	movl	$258, %ebp
.LVL102:
	jmp	.L50
.LVL103:
.L58:
.LBE48:
.LBB49:
.LBB41:
	.loc 1 1084 0
	movl	%edx, %edi
.LVL104:
	subl	28(%esp), %edi
	movl	28(%esp), %edx
	jmp	.L40
.LBE41:
.LBE49:
	.cfi_endproc
.LFE44:
	.size	fill_window, .-fill_window
	.p2align 2,,3
	.type	lm_init, @function
lm_init:
.LFB42:
	.loc 1 1108 0
	.cfi_startproc
.LVL105:
	pushl	%edi
.LCFI28:
	.cfi_def_cfa_offset 8
	.cfi_offset 7, -8
	pushl	%ebx
.LCFI29:
	.cfi_def_cfa_offset 12
	.cfi_offset 3, -12
	movl	%eax, %edx
	.loc 1 1109 0
	movl	44(%eax), %eax
.LVL106:
	sall	%eax
	movl	%eax, 60(%edx)
	.loc 1 1111 0
	movl	68(%edx), %ebx
	movl	76(%edx), %eax
	movw	$0, -2(%ebx,%eax,2)
	leal	-2(%eax,%eax), %ecx
	xorl	%eax, %eax
	movl	%ebx, %edi
	rep stosb
	.loc 1 1115 0
	movl	132(%edx), %eax
	leal	(%eax,%eax,2), %ecx
	sall	$2, %ecx
	leal	configuration_table(%ecx), %eax
	movzwl	configuration_table+2(%ecx), %ebx
	movl	%ebx, 128(%edx)
	.loc 1 1116 0
	movzwl	configuration_table(%ecx), %ecx
	movl	%ecx, 140(%edx)
	.loc 1 1117 0
	movzwl	4(%eax), %ecx
	movl	%ecx, 144(%edx)
	.loc 1 1118 0
	movzwl	6(%eax), %eax
	movl	%eax, 124(%edx)
	.loc 1 1120 0
	movl	$0, 108(%edx)
	.loc 1 1121 0
	movl	$0, 92(%edx)
	.loc 1 1122 0
	movl	$0, 116(%edx)
	.loc 1 1123 0
	movl	$0, 5812(%edx)
	.loc 1 1124 0
	movl	$2, 120(%edx)
	movl	$2, 96(%edx)
	.loc 1 1125 0
	movl	$0, 104(%edx)
	.loc 1 1126 0
	movl	$0, 72(%edx)
	.loc 1 1132 0
	popl	%ebx
.LCFI30:
	.cfi_def_cfa_offset 8
	.cfi_restore 3
	popl	%edi
.LCFI31:
	.cfi_def_cfa_offset 4
	.cfi_restore 7
	ret
	.cfi_endproc
.LFE42:
	.size	lm_init, .-lm_init
	.p2align 2,,3
	.type	flush_pending, @function
flush_pending:
.LFB37:
	.loc 1 644 0
	.cfi_startproc
.LVL107:
	pushl	%ebp
.LCFI32:
	.cfi_def_cfa_offset 8
	.cfi_offset 5, -8
	pushl	%edi
.LCFI33:
	.cfi_def_cfa_offset 12
	.cfi_offset 7, -12
	pushl	%esi
.LCFI34:
	.cfi_def_cfa_offset 16
	.cfi_offset 6, -16
	pushl	%ebx
.LCFI35:
	.cfi_def_cfa_offset 20
	.cfi_offset 3, -20
	subl	$28, %esp
.LCFI36:
	.cfi_def_cfa_offset 48
	movl	%eax, %ebx
	.loc 1 646 0
	movl	28(%eax), %ebp
.LVL108:
	.loc 1 648 0
	movl	%ebp, (%esp)
	call	_tr_flush_bits
.LVL109:
	.loc 1 649 0
	movl	20(%ebp), %eax
.LVL110:
	movl	16(%ebx), %edx
	cmpl	%eax, %edx
	jbe	.L65
	movl	%eax, %edx
.L65:
.LVL111:
	.loc 1 651 0
	testl	%edx, %edx
	jne	.L67
.L64:
	.loc 1 662 0
	addl	$28, %esp
	.cfi_remember_state
.LCFI37:
	.cfi_def_cfa_offset 20
	popl	%ebx
.LCFI38:
	.cfi_def_cfa_offset 16
	.cfi_restore 3
.LVL112:
	popl	%esi
.LCFI39:
	.cfi_def_cfa_offset 12
	.cfi_restore 6
	popl	%edi
.LCFI40:
	.cfi_def_cfa_offset 8
	.cfi_restore 7
	popl	%ebp
.LCFI41:
	.cfi_def_cfa_offset 4
	.cfi_restore 5
.LVL113:
	ret
.LVL114:
	.p2align 2,,3
.L67:
.LCFI42:
	.cfi_restore_state
	.loc 1 653 0
	movl	12(%ebx), %eax
	movl	16(%ebp), %esi
	movl	%eax, %edi
	movl	%edx, %ecx
	rep movsb
	.loc 1 654 0
	addl	%edx, 12(%ebx)
	.loc 1 655 0
	addl	%edx, 16(%ebp)
	.loc 1 656 0
	addl	%edx, 20(%ebx)
	.loc 1 657 0
	subl	%edx, 16(%ebx)
	.loc 1 658 0
	movl	20(%ebp), %eax
	subl	%edx, %eax
	movl	%eax, 20(%ebp)
	.loc 1 659 0
	testl	%eax, %eax
	jne	.L64
	.loc 1 660 0
	movl	8(%ebp), %eax
	movl	%eax, 16(%ebp)
	.loc 1 662 0
	addl	$28, %esp
.LCFI43:
	.cfi_def_cfa_offset 20
	popl	%ebx
	.cfi_restore 3
.LCFI44:
	.cfi_def_cfa_offset 16
.LVL115:
	popl	%esi
	.cfi_restore 6
.LCFI45:
	.cfi_def_cfa_offset 12
	popl	%edi
	.cfi_restore 7
.LCFI46:
	.cfi_def_cfa_offset 8
	popl	%ebp
	.cfi_restore 5
.LCFI47:
	.cfi_def_cfa_offset 4
.LVL116:
	ret
	.cfi_endproc
.LFE37:
	.size	flush_pending, .-flush_pending
	.p2align 2,,3
	.type	deflate_slow, @function
deflate_slow:
.LFB47:
	.loc 1 1733 0
	.cfi_startproc
.LVL117:
	pushl	%ebp
.LCFI48:
	.cfi_def_cfa_offset 8
	.cfi_offset 5, -8
	pushl	%edi
.LCFI49:
	.cfi_def_cfa_offset 12
	.cfi_offset 7, -12
	pushl	%esi
.LCFI50:
	.cfi_def_cfa_offset 16
	.cfi_offset 6, -16
	pushl	%ebx
.LCFI51:
	.cfi_def_cfa_offset 20
	.cfi_offset 3, -20
	subl	$44, %esp
.LCFI52:
	.cfi_def_cfa_offset 64
	movl	64(%esp), %ebx
.L110:
	.loc 1 1852 0
	movl	116(%ebx), %eax
	movl	%eax, 16(%esp)
	.p2align 2,,3
.L109:
	.loc 1 1744 0
	cmpl	$261, 16(%esp)
	jbe	.L113
.L93:
	.loc 1 1757 0
	movl	108(%ebx), %esi
	movl	56(%ebx), %eax
	movzbl	2(%eax,%esi), %eax
	movl	88(%ebx), %ecx
	movl	72(%ebx), %edx
	sall	%cl, %edx
	xorl	%edx, %eax
	andl	84(%ebx), %eax
	movl	%eax, 72(%ebx)
	movl	68(%ebx), %edi
	leal	(%edi,%eax,2), %eax
	movzwl	(%eax), %edx
	movl	52(%ebx), %edi
	andl	%esi, %edi
	movl	64(%ebx), %ecx
	movw	%dx, (%ecx,%edi,2)
.LVL118:
	movw	%si, (%eax)
	.loc 1 1762 0
	movl	96(%ebx), %edi
	movl	%edi, 120(%ebx)
	movl	112(%ebx), %eax
	movl	%eax, 100(%ebx)
	.loc 1 1763 0
	movl	$2, 96(%ebx)
	.loc 1 1765 0
	testl	%edx, %edx
	je	.L97
	.loc 1 1765 0 is_stmt 0 discriminator 1
	cmpl	128(%ebx), %edi
	jae	.L97
	.loc 1 1766 0 is_stmt 1 discriminator 1
	subl	%edx, %esi
	movl	44(%ebx), %eax
	subl	$262, %eax
	.loc 1 1765 0 discriminator 1
	cmpl	%eax, %esi
	jbe	.L114
.L97:
	.loc 1 1765 0 is_stmt 0
	movl	$2, %eax
.LVL119:
.L74:
	.loc 1 1790 0 is_stmt 1
	cmpl	$2, %edi
	jbe	.L78
	.loc 1 1790 0 is_stmt 0 discriminator 1
	cmpl	%eax, %edi
	jb	.L78
.LBB50:
	.loc 1 1791 0 is_stmt 1
	movl	108(%ebx), %ecx
	movl	116(%ebx), %eax
	addl	%ecx, %eax
	subl	$3, %eax
	movl	%eax, 20(%esp)
.LVL120:
.LBB51:
	.loc 1 1796 0
	leal	-3(%edi), %edx
.LVL121:
	subw	100(%ebx), %cx
.LVL122:
	movl	5792(%ebx), %eax
.LVL123:
	movl	5796(%ebx), %esi
	leal	-1(%ecx), %edi
	movw	%di, (%esi,%eax,2)
	movl	5784(%ebx), %esi
	movb	%dl, (%esi,%eax)
	incl	%eax
	movl	%eax, 24(%esp)
	movl	%eax, 5792(%ebx)
	subl	$2, %ecx
.LVL124:
	movzbl	%dl, %edx
.LVL125:
	movzbl	_length_code(%edx), %eax
	incw	1176(%ebx,%eax,4)
	cmpw	$255, %cx
	ja	.L79
	.loc 1 1796 0 is_stmt 0 discriminator 1
	movzwl	%cx, %ecx
	movzbl	_dist_code(%ecx), %eax
.LVL126:
.L80:
	.loc 1 1796 0 discriminator 3
	incw	2440(%ebx,%eax,4)
	movl	5788(%ebx), %eax
	decl	%eax
	movl	%eax, 28(%esp)
.LVL127:
.LBE51:
	.loc 1 1804 0 is_stmt 1 discriminator 3
	movl	120(%ebx), %edx
	movl	116(%ebx), %eax
.LVL128:
	incl	%eax
	subl	%edx, %eax
	movl	%eax, 16(%esp)
	movl	%eax, 116(%ebx)
	.loc 1 1805 0 discriminator 3
	subl	$2, %edx
	movl	%edx, 120(%ebx)
	movl	108(%ebx), %ecx
	jmp	.L82
	.p2align 2,,3
.L98:
	.loc 1 1807 0
	movl	%eax, %ecx
.L82:
	leal	1(%ecx), %eax
	movl	%eax, 108(%ebx)
	cmpl	%eax, 20(%esp)
	jb	.L81
	.loc 1 1808 0
	movl	56(%ebx), %esi
	movzbl	3(%esi,%ecx), %esi
	movl	88(%ebx), %ecx
	movl	72(%ebx), %edi
	sall	%cl, %edi
	xorl	%edi, %esi
	andl	84(%ebx), %esi
	movl	%esi, 72(%ebx)
	movl	68(%ebx), %ecx
	leal	(%ecx,%esi,2), %esi
	movw	(%esi), %bp
	movl	52(%ebx), %edi
	andl	%eax, %edi
	movl	64(%ebx), %ecx
	movw	%bp, (%ecx,%edi,2)
	movw	%ax, (%esi)
.L81:
	.loc 1 1810 0
	decl	%edx
	movl	%edx, 120(%ebx)
	testl	%edx, %edx
	jne	.L98
	.loc 1 1811 0
	movl	$0, 104(%ebx)
	.loc 1 1812 0
	movl	$2, 96(%ebx)
	.loc 1 1813 0
	incl	%eax
	movl	%eax, 108(%ebx)
	.loc 1 1815 0
	movl	28(%esp), %edx
	cmpl	%edx, 24(%esp)
	jne	.L109
	.loc 1 1815 0 is_stmt 0 discriminator 1
	movl	92(%ebx), %edx
	subl	%edx, %eax
	testl	%edx, %edx
	js	.L99
	addl	56(%ebx), %edx
.L84:
	.loc 1 1815 0 discriminator 3
	movl	$0, 12(%esp)
	movl	%eax, 8(%esp)
	movl	%edx, 4(%esp)
	movl	%ebx, (%esp)
	call	_tr_flush_block
.LVL129:
	movl	108(%ebx), %eax
	movl	%eax, 92(%ebx)
	movl	(%ebx), %eax
	call	flush_pending
	movl	(%ebx), %eax
	movl	16(%eax), %ebp
	testl	%ebp, %ebp
	jne	.L110
.LVL130:
.L102:
.LBE50:
	.loc 1 1829 0 is_stmt 1
	xorl	%eax, %eax
	.loc 1 1853 0
	addl	$44, %esp
	.cfi_remember_state
.LCFI53:
	.cfi_def_cfa_offset 20
	popl	%ebx
.LCFI54:
	.cfi_def_cfa_offset 16
	.cfi_restore 3
	popl	%esi
.LCFI55:
	.cfi_def_cfa_offset 12
	.cfi_restore 6
	popl	%edi
.LCFI56:
	.cfi_def_cfa_offset 8
	.cfi_restore 7
	popl	%ebp
.LCFI57:
	.cfi_def_cfa_offset 4
	.cfi_restore 5
	ret
	.p2align 2,,3
.L78:
.LCFI58:
	.cfi_restore_state
	.loc 1 1817 0
	movl	104(%ebx), %edi
	testl	%edi, %edi
	je	.L85
.LBB53:
	.loc 1 1823 0
	movl	56(%ebx), %edx
	movl	108(%ebx), %eax
	movb	-1(%edx,%eax), %dl
.LVL131:
	movl	5792(%ebx), %eax
	movl	5796(%ebx), %ecx
	movw	$0, (%ecx,%eax,2)
	movl	5784(%ebx), %ecx
	movb	%dl, (%ecx,%eax)
	incl	%eax
	movl	%eax, 5792(%ebx)
	movzbl	%dl, %edx
	incw	148(%ebx,%edx,4)
.LVL132:
	movl	5788(%ebx), %edx
	decl	%edx
.LBE53:
	.loc 1 1824 0
	cmpl	%edx, %eax
	je	.L115
.LVL133:
.L86:
	.loc 1 1827 0
	incl	108(%ebx)
	.loc 1 1828 0
	movl	116(%ebx), %eax
	decl	%eax
	movl	%eax, 16(%esp)
	movl	%eax, 116(%ebx)
	.loc 1 1829 0
	movl	(%ebx), %eax
	movl	16(%eax), %esi
	testl	%esi, %esi
	je	.L102
	.loc 1 1744 0
	cmpl	$261, 16(%esp)
	ja	.L93
.L113:
	.loc 1 1745 0
	movl	%ebx, %eax
	call	fill_window
	.loc 1 1746 0
	movl	116(%ebx), %eax
	cmpl	$261, %eax
	ja	.L93
	.loc 1 1746 0 is_stmt 0 discriminator 1
	movl	68(%esp), %ebp
	testl	%ebp, %ebp
	je	.L102
	.loc 1 1749 0 is_stmt 1
	testl	%eax, %eax
	je	.L72
.LVL134:
	.loc 1 1756 0
	cmpl	$2, %eax
	ja	.L93
	.loc 1 1762 0
	movl	96(%ebx), %edi
	movl	%edi, 120(%ebx)
	movl	112(%ebx), %eax
	movl	%eax, 100(%ebx)
	.loc 1 1763 0
	movl	$2, 96(%ebx)
	movl	$2, %eax
	jmp	.L74
.LVL135:
	.p2align 2,,3
.L85:
	.loc 1 1834 0
	movl	$1, 104(%ebx)
	.loc 1 1835 0
	incl	108(%ebx)
	.loc 1 1836 0
	movl	116(%ebx), %eax
	decl	%eax
	movl	%eax, 16(%esp)
	movl	%eax, 116(%ebx)
	jmp	.L109
.LVL136:
	.p2align 2,,3
.L79:
.LBB54:
.LBB52:
	.loc 1 1796 0 discriminator 2
	shrw	$7, %cx
.LVL137:
	movzwl	%cx, %ecx
	movzbl	_dist_code+256(%ecx), %eax
	jmp	.L80
.LVL138:
	.p2align 2,,3
.L115:
.LBE52:
.LBE54:
	.loc 1 1825 0
	movl	92(%ebx), %edx
	movl	108(%ebx), %eax
.LVL139:
	subl	%edx, %eax
	testl	%edx, %edx
	js	.L101
	.loc 1 1825 0 is_stmt 0 discriminator 1
	addl	56(%ebx), %edx
.L87:
	.loc 1 1825 0 discriminator 3
	movl	$0, 12(%esp)
	movl	%eax, 8(%esp)
	movl	%edx, 4(%esp)
	movl	%ebx, (%esp)
	call	_tr_flush_block
.LVL140:
	movl	108(%ebx), %eax
	movl	%eax, 92(%ebx)
	movl	(%ebx), %eax
	call	flush_pending
	jmp	.L86
.LVL141:
	.p2align 2,,3
.L114:
	.loc 1 1771 0 is_stmt 1
	movl	%ebx, %eax
	call	longest_match
.LVL142:
	movl	%eax, 96(%ebx)
	.loc 1 1774 0
	cmpl	$5, %eax
	ja	.L111
	.loc 1 1774 0 is_stmt 0 discriminator 1
	cmpl	$1, 136(%ebx)
	je	.L76
	.loc 1 1776 0 is_stmt 1
	cmpl	$3, %eax
	je	.L77
.L111:
	movl	120(%ebx), %edi
	jmp	.L74
.LVL143:
	.p2align 2,,3
.L101:
	.loc 1 1825 0
	xorl	%edx, %edx
	jmp	.L87
.LVL144:
.L99:
.LBB55:
	.loc 1 1815 0
	xorl	%edx, %edx
	jmp	.L84
.LVL145:
.L77:
.LBE55:
	.loc 1 1777 0 discriminator 1
	movl	108(%ebx), %edx
	subl	112(%ebx), %edx
	.loc 1 1776 0 discriminator 1
	cmpl	$4096, %edx
	jbe	.L111
.L76:
	.loc 1 1784 0
	movl	$2, 96(%ebx)
	movl	120(%ebx), %edi
	movl	$2, %eax
	jmp	.L74
.L72:
	.loc 1 1840 0
	movl	104(%ebx), %ecx
	testl	%ecx, %ecx
	je	.L88
.LBB56:
	.loc 1 1842 0
	movl	56(%ebx), %edx
	movl	108(%ebx), %eax
	movb	-1(%edx,%eax), %dl
.LVL146:
	movl	5792(%ebx), %eax
	movl	5796(%ebx), %ecx
	movw	$0, (%ecx,%eax,2)
	movl	5784(%ebx), %ecx
	movb	%dl, (%ecx,%eax)
	incl	%eax
	movl	%eax, 5792(%ebx)
	movzbl	%dl, %eax
	incw	148(%ebx,%eax,4)
.LVL147:
.LBE56:
	.loc 1 1843 0
	movl	$0, 104(%ebx)
.LVL148:
.L88:
	.loc 1 1845 0
	movl	108(%ebx), %eax
	movl	%eax, %edx
	cmpl	$2, %eax
	ja	.L116
	movl	%edx, 5812(%ebx)
	.loc 1 1846 0
	cmpl	$4, 68(%esp)
	je	.L117
.L90:
	.loc 1 1850 0
	movl	5792(%ebx), %edx
	testl	%edx, %edx
	je	.L105
	.loc 1 1851 0
	movl	92(%ebx), %edx
	subl	%edx, %eax
	testl	%edx, %edx
	js	.L106
	.loc 1 1851 0 is_stmt 0 discriminator 1
	addl	56(%ebx), %edx
.L92:
	.loc 1 1851 0 discriminator 3
	movl	$0, 12(%esp)
	movl	%eax, 8(%esp)
	movl	%edx, 4(%esp)
	movl	%ebx, (%esp)
	call	_tr_flush_block
	movl	108(%ebx), %eax
	movl	%eax, 92(%ebx)
	movl	(%ebx), %eax
	call	flush_pending
	movl	(%ebx), %eax
	.loc 1 1730 0 is_stmt 1 discriminator 3
	movl	16(%eax), %ebp
	.loc 1 1747 0 discriminator 3
	xorl	%eax, %eax
	testl	%ebp, %ebp
	setne	%al
	.loc 1 1853 0 discriminator 3
	addl	$44, %esp
	.cfi_remember_state
.LCFI59:
	.cfi_def_cfa_offset 20
	popl	%ebx
	.cfi_restore 3
.LCFI60:
	.cfi_def_cfa_offset 16
	popl	%esi
	.cfi_restore 6
.LCFI61:
	.cfi_def_cfa_offset 12
	popl	%edi
	.cfi_restore 7
.LCFI62:
	.cfi_def_cfa_offset 8
	popl	%ebp
	.cfi_restore 5
.LCFI63:
	.cfi_def_cfa_offset 4
	ret
.L116:
.LCFI64:
	.cfi_restore_state
	.loc 1 1845 0
	movl	$2, %edx
	movl	%edx, 5812(%ebx)
	.loc 1 1846 0
	cmpl	$4, 68(%esp)
	jne	.L90
.L117:
	.loc 1 1847 0
	movl	92(%ebx), %edx
	subl	%edx, %eax
	testl	%edx, %edx
	js	.L103
	.loc 1 1847 0 is_stmt 0 discriminator 1
	addl	56(%ebx), %edx
.L91:
	.loc 1 1847 0 discriminator 3
	movl	$1, 12(%esp)
	movl	%eax, 8(%esp)
	movl	%edx, 4(%esp)
	movl	%ebx, (%esp)
	call	_tr_flush_block
	movl	108(%ebx), %eax
	movl	%eax, 92(%ebx)
	movl	(%ebx), %eax
	call	flush_pending
	movl	(%ebx), %eax
	cmpl	$1, 16(%eax)
	sbbl	%eax, %eax
	addl	$3, %eax
	.loc 1 1853 0 is_stmt 1 discriminator 3
	addl	$44, %esp
	.cfi_remember_state
.LCFI65:
	.cfi_def_cfa_offset 20
	popl	%ebx
	.cfi_restore 3
.LCFI66:
	.cfi_def_cfa_offset 16
	popl	%esi
	.cfi_restore 6
.LCFI67:
	.cfi_def_cfa_offset 12
	popl	%edi
	.cfi_restore 7
.LCFI68:
	.cfi_def_cfa_offset 8
	popl	%ebp
	.cfi_restore 5
.LCFI69:
	.cfi_def_cfa_offset 4
	ret
.L105:
.LCFI70:
	.cfi_restore_state
	.loc 1 1852 0
	movl	$1, %eax
	.loc 1 1853 0
	addl	$44, %esp
	.cfi_remember_state
.LCFI71:
	.cfi_def_cfa_offset 20
	popl	%ebx
	.cfi_restore 3
.LCFI72:
	.cfi_def_cfa_offset 16
	popl	%esi
	.cfi_restore 6
.LCFI73:
	.cfi_def_cfa_offset 12
	popl	%edi
	.cfi_restore 7
.LCFI74:
	.cfi_def_cfa_offset 8
	popl	%ebp
	.cfi_restore 5
.LCFI75:
	.cfi_def_cfa_offset 4
	ret
.L106:
.LCFI76:
	.cfi_restore_state
	.loc 1 1851 0
	xorl	%edx, %edx
	jmp	.L92
.L103:
	.loc 1 1847 0
	xorl	%edx, %edx
	jmp	.L91
	.cfi_endproc
.LFE47:
	.size	deflate_slow, .-deflate_slow
	.p2align 2,,3
	.type	deflate_fast, @function
deflate_fast:
.LFB46:
	.loc 1 1631 0
	.cfi_startproc
.LVL149:
	pushl	%ebp
.LCFI77:
	.cfi_def_cfa_offset 8
	.cfi_offset 5, -8
	pushl	%edi
.LCFI78:
	.cfi_def_cfa_offset 12
	.cfi_offset 7, -12
	pushl	%esi
.LCFI79:
	.cfi_def_cfa_offset 16
	.cfi_offset 6, -16
	pushl	%ebx
.LCFI80:
	.cfi_def_cfa_offset 20
	.cfi_offset 3, -20
	subl	$76, %esp
.LCFI81:
	.cfi_def_cfa_offset 96
	movl	96(%esp), %ebx
.L134:
	.loc 1 1721 0
	movl	116(%ebx), %eax
	movl	%eax, 24(%esp)
	.p2align 2,,3
.L132:
	.loc 1 1641 0
	cmpl	$261, 24(%esp)
	jbe	.L149
.L122:
	.loc 1 1654 0
	movl	108(%ebx), %esi
	movl	56(%ebx), %eax
	movzbl	2(%eax,%esi), %eax
	movl	88(%ebx), %ecx
	movl	72(%ebx), %edx
	sall	%cl, %edx
	xorl	%edx, %eax
	andl	84(%ebx), %eax
	movl	%eax, 72(%ebx)
	movl	68(%ebx), %edi
	leal	(%edi,%eax,2), %eax
	movzwl	(%eax), %edx
	movl	52(%ebx), %edi
	andl	%esi, %edi
	movl	64(%ebx), %ecx
	movw	%dx, (%ecx,%edi,2)
.LVL150:
	movw	%si, (%eax)
	.loc 1 1660 0
	testl	%edx, %edx
	je	.L148
	.loc 1 1660 0 is_stmt 0 discriminator 1
	movl	%esi, %ecx
	subl	%edx, %ecx
	movl	44(%ebx), %eax
	subl	$262, %eax
	cmpl	%eax, %ecx
	jbe	.L125
.L148:
	.loc 1 1660 0
	movl	96(%ebx), %eax
.LVL151:
.L123:
	.loc 1 1668 0 is_stmt 1
	cmpl	$2, %eax
	jbe	.L126
.LBB57:
	.loc 1 1671 0
	subl	$3, %eax
.LVL152:
	subw	112(%ebx), %si
.LVL153:
	movl	5792(%ebx), %edx
	movl	5796(%ebx), %ecx
	movw	%si, (%ecx,%edx,2)
	movl	5784(%ebx), %ecx
	movb	%al, (%ecx,%edx)
	incl	%edx
	movl	%edx, 5792(%ebx)
	decl	%esi
.LVL154:
	movzbl	%al, %eax
.LVL155:
	movzbl	_length_code(%eax), %eax
	incw	1176(%ebx,%eax,4)
	cmpw	$255, %si
	ja	.L127
	.loc 1 1671 0 is_stmt 0 discriminator 1
	movzwl	%si, %esi
	movzbl	_dist_code(%esi), %eax
.LVL156:
.L128:
	.loc 1 1671 0 discriminator 3
	incw	2440(%ebx,%eax,4)
	movl	5788(%ebx), %eax
	decl	%eax
	cmpl	%eax, %edx
	sete	%dl
	movzbl	%dl, %edx
	movl	%edx, 32(%esp)
.LVL157:
.LBE57:
	.loc 1 1674 0 is_stmt 1 discriminator 3
	movl	96(%ebx), %esi
	movl	%esi, 28(%esp)
	movl	116(%ebx), %edi
	subl	%esi, %edi
	movl	%edi, 24(%esp)
	movl	%edi, 116(%ebx)
	.loc 1 1680 0 discriminator 3
	cmpl	128(%ebx), %esi
	ja	.L129
	.loc 1 1680 0 is_stmt 0 discriminator 1
	cmpl	$2, %edi
	jbe	.L129
	.loc 1 1682 0 is_stmt 1
	decl	%esi
	movl	%esi, 96(%ebx)
	movl	108(%ebx), %ebp
	movl	%ebp, 60(%esp)
	movl	72(%ebx), %eax
	movl	64(%ebx), %edx
.LVL158:
	movl	%edx, 36(%esp)
	movl	52(%ebx), %edi
	movl	%edi, 40(%esp)
	movl	68(%ebx), %ebp
	movl	%ebp, 44(%esp)
	movl	56(%ebx), %edx
	movl	%edx, 48(%esp)
	movl	88(%ebx), %ecx
	movl	%ecx, 52(%esp)
	movl	84(%ebx), %edi
	movl	%edi, 56(%esp)
	movl	60(%esp), %edx
	movl	%esi, 16(%esp)
	.p2align 2,,3
.L130:
	.loc 1 1684 0 discriminator 1
	incl	%edx
	movl	%edx, 108(%ebx)
	.loc 1 1685 0 discriminator 1
	movl	48(%esp), %ebp
	movzbl	2(%ebp,%edx), %edi
	movb	52(%esp), %cl
	sall	%cl, %eax
	xorl	%edi, %eax
	andl	56(%esp), %eax
	movl	%eax, 72(%ebx)
	movl	44(%esp), %esi
	leal	(%esi,%eax,2), %ecx
	movl	40(%esp), %edi
	andl	%edx, %edi
	movw	(%ecx), %si
	movl	36(%esp), %ebp
	movw	%si, 0(%ebp,%edi,2)
	movw	%dx, (%ecx)
	.loc 1 1689 0 discriminator 1
	decl	16(%esp)
	movl	16(%esp), %edi
	movl	%edi, 96(%ebx)
	testl	%edi, %edi
	jne	.L130
	.loc 1 1690 0
	movl	60(%esp), %eax
	addl	28(%esp), %eax
	movl	%eax, 108(%ebx)
.LVL159:
	.p2align 2,,3
.L131:
	.loc 1 1712 0
	movl	32(%esp), %esi
	testl	%esi, %esi
	je	.L132
	.loc 1 1712 0 is_stmt 0 discriminator 1
	movl	92(%ebx), %edx
	subl	%edx, %eax
	testl	%edx, %edx
	js	.L140
	addl	56(%ebx), %edx
.L133:
	.loc 1 1712 0 discriminator 3
	movl	$0, 12(%esp)
	movl	%eax, 8(%esp)
	movl	%edx, 4(%esp)
	movl	%ebx, (%esp)
	call	_tr_flush_block
	movl	108(%ebx), %eax
	movl	%eax, 92(%ebx)
	movl	(%ebx), %eax
	call	flush_pending
	movl	(%ebx), %eax
	movl	16(%eax), %ecx
	testl	%ecx, %ecx
	jne	.L134
.LVL160:
.L141:
	.loc 1 1712 0
	xorl	%eax, %eax
	.loc 1 1722 0 is_stmt 1
	addl	$76, %esp
	.cfi_remember_state
.LCFI82:
	.cfi_def_cfa_offset 20
	popl	%ebx
.LCFI83:
	.cfi_def_cfa_offset 16
	.cfi_restore 3
	popl	%esi
.LCFI84:
	.cfi_def_cfa_offset 12
	.cfi_restore 6
	popl	%edi
.LCFI85:
	.cfi_def_cfa_offset 8
	.cfi_restore 7
	popl	%ebp
.LCFI86:
	.cfi_def_cfa_offset 4
	.cfi_restore 5
	ret
	.p2align 2,,3
.L126:
.LCFI87:
	.cfi_restore_state
.LBB58:
	.loc 1 1708 0
	movl	56(%ebx), %eax
	movb	(%eax,%esi), %dl
.LVL161:
	movl	5792(%ebx), %eax
	movl	5796(%ebx), %ecx
	movw	$0, (%ecx,%eax,2)
	movl	5784(%ebx), %ecx
	movb	%dl, (%ecx,%eax)
	incl	%eax
	movl	%eax, 5792(%ebx)
	movzbl	%dl, %edx
	incw	148(%ebx,%edx,4)
	movl	5788(%ebx), %edx
	decl	%edx
	cmpl	%edx, %eax
	sete	%al
	movzbl	%al, %eax
	movl	%eax, 32(%esp)
.LVL162:
.LBE58:
	.loc 1 1709 0
	movl	116(%ebx), %eax
.LVL163:
	decl	%eax
	movl	%eax, 24(%esp)
	movl	%eax, 116(%ebx)
	.loc 1 1710 0
	movl	108(%ebx), %eax
	incl	%eax
	movl	%eax, 108(%ebx)
	jmp	.L131
.LVL164:
	.p2align 2,,3
.L129:
	.loc 1 1694 0
	movl	28(%esp), %eax
	addl	108(%ebx), %eax
	movl	%eax, 108(%ebx)
	.loc 1 1695 0
	movl	$0, 96(%ebx)
	.loc 1 1696 0
	movl	56(%ebx), %edx
.LVL165:
	movzbl	(%edx,%eax), %esi
	movl	%esi, 72(%ebx)
	.loc 1 1697 0
	movzbl	1(%edx,%eax), %edx
	movl	88(%ebx), %ecx
.LVL166:
	sall	%cl, %esi
	xorl	%esi, %edx
	andl	84(%ebx), %edx
	movl	%edx, 72(%ebx)
	jmp	.L131
.LVL167:
	.p2align 2,,3
.L149:
	.loc 1 1642 0
	movl	%ebx, %eax
	call	fill_window
	.loc 1 1643 0
	movl	116(%ebx), %eax
	cmpl	$261, %eax
	ja	.L122
	.loc 1 1643 0 is_stmt 0 discriminator 1
	movl	100(%esp), %ebp
	testl	%ebp, %ebp
	je	.L141
	.loc 1 1646 0 is_stmt 1
	testl	%eax, %eax
	je	.L121
.LVL168:
	.loc 1 1653 0
	cmpl	$2, %eax
	ja	.L122
	movl	96(%ebx), %eax
	movl	108(%ebx), %esi
	jmp	.L123
.LVL169:
	.p2align 2,,3
.L127:
.LBB59:
	.loc 1 1671 0 discriminator 2
	shrw	$7, %si
.LVL170:
	movzwl	%si, %esi
	movzbl	_dist_code+256(%esi), %eax
	jmp	.L128
.LVL171:
	.p2align 2,,3
.L125:
.LBE59:
	.loc 1 1665 0
	movl	%ebx, %eax
	call	longest_match
.LVL172:
	movl	%eax, 96(%ebx)
	movl	108(%ebx), %esi
	jmp	.L123
.L121:
	.loc 1 1714 0
	movl	108(%ebx), %eax
	movl	%eax, %edx
	cmpl	$2, %eax
	ja	.L150
	movl	%edx, 5812(%ebx)
	.loc 1 1715 0
	cmpl	$4, 100(%esp)
	je	.L151
.L136:
	.loc 1 1719 0
	movl	5792(%ebx), %edx
	testl	%edx, %edx
	je	.L144
	.loc 1 1720 0
	movl	92(%ebx), %edx
	subl	%edx, %eax
	testl	%edx, %edx
	js	.L145
	.loc 1 1720 0 is_stmt 0 discriminator 1
	addl	56(%ebx), %edx
.L138:
	.loc 1 1720 0 discriminator 3
	movl	$0, 12(%esp)
	movl	%eax, 8(%esp)
	movl	%edx, 4(%esp)
	movl	%ebx, (%esp)
	call	_tr_flush_block
	movl	108(%ebx), %eax
	movl	%eax, 92(%ebx)
	movl	(%ebx), %eax
	call	flush_pending
	movl	(%ebx), %eax
	.loc 1 1628 0 is_stmt 1 discriminator 3
	movl	16(%eax), %eax
	testl	%eax, %eax
	.loc 1 1644 0 discriminator 3
	setne	%al
	movzbl	%al, %eax
	.loc 1 1722 0 discriminator 3
	addl	$76, %esp
	.cfi_remember_state
.LCFI88:
	.cfi_def_cfa_offset 20
	popl	%ebx
	.cfi_restore 3
.LCFI89:
	.cfi_def_cfa_offset 16
	popl	%esi
	.cfi_restore 6
.LCFI90:
	.cfi_def_cfa_offset 12
	popl	%edi
	.cfi_restore 7
.LCFI91:
	.cfi_def_cfa_offset 8
	popl	%ebp
	.cfi_restore 5
.LCFI92:
	.cfi_def_cfa_offset 4
	ret
.LVL173:
.L140:
.LCFI93:
	.cfi_restore_state
	.loc 1 1712 0
	xorl	%edx, %edx
	jmp	.L133
.LVL174:
.L150:
	.loc 1 1714 0
	movl	$2, %edx
	movl	%edx, 5812(%ebx)
	.loc 1 1715 0
	cmpl	$4, 100(%esp)
	jne	.L136
	jmp	.L151
.L144:
	.loc 1 1721 0
	movl	$1, %eax
	.loc 1 1722 0
	addl	$76, %esp
	.cfi_remember_state
.LCFI94:
	.cfi_def_cfa_offset 20
	popl	%ebx
	.cfi_restore 3
.LCFI95:
	.cfi_def_cfa_offset 16
	popl	%esi
	.cfi_restore 6
.LCFI96:
	.cfi_def_cfa_offset 12
	popl	%edi
	.cfi_restore 7
.LCFI97:
	.cfi_def_cfa_offset 8
	popl	%ebp
	.cfi_restore 5
.LCFI98:
	.cfi_def_cfa_offset 4
	ret
.L151:
.LCFI99:
	.cfi_restore_state
	.loc 1 1716 0
	movl	92(%ebx), %edx
	subl	%edx, %eax
	testl	%edx, %edx
	js	.L142
	.loc 1 1716 0 is_stmt 0 discriminator 1
	addl	56(%ebx), %edx
.L137:
	.loc 1 1716 0 discriminator 3
	movl	$1, 12(%esp)
	movl	%eax, 8(%esp)
	movl	%edx, 4(%esp)
	movl	%ebx, (%esp)
	call	_tr_flush_block
	movl	108(%ebx), %eax
	movl	%eax, 92(%ebx)
	movl	(%ebx), %eax
	call	flush_pending
	movl	(%ebx), %eax
	cmpl	$1, 16(%eax)
	sbbl	%eax, %eax
	addl	$3, %eax
	.loc 1 1722 0 is_stmt 1 discriminator 3
	addl	$76, %esp
	.cfi_remember_state
.LCFI100:
	.cfi_def_cfa_offset 20
	popl	%ebx
	.cfi_restore 3
.LCFI101:
	.cfi_def_cfa_offset 16
	popl	%esi
	.cfi_restore 6
.LCFI102:
	.cfi_def_cfa_offset 12
	popl	%edi
	.cfi_restore 7
.LCFI103:
	.cfi_def_cfa_offset 8
	popl	%ebp
	.cfi_restore 5
.LCFI104:
	.cfi_def_cfa_offset 4
	ret
.L145:
.LCFI105:
	.cfi_restore_state
	.loc 1 1720 0
	xorl	%edx, %edx
	jmp	.L138
.L142:
	.loc 1 1716 0
	xorl	%edx, %edx
	jmp	.L137
	.cfi_endproc
.LFE46:
	.size	deflate_fast, .-deflate_fast
	.p2align 2,,3
	.type	deflate_stored, @function
deflate_stored:
.LFB45:
	.loc 1 1567 0
	.cfi_startproc
.LVL175:
	pushl	%edi
.LCFI106:
	.cfi_def_cfa_offset 8
	.cfi_offset 7, -8
	pushl	%esi
.LCFI107:
	.cfi_def_cfa_offset 12
	.cfi_offset 6, -12
	pushl	%ebx
.LCFI108:
	.cfi_def_cfa_offset 16
	.cfi_offset 3, -16
	subl	$16, %esp
.LCFI109:
	.cfi_def_cfa_offset 32
	movl	32(%esp), %ebx
	movl	36(%esp), %edi
.LVL176:
	.loc 1 1574 0
	movl	12(%ebx), %esi
	subl	$5, %esi
	cmpl	$65534, %esi
	jbe	.L178
	.loc 1 1571 0
	movl	$65535, %esi
	jmp	.L178
.LVL177:
	.p2align 2,,3
.L182:
	.loc 1 1602 0 discriminator 1
	addl	56(%ebx), %eax
.L159:
	.loc 1 1602 0 is_stmt 0 discriminator 3
	movl	$0, 12(%esp)
	movl	%ecx, 8(%esp)
	movl	%eax, 4(%esp)
	movl	%ebx, (%esp)
	call	_tr_flush_block
.LVL178:
	movl	108(%ebx), %eax
	movl	%eax, 92(%ebx)
	movl	(%ebx), %eax
	call	flush_pending
	movl	(%ebx), %eax
	movl	16(%eax), %eax
	testl	%eax, %eax
	je	.L171
	.loc 1 1602 0
	movl	108(%ebx), %edx
	movl	92(%ebx), %eax
.L158:
	.loc 1 1607 0 is_stmt 1
	subl	%eax, %edx
	movl	44(%ebx), %ecx
	subl	$262, %ecx
	cmpl	%ecx, %edx
	jae	.L180
.LVL179:
.L178:
	.loc 1 1581 0
	movl	116(%ebx), %edx
	cmpl	$1, %edx
	jbe	.L181
.L154:
	.loc 1 1593 0
	addl	108(%ebx), %edx
	movl	%edx, 108(%ebx)
	.loc 1 1594 0
	movl	$0, 116(%ebx)
	.loc 1 1597 0
	movl	92(%ebx), %eax
	leal	(%esi,%eax), %ecx
.LVL180:
	.loc 1 1598 0
	testl	%edx, %edx
	je	.L157
	.loc 1 1598 0 is_stmt 0 discriminator 1
	cmpl	%ecx, %edx
	jb	.L158
.L157:
	.loc 1 1600 0 is_stmt 1
	subl	%ecx, %edx
	movl	%edx, 116(%ebx)
	.loc 1 1601 0
	movl	%ecx, 108(%ebx)
	.loc 1 1602 0
	subl	%eax, %ecx
.LVL181:
	testl	%eax, %eax
	jns	.L182
	xorl	%eax, %eax
	jmp	.L159
.LVL182:
	.p2align 2,,3
.L180:
	.loc 1 1608 0
	testl	%eax, %eax
	js	.L170
	.loc 1 1608 0 is_stmt 0 discriminator 1
	addl	56(%ebx), %eax
.L161:
	.loc 1 1608 0 discriminator 3
	movl	$0, 12(%esp)
	movl	%edx, 8(%esp)
	movl	%eax, 4(%esp)
	movl	%ebx, (%esp)
	call	_tr_flush_block
	movl	108(%ebx), %eax
	movl	%eax, 92(%ebx)
	movl	(%ebx), %eax
	call	flush_pending
	movl	(%ebx), %eax
	movl	16(%eax), %eax
	testl	%eax, %eax
	jne	.L178
.L171:
	.loc 1 1608 0
	xorl	%eax, %eax
.L155:
	.loc 1 1619 0 is_stmt 1
	addl	$16, %esp
	.cfi_remember_state
.LCFI110:
	.cfi_def_cfa_offset 16
	popl	%ebx
.LCFI111:
	.cfi_def_cfa_offset 12
	.cfi_restore 3
	popl	%esi
.LCFI112:
	.cfi_def_cfa_offset 8
	.cfi_restore 6
.LVL183:
	popl	%edi
.LCFI113:
	.cfi_def_cfa_offset 4
	.cfi_restore 7
	ret
.LVL184:
	.p2align 2,,3
.L181:
.LCFI114:
	.cfi_restore_state
	.loc 1 1586 0
	movl	%ebx, %eax
	call	fill_window
	.loc 1 1587 0
	movl	116(%ebx), %edx
	testl	%edx, %edx
	jne	.L154
	.loc 1 1587 0 is_stmt 0 discriminator 1
	testl	%edi, %edi
	je	.L171
	.loc 1 1611 0 is_stmt 1
	movl	$0, 5812(%ebx)
	.loc 1 1612 0
	cmpl	$4, %edi
	je	.L183
	.loc 1 1616 0
	movl	108(%ebx), %edx
	movl	92(%ebx), %eax
	cmpl	%eax, %edx
	jle	.L174
	.loc 1 1617 0
	subl	%eax, %edx
	testl	%eax, %eax
	js	.L175
	.loc 1 1617 0 is_stmt 0 discriminator 1
	addl	56(%ebx), %eax
.L165:
	.loc 1 1617 0 discriminator 3
	movl	$0, 12(%esp)
	movl	%edx, 8(%esp)
	movl	%eax, 4(%esp)
	movl	%ebx, (%esp)
	call	_tr_flush_block
	movl	108(%ebx), %eax
	movl	%eax, 92(%ebx)
	movl	(%ebx), %eax
	call	flush_pending
	movl	(%ebx), %eax
	.loc 1 1564 0 is_stmt 1 discriminator 3
	movl	16(%eax), %eax
	testl	%eax, %eax
	.loc 1 1587 0 discriminator 3
	setne	%al
	movzbl	%al, %eax
	jmp	.L155
	.p2align 2,,3
.L170:
	.loc 1 1608 0
	xorl	%eax, %eax
	jmp	.L161
.L174:
	.loc 1 1618 0
	movl	$1, %eax
	jmp	.L155
.L183:
	.loc 1 1613 0
	movl	92(%ebx), %edx
	movl	108(%ebx), %eax
	subl	%edx, %eax
	testl	%edx, %edx
	js	.L172
	.loc 1 1613 0 is_stmt 0 discriminator 1
	addl	56(%ebx), %edx
.L164:
	.loc 1 1613 0 discriminator 3
	movl	$1, 12(%esp)
	movl	%eax, 8(%esp)
	movl	%edx, 4(%esp)
	movl	%ebx, (%esp)
	call	_tr_flush_block
	movl	108(%ebx), %eax
	movl	%eax, 92(%ebx)
	movl	(%ebx), %eax
	call	flush_pending
	movl	(%ebx), %eax
	cmpl	$1, 16(%eax)
	sbbl	%eax, %eax
	addl	$3, %eax
	jmp	.L155
.L175:
	.loc 1 1617 0 is_stmt 1
	xorl	%eax, %eax
	jmp	.L165
.L172:
	.loc 1 1613 0
	xorl	%edx, %edx
	jmp	.L164
	.cfi_endproc
.LFE45:
	.size	deflate_stored, .-deflate_stored
	.p2align 2,,3
	.type	deflate_huff, @function
deflate_huff:
.LFB49:
	.loc 1 1937 0
	.cfi_startproc
.LVL185:
	pushl	%edi
.LCFI115:
	.cfi_def_cfa_offset 8
	.cfi_offset 7, -8
	pushl	%esi
.LCFI116:
	.cfi_def_cfa_offset 12
	.cfi_offset 6, -12
	pushl	%ebx
.LCFI117:
	.cfi_def_cfa_offset 16
	.cfi_offset 3, -16
	subl	$16, %esp
.LCFI118:
	.cfi_def_cfa_offset 32
	movl	%eax, %ebx
	movl	%edx, %esi
.LVL186:
.L190:
	.loc 1 1966 0
	movl	116(%ebx), %edx
	jmp	.L188
	.p2align 2,,3
.L185:
	.loc 1 1952 0
	movl	$0, 96(%ebx)
.LBB60:
	.loc 1 1954 0
	movl	56(%ebx), %edx
	movl	108(%ebx), %eax
	movb	(%edx,%eax), %dl
.LVL187:
	movl	5792(%ebx), %eax
	movl	5796(%ebx), %ecx
	movw	$0, (%ecx,%eax,2)
	movl	5784(%ebx), %ecx
	movb	%dl, (%ecx,%eax)
	incl	%eax
	movl	%eax, 5792(%ebx)
	movzbl	%dl, %edx
	incw	148(%ebx,%edx,4)
	movl	5788(%ebx), %edi
	decl	%edi
.LVL188:
.LBE60:
	.loc 1 1955 0
	movl	116(%ebx), %edx
	decl	%edx
	movl	%edx, 116(%ebx)
	.loc 1 1956 0
	movl	108(%ebx), %ecx
	incl	%ecx
	movl	%ecx, 108(%ebx)
	.loc 1 1957 0
	cmpl	%edi, %eax
	je	.L203
.LVL189:
.L188:
	.loc 1 1942 0
	testl	%edx, %edx
	jne	.L185
	.loc 1 1943 0
	movl	%ebx, %eax
	call	fill_window
	.loc 1 1944 0
	movl	116(%ebx), %edx
	testl	%edx, %edx
	jne	.L185
	.loc 1 1945 0
	testl	%esi, %esi
	je	.L196
	.loc 1 1959 0
	movl	$0, 5812(%ebx)
	.loc 1 1960 0
	cmpl	$4, %esi
	je	.L204
	.loc 1 1964 0
	movl	5792(%ebx), %eax
	testl	%eax, %eax
	je	.L199
	.loc 1 1965 0
	movl	92(%ebx), %edx
	movl	108(%ebx), %eax
	subl	%edx, %eax
	testl	%edx, %edx
	js	.L200
	.loc 1 1965 0 is_stmt 0 discriminator 1
	addl	56(%ebx), %edx
.L193:
	.loc 1 1965 0 discriminator 3
	movl	$0, 12(%esp)
	movl	%eax, 8(%esp)
	movl	%edx, 4(%esp)
	movl	%ebx, (%esp)
	call	_tr_flush_block
	movl	108(%ebx), %eax
	movl	%eax, 92(%ebx)
	movl	(%ebx), %eax
	call	flush_pending
	movl	(%ebx), %eax
	.loc 1 1934 0 is_stmt 1 discriminator 3
	movl	16(%eax), %eax
	testl	%eax, %eax
	.loc 1 1946 0 discriminator 3
	setne	%al
	movzbl	%al, %eax
	.loc 1 1967 0 discriminator 3
	addl	$16, %esp
	.cfi_remember_state
.LCFI119:
	.cfi_def_cfa_offset 16
	popl	%ebx
	.cfi_restore 3
.LCFI120:
	.cfi_def_cfa_offset 12
.LVL190:
	popl	%esi
	.cfi_restore 6
.LCFI121:
	.cfi_def_cfa_offset 8
.LVL191:
	popl	%edi
	.cfi_restore 7
.LCFI122:
	.cfi_def_cfa_offset 4
	ret
.LVL192:
	.p2align 2,,3
.L203:
.LCFI123:
	.cfi_restore_state
	.loc 1 1957 0
	movl	92(%ebx), %eax
.LVL193:
	subl	%eax, %ecx
	testl	%eax, %eax
	js	.L195
	.loc 1 1957 0 is_stmt 0 discriminator 1
	addl	56(%ebx), %eax
.L189:
	.loc 1 1957 0 discriminator 3
	movl	$0, 12(%esp)
	movl	%ecx, 8(%esp)
	movl	%eax, 4(%esp)
	movl	%ebx, (%esp)
	call	_tr_flush_block
.LVL194:
	movl	108(%ebx), %eax
	movl	%eax, 92(%ebx)
	movl	(%ebx), %eax
	call	flush_pending
	movl	(%ebx), %eax
	movl	16(%eax), %eax
	testl	%eax, %eax
	jne	.L190
.L196:
	.loc 1 1957 0
	xorl	%eax, %eax
	.loc 1 1967 0 is_stmt 1
	addl	$16, %esp
	.cfi_remember_state
.LCFI124:
	.cfi_def_cfa_offset 16
	popl	%ebx
.LCFI125:
	.cfi_def_cfa_offset 12
	.cfi_restore 3
.LVL195:
	popl	%esi
.LCFI126:
	.cfi_def_cfa_offset 8
	.cfi_restore 6
.LVL196:
	popl	%edi
.LCFI127:
	.cfi_def_cfa_offset 4
	.cfi_restore 7
	ret
.LVL197:
	.p2align 2,,3
.L195:
.LCFI128:
	.cfi_restore_state
	.loc 1 1957 0
	xorl	%eax, %eax
	jmp	.L189
.LVL198:
.L199:
	.loc 1 1966 0
	movl	$1, %eax
	.loc 1 1967 0
	addl	$16, %esp
	.cfi_remember_state
.LCFI129:
	.cfi_def_cfa_offset 16
	popl	%ebx
	.cfi_restore 3
.LCFI130:
	.cfi_def_cfa_offset 12
.LVL199:
	popl	%esi
	.cfi_restore 6
.LCFI131:
	.cfi_def_cfa_offset 8
.LVL200:
	popl	%edi
	.cfi_restore 7
.LCFI132:
	.cfi_def_cfa_offset 4
	ret
.LVL201:
.L204:
.LCFI133:
	.cfi_restore_state
	.loc 1 1961 0
	movl	92(%ebx), %edx
	movl	108(%ebx), %eax
	subl	%edx, %eax
	testl	%edx, %edx
	js	.L197
	.loc 1 1961 0 is_stmt 0 discriminator 1
	addl	56(%ebx), %edx
.L192:
	.loc 1 1961 0 discriminator 3
	movl	$1, 12(%esp)
	movl	%eax, 8(%esp)
	movl	%edx, 4(%esp)
	movl	%ebx, (%esp)
	call	_tr_flush_block
	movl	108(%ebx), %eax
	movl	%eax, 92(%ebx)
	movl	(%ebx), %eax
	call	flush_pending
	movl	(%ebx), %eax
	cmpl	$1, 16(%eax)
	sbbl	%eax, %eax
	addl	$3, %eax
	.loc 1 1967 0 is_stmt 1 discriminator 3
	addl	$16, %esp
	.cfi_remember_state
.LCFI134:
	.cfi_def_cfa_offset 16
	popl	%ebx
	.cfi_restore 3
.LCFI135:
	.cfi_def_cfa_offset 12
.LVL202:
	popl	%esi
	.cfi_restore 6
.LCFI136:
	.cfi_def_cfa_offset 8
.LVL203:
	popl	%edi
	.cfi_restore 7
.LCFI137:
	.cfi_def_cfa_offset 4
	ret
.LVL204:
.L200:
.LCFI138:
	.cfi_restore_state
	.loc 1 1965 0
	xorl	%edx, %edx
	jmp	.L193
.L197:
	.loc 1 1961 0
	xorl	%edx, %edx
	jmp	.L192
	.cfi_endproc
.LFE49:
	.size	deflate_huff, .-deflate_huff
	.p2align 2,,3
	.type	deflate_rle, @function
deflate_rle:
.LFB48:
	.loc 1 1864 0
	.cfi_startproc
.LVL205:
	pushl	%ebp
.LCFI139:
	.cfi_def_cfa_offset 8
	.cfi_offset 5, -8
	pushl	%edi
.LCFI140:
	.cfi_def_cfa_offset 12
	.cfi_offset 7, -12
	pushl	%esi
.LCFI141:
	.cfi_def_cfa_offset 16
	.cfi_offset 6, -16
	pushl	%ebx
.LCFI142:
	.cfi_def_cfa_offset 20
	.cfi_offset 3, -20
	subl	$60, %esp
.LCFI143:
	.cfi_def_cfa_offset 80
	movl	%eax, %ebx
	movl	%edx, 32(%esp)
.LBB61:
	.loc 1 1906 0
	movzbl	_dist_code, %esi
.LVL206:
.L219:
.LBE61:
	.loc 1 1927 0
	movl	116(%ebx), %eax
	jmp	.L217
	.p2align 2,,3
.L206:
	.loc 1 1883 0
	movl	$0, 96(%ebx)
.L223:
	.loc 1 1884 0 discriminator 1
	movl	108(%ebx), %edx
	testl	%edx, %edx
	jne	.L210
	.loc 1 1884 0 is_stmt 0
	movl	56(%ebx), %eax
	movl	%eax, 24(%esp)
.L211:
.LBB62:
	.loc 1 1914 0 is_stmt 1
	movl	24(%esp), %ecx
	movb	(%ecx,%edx), %dl
.LVL207:
	movl	5792(%ebx), %eax
	movl	5796(%ebx), %ecx
	movw	$0, (%ecx,%eax,2)
	movl	5784(%ebx), %ecx
	movb	%dl, (%ecx,%eax)
	incl	%eax
	movl	%eax, 5792(%ebx)
	movzbl	%dl, %edx
.LVL208:
	incw	148(%ebx,%edx,4)
	movl	5788(%ebx), %edx
	decl	%edx
	xorl	%ecx, %ecx
	cmpl	%edx, %eax
	sete	%cl
.LVL209:
.LBE62:
	.loc 1 1915 0
	movl	116(%ebx), %eax
	decl	%eax
	movl	%eax, 116(%ebx)
	.loc 1 1916 0
	movl	108(%ebx), %edx
	incl	%edx
	movl	%edx, 108(%ebx)
.LVL210:
.L216:
	.loc 1 1918 0
	testl	%ecx, %ecx
	jne	.L241
.LVL211:
.L217:
	.loc 1 1874 0
	cmpl	$258, %eax
	ja	.L206
	.loc 1 1875 0
	movl	%ebx, %eax
	call	fill_window
	.loc 1 1876 0
	movl	116(%ebx), %eax
	cmpl	$258, %eax
	ja	.L206
	.loc 1 1876 0 is_stmt 0 discriminator 1
	movl	32(%esp), %ebp
	testl	%ebp, %ebp
	je	.L233
	.loc 1 1879 0 is_stmt 1
	testl	%eax, %eax
	je	.L208
	.loc 1 1883 0
	movl	$0, 96(%ebx)
	.loc 1 1884 0
	cmpl	$2, %eax
	ja	.L223
	.loc 1 1910 0
	movl	56(%ebx), %eax
	movl	%eax, 24(%esp)
	movl	108(%ebx), %edx
	jmp	.L211
	.p2align 2,,3
.L210:
	.loc 1 1885 0
	movl	56(%ebx), %ecx
	movl	%ecx, 24(%esp)
	leal	-1(%ecx,%edx), %edi
.LVL212:
	.loc 1 1886 0
	movzbl	1(%edi), %ecx
	movl	%ecx, 28(%esp)
	.loc 1 1887 0
	movb	1(%edi), %cl
	cmpb	%cl, (%edi)
	jne	.L211
.LVL213:
	.loc 1 1887 0 is_stmt 0 discriminator 1
	movzbl	2(%edi), %ebp
	cmpl	%ebp, 28(%esp)
	jne	.L211
.LVL214:
	movzbl	3(%edi), %ebp
	cmpl	%ebp, 28(%esp)
	jne	.L211
	.loc 1 1887 0
	addl	$3, %edi
.LVL215:
	.loc 1 1888 0 is_stmt 1
	movl	24(%esp), %ecx
	leal	258(%ecx,%edx), %ecx
	movl	%ecx, 36(%esp)
.LVL216:
	movl	%edx, 40(%esp)
	movl	%eax, 44(%esp)
	movl	28(%esp), %eax
	movl	24(%esp), %ecx
.LVL217:
	jmp	.L213
.LVL218:
	.p2align 2,,3
.L242:
	.loc 1 1861 0
	leal	2(%edi), %ebp
	.loc 1 1890 0
	movzbl	2(%edi), %edx
	cmpl	%edx, %eax
	jne	.L231
	.loc 1 1861 0 discriminator 1
	leal	3(%edi), %ebp
	.loc 1 1891 0 discriminator 1
	movzbl	3(%edi), %edx
	.loc 1 1890 0 discriminator 1
	cmpl	%edx, %eax
	jne	.L231
	.loc 1 1861 0
	leal	4(%edi), %ebp
	.loc 1 1891 0
	movzbl	4(%edi), %edx
	cmpl	%edx, %eax
	jne	.L231
	.loc 1 1861 0 discriminator 1
	leal	5(%edi), %ebp
	.loc 1 1892 0 discriminator 1
	movzbl	5(%edi), %edx
	.loc 1 1891 0 discriminator 1
	cmpl	%edx, %eax
	jne	.L231
	.loc 1 1861 0
	leal	6(%edi), %ebp
	.loc 1 1892 0
	movzbl	6(%edi), %edx
	cmpl	%edx, %eax
	jne	.L231
	.loc 1 1861 0 discriminator 1
	leal	7(%edi), %ebp
	.loc 1 1893 0 discriminator 1
	movzbl	7(%edi), %edx
	.loc 1 1892 0 discriminator 1
	cmpl	%edx, %eax
	jne	.L231
	.loc 1 1861 0
	addl	$8, %edi
.LVL219:
	.loc 1 1893 0
	movzbl	(%edi), %edx
	cmpl	%edx, %eax
	jne	.L240
	.loc 1 1893 0 is_stmt 0 discriminator 1
	cmpl	%edi, 36(%esp)
	jbe	.L240
.LVL220:
.L213:
	.loc 1 1861 0 is_stmt 1
	leal	1(%edi), %ebp
.LVL221:
	.loc 1 1890 0
	movzbl	1(%edi), %edx
	.loc 1 1894 0
	cmpl	%edx, %eax
	je	.L242
	movl	40(%esp), %edx
	movl	%ebp, %edi
	movl	44(%esp), %eax
	movl	%ecx, 24(%esp)
	jmp	.L212
.LVL222:
	.p2align 2,,3
.L241:
	.loc 1 1918 0 discriminator 1
	movl	92(%ebx), %eax
	subl	%eax, %edx
	testl	%eax, %eax
	js	.L232
	addl	56(%ebx), %eax
.L218:
	.loc 1 1918 0 is_stmt 0 discriminator 3
	movl	$0, 12(%esp)
	movl	%edx, 8(%esp)
	movl	%eax, 4(%esp)
	movl	%ebx, (%esp)
	call	_tr_flush_block
.LVL223:
	movl	108(%ebx), %eax
	movl	%eax, 92(%ebx)
	movl	(%ebx), %eax
	call	flush_pending
	movl	(%ebx), %eax
	movl	16(%eax), %edi
	testl	%edi, %edi
	jne	.L219
.L233:
	.loc 1 1918 0
	xorl	%eax, %eax
	.loc 1 1928 0 is_stmt 1
	addl	$60, %esp
	.cfi_remember_state
.LCFI144:
	.cfi_def_cfa_offset 20
	popl	%ebx
.LCFI145:
	.cfi_def_cfa_offset 16
	.cfi_restore 3
.LVL224:
	popl	%esi
.LCFI146:
	.cfi_def_cfa_offset 12
	.cfi_restore 6
	popl	%edi
.LCFI147:
	.cfi_def_cfa_offset 8
	.cfi_restore 7
	popl	%ebp
.LCFI148:
	.cfi_def_cfa_offset 4
	.cfi_restore 5
	ret
.LVL225:
.L208:
.LCFI149:
	.cfi_restore_state
	.loc 1 1920 0
	movl	$0, 5812(%ebx)
	.loc 1 1921 0
	cmpl	$4, 32(%esp)
	je	.L243
	.loc 1 1925 0
	movl	5792(%ebx), %esi
	testl	%esi, %esi
	je	.L236
	.loc 1 1926 0
	movl	92(%ebx), %edx
	movl	108(%ebx), %eax
	subl	%edx, %eax
	testl	%edx, %edx
	js	.L237
	.loc 1 1926 0 is_stmt 0 discriminator 1
	addl	56(%ebx), %edx
.L222:
	.loc 1 1926 0 discriminator 3
	movl	$0, 12(%esp)
	movl	%eax, 8(%esp)
	movl	%edx, 4(%esp)
	movl	%ebx, (%esp)
	call	_tr_flush_block
	movl	108(%ebx), %eax
	movl	%eax, 92(%ebx)
	movl	(%ebx), %eax
	call	flush_pending
	movl	(%ebx), %eax
	.loc 1 1861 0 is_stmt 1 discriminator 3
	movl	16(%eax), %ecx
	.loc 1 1877 0 discriminator 3
	xorl	%eax, %eax
	testl	%ecx, %ecx
	setne	%al
	.loc 1 1928 0 discriminator 3
	addl	$60, %esp
	.cfi_remember_state
.LCFI150:
	.cfi_def_cfa_offset 20
	popl	%ebx
	.cfi_restore 3
.LCFI151:
	.cfi_def_cfa_offset 16
.LVL226:
	popl	%esi
	.cfi_restore 6
.LCFI152:
	.cfi_def_cfa_offset 12
	popl	%edi
	.cfi_restore 7
.LCFI153:
	.cfi_def_cfa_offset 8
	popl	%ebp
	.cfi_restore 5
.LCFI154:
	.cfi_def_cfa_offset 4
	ret
.LVL227:
.L232:
.LCFI155:
	.cfi_restore_state
	.loc 1 1918 0
	xorl	%eax, %eax
	jmp	.L218
.LVL228:
.L231:
	movl	40(%esp), %edx
	movl	44(%esp), %eax
	movl	%ecx, 24(%esp)
	movl	%ebp, %edi
.L212:
.LVL229:
	.loc 1 1895 0
	subl	36(%esp), %edi
.LVL230:
	addl	$258, %edi
	movl	%edi, 96(%ebx)
	.loc 1 1896 0
	cmpl	%eax, %edi
	jbe	.L214
	.loc 1 1897 0
	movl	%eax, 96(%ebx)
	movl	%eax, %edi
.L215:
.LBB63:
	.loc 1 1906 0
	leal	-3(%edi), %edx
.LVL231:
	movl	5792(%ebx), %eax
	movl	5796(%ebx), %ecx
	movw	$1, (%ecx,%eax,2)
	movl	5784(%ebx), %ecx
	movb	%dl, (%ecx,%eax)
	incl	%eax
	movl	%eax, 5792(%ebx)
.LVL232:
	movzbl	%dl, %edx
.LVL233:
	movzbl	_length_code(%edx), %edx
	incw	1176(%ebx,%edx,4)
	incw	2440(%ebx,%esi,4)
	movl	5788(%ebx), %edx
	decl	%edx
	xorl	%ecx, %ecx
	cmpl	%edx, %eax
	sete	%cl
.LVL234:
.LBE63:
	.loc 1 1908 0
	movl	96(%ebx), %edx
	movl	116(%ebx), %eax
	subl	%edx, %eax
	movl	%eax, 116(%ebx)
	.loc 1 1909 0
	addl	108(%ebx), %edx
	movl	%edx, 108(%ebx)
	.loc 1 1910 0
	movl	$0, 96(%ebx)
	jmp	.L216
.LVL235:
.L236:
	.loc 1 1927 0
	movl	$1, %eax
	.loc 1 1928 0
	addl	$60, %esp
	.cfi_remember_state
.LCFI156:
	.cfi_def_cfa_offset 20
	popl	%ebx
	.cfi_restore 3
.LCFI157:
	.cfi_def_cfa_offset 16
.LVL236:
	popl	%esi
	.cfi_restore 6
.LCFI158:
	.cfi_def_cfa_offset 12
	popl	%edi
	.cfi_restore 7
.LCFI159:
	.cfi_def_cfa_offset 8
	popl	%ebp
	.cfi_restore 5
.LCFI160:
	.cfi_def_cfa_offset 4
	ret
.LVL237:
.L243:
.LCFI161:
	.cfi_restore_state
	.loc 1 1922 0
	movl	92(%ebx), %edx
	movl	108(%ebx), %eax
	subl	%edx, %eax
	testl	%edx, %edx
	js	.L234
	.loc 1 1922 0 is_stmt 0 discriminator 1
	addl	56(%ebx), %edx
.L221:
	.loc 1 1922 0 discriminator 3
	movl	$1, 12(%esp)
	movl	%eax, 8(%esp)
	movl	%edx, 4(%esp)
	movl	%ebx, (%esp)
	call	_tr_flush_block
	movl	108(%ebx), %eax
	movl	%eax, 92(%ebx)
	movl	(%ebx), %eax
	call	flush_pending
	movl	(%ebx), %eax
	cmpl	$1, 16(%eax)
	sbbl	%eax, %eax
	addl	$3, %eax
	.loc 1 1928 0 is_stmt 1 discriminator 3
	addl	$60, %esp
	.cfi_remember_state
.LCFI162:
	.cfi_def_cfa_offset 20
	popl	%ebx
	.cfi_restore 3
.LCFI163:
	.cfi_def_cfa_offset 16
.LVL238:
	popl	%esi
	.cfi_restore 6
.LCFI164:
	.cfi_def_cfa_offset 12
	popl	%edi
	.cfi_restore 7
.LCFI165:
	.cfi_def_cfa_offset 8
	popl	%ebp
	.cfi_restore 5
.LCFI166:
	.cfi_def_cfa_offset 4
	ret
.LVL239:
.L237:
.LCFI167:
	.cfi_restore_state
	.loc 1 1926 0
	xorl	%edx, %edx
	jmp	.L222
.LVL240:
.L214:
	.loc 1 1903 0
	cmpl	$2, %edi
	ja	.L215
	jmp	.L211
.LVL241:
	.p2align 2,,3
.L240:
	movl	40(%esp), %edx
	movl	44(%esp), %eax
	movl	%ecx, 24(%esp)
	jmp	.L212
.LVL242:
.L234:
	.loc 1 1922 0
	xorl	%edx, %edx
	jmp	.L221
	.cfi_endproc
.LFE48:
	.size	deflate_rle, .-deflate_rle
	.p2align 2,,3
	.globl	deflateSetDictionary
	.type	deflateSetDictionary, @function
deflateSetDictionary:
.LFB27:
	.loc 1 327 0
	.cfi_startproc
.LVL243:
	pushl	%ebp
.LCFI168:
	.cfi_def_cfa_offset 8
	.cfi_offset 5, -8
	pushl	%edi
.LCFI169:
	.cfi_def_cfa_offset 12
	.cfi_offset 7, -12
	pushl	%esi
.LCFI170:
	.cfi_def_cfa_offset 16
	.cfi_offset 6, -16
	pushl	%ebx
.LCFI171:
	.cfi_def_cfa_offset 20
	.cfi_offset 3, -20
	subl	$76, %esp
.LCFI172:
	.cfi_def_cfa_offset 96
	movl	100(%esp), %esi
	movl	104(%esp), %ebp
	.loc 1 334 0
	movl	96(%esp), %ebx
	testl	%ebx, %ebx
	je	.L258
	.loc 1 334 0 is_stmt 0 discriminator 1
	movl	96(%esp), %edx
	movl	28(%edx), %ebx
	testl	%ebx, %ebx
	je	.L258
	testl	%esi, %esi
	je	.L258
.LVL244:
	.loc 1 337 0 is_stmt 1
	movl	24(%ebx), %edx
	movl	%edx, 52(%esp)
.LVL245:
	.loc 1 338 0
	cmpl	$2, %edx
	je	.L258
	.loc 1 338 0 is_stmt 0 discriminator 1
	decl	%edx
	je	.L263
.L246:
	.loc 1 338 0 discriminator 2
	movl	116(%ebx), %ecx
	testl	%ecx, %ecx
	jne	.L258
	.loc 1 342 0 is_stmt 1
	cmpl	$1, 52(%esp)
	je	.L264
.LVL246:
.L247:
	.loc 1 344 0
	movl	$0, 24(%ebx)
	.loc 1 347 0
	movl	44(%ebx), %eax
	cmpl	%eax, %ebp
	jae	.L265
.LVL247:
.L248:
	.loc 1 359 0
	movl	96(%esp), %edx
	movl	4(%edx), %edx
	movl	%edx, 56(%esp)
.LVL248:
	.loc 1 360 0
	movl	96(%esp), %edx
	movl	(%edx), %edx
	movl	%edx, 60(%esp)
.LVL249:
	.loc 1 361 0
	movl	96(%esp), %edx
	movl	%ebp, 4(%edx)
	.loc 1 362 0
	movl	%esi, (%edx)
.LVL250:
	.p2align 2,,3
.L262:
	.loc 1 363 0
	movl	%ebx, %eax
	call	fill_window
	.loc 1 364 0
	movl	116(%ebx), %edi
	movl	%edi, 44(%esp)
	cmpl	$2, %edi
	jbe	.L250
	.loc 1 365 0
	movl	108(%ebx), %eax
	movl	%eax, 48(%esp)
.LVL251:
	.loc 1 366 0
	movl	44(%esp), %edx
	subl	$2, %edx
	movl	%edx, 20(%esp)
.LVL252:
	movl	72(%ebx), %eax
	movl	88(%ebx), %ecx
	movl	56(%ebx), %edi
	movl	%edi, 24(%esp)
	movl	84(%ebx), %edx
.LVL253:
	movl	%edx, 28(%esp)
	movl	64(%ebx), %edi
	movl	%edi, 32(%esp)
	movl	52(%ebx), %edx
	movl	%edx, 36(%esp)
	movl	68(%ebx), %edi
	movl	%edi, 40(%esp)
	.loc 1 365 0
	movl	48(%esp), %edx
	movl	%ecx, 16(%esp)
.LVL254:
	.p2align 2,,3
.L251:
	.loc 1 368 0 discriminator 1
	movl	24(%esp), %edi
	movzbl	2(%edi,%edx), %esi
	movb	16(%esp), %cl
	sall	%cl, %eax
	xorl	%esi, %eax
	andl	28(%esp), %eax
	movl	%eax, 72(%ebx)
	.loc 1 370 0 discriminator 1
	movl	40(%esp), %edi
	leal	(%edi,%eax,2), %esi
	movw	(%esi), %bp
	movl	36(%esp), %edi
	andl	%edx, %edi
	movl	32(%esp), %ecx
	movw	%bp, (%ecx,%edi,2)
	.loc 1 372 0 discriminator 1
	movw	%dx, (%esi)
	.loc 1 373 0 discriminator 1
	incl	%edx
.LVL255:
	.loc 1 374 0 discriminator 1
	decl	20(%esp)
	jne	.L251
	.loc 1 375 0
	movl	44(%esp), %edx
.LVL256:
	movl	48(%esp), %edi
	leal	-2(%edx,%edi), %eax
	movl	%eax, 108(%ebx)
	.loc 1 376 0
	movl	$2, 116(%ebx)
	jmp	.L262
.LVL257:
.L250:
	.loc 1 379 0
	movl	44(%esp), %eax
	addl	108(%ebx), %eax
	movl	%eax, 108(%ebx)
	.loc 1 380 0
	movl	%eax, 92(%ebx)
	.loc 1 381 0
	movl	44(%esp), %eax
	movl	%eax, 5812(%ebx)
	.loc 1 382 0
	movl	$0, 116(%ebx)
	.loc 1 383 0
	movl	$2, 120(%ebx)
	movl	$2, 96(%ebx)
	.loc 1 384 0
	movl	$0, 104(%ebx)
	.loc 1 385 0
	movl	60(%esp), %edi
	movl	96(%esp), %edx
	movl	%edi, (%edx)
	.loc 1 386 0
	movl	56(%esp), %edi
	movl	%edi, 4(%edx)
	.loc 1 387 0
	movl	52(%esp), %edx
	movl	%edx, 24(%ebx)
	.loc 1 388 0
	xorl	%eax, %eax
	.loc 1 389 0
	addl	$76, %esp
	.cfi_remember_state
.LCFI173:
	.cfi_def_cfa_offset 20
	popl	%ebx
.LCFI174:
	.cfi_def_cfa_offset 16
	.cfi_restore 3
.LVL258:
	popl	%esi
.LCFI175:
	.cfi_def_cfa_offset 12
	.cfi_restore 6
	popl	%edi
.LCFI176:
	.cfi_def_cfa_offset 8
	.cfi_restore 7
	popl	%ebp
.LCFI177:
	.cfi_def_cfa_offset 4
	.cfi_restore 5
	ret
.LVL259:
.L265:
.LCFI178:
	.cfi_restore_state
	.loc 1 348 0
	movl	52(%esp), %edx
	testl	%edx, %edx
	je	.L266
.L249:
	.loc 1 354 0
	subl	%eax, %ebp
	addl	%ebp, %esi
.LVL260:
	.loc 1 355 0
	movl	%eax, %ebp
	jmp	.L248
.LVL261:
.L263:
	.loc 1 338 0 discriminator 1
	cmpl	$42, 4(%ebx)
	je	.L246
.LVL262:
.L258:
	.loc 1 339 0
	movl	$-2, %eax
	.loc 1 389 0
	addl	$76, %esp
	.cfi_remember_state
.LCFI179:
	.cfi_def_cfa_offset 20
	popl	%ebx
	.cfi_restore 3
.LCFI180:
	.cfi_def_cfa_offset 16
	popl	%esi
	.cfi_restore 6
.LCFI181:
	.cfi_def_cfa_offset 12
	popl	%edi
	.cfi_restore 7
.LCFI182:
	.cfi_def_cfa_offset 8
	popl	%ebp
	.cfi_restore 5
.LCFI183:
	.cfi_def_cfa_offset 4
	ret
.LVL263:
.L266:
.LCFI184:
	.cfi_restore_state
	.loc 1 349 0
	movl	68(%ebx), %edx
	movl	76(%ebx), %eax
	movw	$0, -2(%edx,%eax,2)
	leal	-2(%eax,%eax), %ecx
	xorl	%eax, %eax
	movl	%edx, %edi
	rep stosb
	.loc 1 350 0
	movl	$0, 108(%ebx)
	.loc 1 351 0
	movl	$0, 92(%ebx)
	.loc 1 352 0
	movl	$0, 5812(%ebx)
	movl	44(%ebx), %eax
	jmp	.L249
.L264:
	.loc 1 343 0
	movl	%ebp, 8(%esp)
	movl	%esi, 4(%esp)
	movl	96(%esp), %edx
	movl	48(%edx), %eax
	movl	%eax, (%esp)
	call	adler32
	movl	96(%esp), %edx
	movl	%eax, 48(%edx)
	jmp	.L247
	.cfi_endproc
.LFE27:
	.size	deflateSetDictionary, .-deflateSetDictionary
	.p2align 2,,3
	.globl	deflateResetKeep
	.type	deflateResetKeep, @function
deflateResetKeep:
.LFB28:
	.loc 1 394 0
	.cfi_startproc
.LVL264:
	pushl	%esi
.LCFI185:
	.cfi_def_cfa_offset 8
	.cfi_offset 6, -8
	pushl	%ebx
.LCFI186:
	.cfi_def_cfa_offset 12
	.cfi_offset 3, -12
	subl	$20, %esp
.LCFI187:
	.cfi_def_cfa_offset 32
	movl	32(%esp), %ebx
	.loc 1 397 0
	testl	%ebx, %ebx
	je	.L277
	.loc 1 397 0 is_stmt 0 discriminator 1
	movl	28(%ebx), %esi
	testl	%esi, %esi
	je	.L277
	movl	32(%ebx), %eax
	testl	%eax, %eax
	je	.L277
	.loc 1 398 0 is_stmt 1
	movl	36(%ebx), %eax
	testl	%eax, %eax
	je	.L277
	.loc 1 402 0
	movl	$0, 20(%ebx)
	movl	$0, 8(%ebx)
	.loc 1 403 0
	movl	$0, 24(%ebx)
	.loc 1 404 0
	movl	$2, 44(%ebx)
.LVL265:
	.loc 1 407 0
	movl	$0, 20(%esi)
	.loc 1 408 0
	movl	8(%esi), %eax
	movl	%eax, 16(%esi)
	.loc 1 410 0
	movl	24(%esi), %eax
	cmpl	$0, %eax
	jl	.L269
	.loc 1 413 0
	jne	.L270
	movl	$113, 4(%esi)
.L272:
	.loc 1 416 0 discriminator 2
	movl	$0, 8(%esp)
	movl	$0, 4(%esp)
	movl	$0, (%esp)
	call	adler32
.LVL266:
.L273:
	.loc 1 414 0
	movl	%eax, 48(%ebx)
	.loc 1 419 0
	movl	$0, 40(%esi)
	.loc 1 421 0
	movl	%esi, (%esp)
	call	_tr_init
	.loc 1 423 0
	xorl	%eax, %eax
.LVL267:
.L268:
	.loc 1 424 0
	addl	$20, %esp
	.cfi_remember_state
.LCFI188:
	.cfi_def_cfa_offset 12
	popl	%ebx
.LCFI189:
	.cfi_def_cfa_offset 8
	.cfi_restore 3
	popl	%esi
.LCFI190:
	.cfi_def_cfa_offset 4
	.cfi_restore 6
	ret
.LVL268:
	.p2align 2,,3
.L269:
.LCFI191:
	.cfi_restore_state
	.loc 1 411 0
	negl	%eax
	movl	%eax, 24(%esi)
.L270:
	.loc 1 413 0 discriminator 3
	movl	$42, 4(%esi)
	.loc 1 416 0 discriminator 3
	cmpl	$2, %eax
	jne	.L272
	.loc 1 416 0 is_stmt 0 discriminator 1
	movl	$0, 8(%esp)
	movl	$0, 4(%esp)
	movl	$0, (%esp)
	call	crc32
	jmp	.L273
.LVL269:
	.p2align 2,,3
.L277:
	.loc 1 399 0 is_stmt 1
	movl	$-2, %eax
	jmp	.L268
	.cfi_endproc
.LFE28:
	.size	deflateResetKeep, .-deflateResetKeep
	.p2align 2,,3
	.globl	deflateReset
	.type	deflateReset, @function
deflateReset:
.LFB29:
	.loc 1 429 0
	.cfi_startproc
.LVL270:
	pushl	%esi
.LCFI192:
	.cfi_def_cfa_offset 8
	.cfi_offset 6, -8
	pushl	%ebx
.LCFI193:
	.cfi_def_cfa_offset 12
	.cfi_offset 3, -12
	subl	$20, %esp
.LCFI194:
	.cfi_def_cfa_offset 32
	movl	32(%esp), %esi
	.loc 1 432 0
	movl	%esi, (%esp)
	call	deflateResetKeep
	movl	%eax, %ebx
.LVL271:
	.loc 1 433 0
	testl	%eax, %eax
	jne	.L280
	.loc 1 434 0
	movl	28(%esi), %eax
.LVL272:
	call	lm_init
.L280:
	.loc 1 436 0
	movl	%ebx, %eax
	addl	$20, %esp
.LCFI195:
	.cfi_def_cfa_offset 12
	popl	%ebx
.LCFI196:
	.cfi_def_cfa_offset 8
	.cfi_restore 3
.LVL273:
	popl	%esi
.LCFI197:
	.cfi_def_cfa_offset 4
	.cfi_restore 6
	ret
	.cfi_endproc
.LFE29:
	.size	deflateReset, .-deflateReset
	.p2align 2,,3
	.globl	deflateSetHeader
	.type	deflateSetHeader, @function
deflateSetHeader:
.LFB30:
	.loc 1 442 0
	.cfi_startproc
.LVL274:
	movl	4(%esp), %eax
	.loc 1 443 0
	testl	%eax, %eax
	je	.L284
	.loc 1 443 0 is_stmt 0 discriminator 2
	movl	28(%eax), %eax
	testl	%eax, %eax
	je	.L284
	.loc 1 444 0 is_stmt 1
	cmpl	$2, 24(%eax)
	jne	.L285
	.loc 1 445 0
	movl	8(%esp), %edx
	movl	%edx, 28(%eax)
	.loc 1 446 0
	xorl	%eax, %eax
	ret
	.p2align 2,,3
.L285:
	.loc 1 444 0
	movl	$-2, %eax
	.loc 1 447 0
	ret
	.p2align 2,,3
.L284:
	.loc 1 443 0
	movl	$-2, %eax
	ret
	.cfi_endproc
.LFE30:
	.size	deflateSetHeader, .-deflateSetHeader
	.p2align 2,,3
	.globl	deflatePending
	.type	deflatePending, @function
deflatePending:
.LFB31:
	.loc 1 454 0
	.cfi_startproc
.LVL275:
	pushl	%ebx
.LCFI198:
	.cfi_def_cfa_offset 8
	.cfi_offset 3, -8
	movl	8(%esp), %eax
	movl	12(%esp), %ecx
	movl	16(%esp), %edx
	.loc 1 455 0
	testl	%eax, %eax
	je	.L290
	.loc 1 455 0 is_stmt 0 discriminator 2
	movl	28(%eax), %eax
	testl	%eax, %eax
	je	.L290
	.loc 1 456 0 is_stmt 1
	testl	%ecx, %ecx
	je	.L288
	.loc 1 457 0
	movl	20(%eax), %ebx
	movl	%ebx, (%ecx)
.L288:
	.loc 1 458 0
	testl	%edx, %edx
	je	.L291
	.loc 1 459 0
	movl	5820(%eax), %eax
	movl	%eax, (%edx)
	.loc 1 460 0
	xorl	%eax, %eax
	.loc 1 461 0
	popl	%ebx
	.cfi_remember_state
.LCFI199:
	.cfi_def_cfa_offset 4
	.cfi_restore 3
	ret
	.p2align 2,,3
.L291:
.LCFI200:
	.cfi_restore_state
	.loc 1 460 0
	xorl	%eax, %eax
	.loc 1 461 0
	popl	%ebx
	.cfi_remember_state
	.cfi_restore 3
.LCFI201:
	.cfi_def_cfa_offset 4
	ret
	.p2align 2,,3
.L290:
.LCFI202:
	.cfi_restore_state
	.loc 1 455 0
	movl	$-2, %eax
	.loc 1 461 0
	popl	%ebx
	.cfi_restore 3
.LCFI203:
	.cfi_def_cfa_offset 4
	ret
	.cfi_endproc
.LFE31:
	.size	deflatePending, .-deflatePending
	.p2align 2,,3
	.globl	deflatePrime
	.type	deflatePrime, @function
deflatePrime:
.LFB32:
	.loc 1 468 0
	.cfi_startproc
.LVL276:
	pushl	%ebp
.LCFI204:
	.cfi_def_cfa_offset 8
	.cfi_offset 5, -8
	pushl	%edi
.LCFI205:
	.cfi_def_cfa_offset 12
	.cfi_offset 7, -12
	pushl	%esi
.LCFI206:
	.cfi_def_cfa_offset 16
	.cfi_offset 6, -16
	pushl	%ebx
.LCFI207:
	.cfi_def_cfa_offset 20
	.cfi_offset 3, -20
	subl	$28, %esp
.LCFI208:
	.cfi_def_cfa_offset 48
	movl	48(%esp), %eax
	movl	52(%esp), %edi
	movl	56(%esp), %ebp
	.loc 1 472 0
	testl	%eax, %eax
	je	.L297
	.loc 1 472 0 is_stmt 0 discriminator 2
	movl	28(%eax), %esi
	testl	%esi, %esi
	je	.L297
.LVL277:
	.loc 1 474 0 is_stmt 1
	movl	16(%esi), %eax
	addl	$2, %eax
	cmpl	%eax, 5796(%esi)
	jb	.L298
.LVL278:
	.p2align 2,,3
.L299:
	.loc 1 477 0
	movl	5820(%esi), %edx
	movl	$16, %eax
	subl	%edx, %eax
.LVL279:
	movl	%edi, %ebx
	cmpl	%eax, %edi
	jle	.L294
	movl	%eax, %ebx
.L294:
.LVL280:
	.loc 1 480 0
	movl	$1, %eax
	movb	%bl, %cl
	sall	%cl, %eax
	decl	%eax
	andl	%ebp, %eax
	movb	%dl, %cl
	sall	%cl, %eax
	orw	%ax, 5816(%esi)
	.loc 1 481 0
	addl	%ebx, %edx
	movl	%edx, 5820(%esi)
	.loc 1 482 0
	movl	%esi, (%esp)
	call	_tr_flush_bits
	.loc 1 483 0
	movb	%bl, %cl
	sarl	%cl, %ebp
.LVL281:
	.loc 1 485 0
	subl	%ebx, %edi
.LVL282:
	jne	.L299
	.loc 1 486 0
	xorl	%eax, %eax
.LVL283:
.L293:
	.loc 1 487 0
	addl	$28, %esp
	.cfi_remember_state
.LCFI209:
	.cfi_def_cfa_offset 20
	popl	%ebx
.LCFI210:
	.cfi_def_cfa_offset 16
	.cfi_restore 3
	popl	%esi
.LCFI211:
	.cfi_def_cfa_offset 12
	.cfi_restore 6
	popl	%edi
.LCFI212:
	.cfi_def_cfa_offset 8
	.cfi_restore 7
	popl	%ebp
.LCFI213:
	.cfi_def_cfa_offset 4
	.cfi_restore 5
	ret
.LVL284:
.L298:
.LCFI214:
	.cfi_restore_state
	.loc 1 475 0
	movl	$-5, %eax
	jmp	.L293
.LVL285:
.L297:
	.loc 1 472 0
	movl	$-2, %eax
	jmp	.L293
	.cfi_endproc
.LFE32:
	.size	deflatePrime, .-deflatePrime
	.p2align 2,,3
	.globl	deflateParams
	.type	deflateParams, @function
deflateParams:
.LFB33:
	.loc 1 494 0
	.cfi_startproc
.LVL286:
	pushl	%ebp
.LCFI215:
	.cfi_def_cfa_offset 8
	.cfi_offset 5, -8
	pushl	%edi
.LCFI216:
	.cfi_def_cfa_offset 12
	.cfi_offset 7, -12
	pushl	%esi
.LCFI217:
	.cfi_def_cfa_offset 16
	.cfi_offset 6, -16
	pushl	%ebx
.LCFI218:
	.cfi_def_cfa_offset 20
	.cfi_offset 3, -20
	subl	$44, %esp
.LCFI219:
	.cfi_def_cfa_offset 64
	movl	64(%esp), %edi
	movl	68(%esp), %esi
.LVL287:
	.loc 1 499 0
	testl	%edi, %edi
	je	.L384
	.loc 1 499 0 is_stmt 0 discriminator 2
	movl	28(%edi), %ebx
	testl	%ebx, %ebx
	je	.L384
.LVL288:
	.loc 1 505 0 is_stmt 1
	cmpl	$-1, %esi
	je	.L381
	.loc 1 507 0
	cmpl	$9, %esi
	ja	.L384
.LVL289:
.L303:
	.loc 1 507 0 is_stmt 0 discriminator 1
	movl	72(%esp), %eax
	testl	%eax, %eax
	js	.L384
	cmpl	$4, 72(%esp)
	jg	.L384
	.loc 1 510 0 is_stmt 1
	movl	132(%ebx), %edx
	leal	(%edx,%edx,2), %eax
	movl	configuration_table+8(,%eax,4), %ebp
.LVL290:
	.loc 1 512 0
	movl	136(%ebx), %eax
.LVL291:
	cmpl	72(%esp), %eax
	je	.L410
.L304:
	.loc 1 512 0 is_stmt 0 discriminator 1
	movl	8(%edi), %ebp
.LVL292:
	testl	%ebp, %ebp
	jne	.L411
.L386:
	.loc 1 497 0 is_stmt 1
	xorl	%eax, %eax
.LVL293:
.L305:
	.loc 1 519 0
	cmpl	%edx, %esi
	je	.L375
	.loc 1 520 0
	movl	%esi, 132(%ebx)
	.loc 1 521 0
	leal	(%esi,%esi,2), %ecx
	sall	$2, %ecx
	leal	configuration_table(%ecx), %edx
	movzwl	configuration_table+2(%ecx), %esi
	movl	%esi, 128(%ebx)
	.loc 1 522 0
	movzwl	configuration_table(%ecx), %ecx
	movl	%ecx, 140(%ebx)
	.loc 1 523 0
	movzwl	4(%edx), %ecx
	movl	%ecx, 144(%ebx)
	.loc 1 524 0
	movzwl	6(%edx), %edx
	movl	%edx, 124(%ebx)
.L375:
	.loc 1 526 0
	movl	72(%esp), %ecx
	movl	%ecx, 136(%ebx)
	.loc 1 528 0
	addl	$44, %esp
	.cfi_remember_state
.LCFI220:
	.cfi_def_cfa_offset 20
	popl	%ebx
.LCFI221:
	.cfi_def_cfa_offset 16
	.cfi_restore 3
.LVL294:
	popl	%esi
.LCFI222:
	.cfi_def_cfa_offset 12
	.cfi_restore 6
	popl	%edi
.LCFI223:
	.cfi_def_cfa_offset 8
	.cfi_restore 7
	popl	%ebp
.LCFI224:
	.cfi_def_cfa_offset 4
	.cfi_restore 5
	ret
.LVL295:
	.p2align 2,,3
.L411:
.LCFI225:
	.cfi_restore_state
.LBB81:
.LBB82:
	.loc 1 678 0
	movl	12(%edi), %ecx
	testl	%ecx, %ecx
	je	.L306
	movl	(%edi), %ebp
	testl	%ebp, %ebp
	je	.L412
.L307:
	.loc 1 680 0
	movl	4(%ebx), %ecx
	.loc 1 679 0
	cmpl	$666, %ecx
	je	.L306
	.loc 1 683 0
	movl	16(%edi), %ebp
	testl	%ebp, %ebp
	je	.L413
	.loc 1 685 0
	movl	%edi, (%ebx)
	.loc 1 686 0
	movl	40(%ebx), %ebp
	movl	%ebp, 20(%esp)
.LVL296:
	.loc 1 687 0
	movl	$5, 40(%ebx)
	.loc 1 690 0
	cmpl	$42, %ecx
	je	.L414
.LVL297:
.L312:
	.loc 1 765 0
	cmpl	$69, %ecx
	je	.L415
	.loc 1 791 0
	movl	20(%ebx), %eax
.L337:
	.loc 1 793 0
	cmpl	$73, %ecx
	je	.L416
.L339:
	.loc 1 824 0
	cmpl	$91, %ecx
	je	.L417
.L316:
	.loc 1 853 0
	cmpl	$103, %ecx
	je	.L418
.L356:
	.loc 1 870 0
	testl	%eax, %eax
	jne	.L419
	.loc 1 887 0
	movl	4(%edi), %eax
	testl	%eax, %eax
	jne	.L361
	movl	20(%esp), %edx
	sall	%edx
	xorl	%ecx, %ecx
	cmpl	$5, 20(%esp)
	setge	%cl
	leal	(%ecx,%ecx,8), %ecx
	subl	%ecx, %edx
	testl	%edx, %edx
	jg	.L420
.L361:
	.loc 1 893 0
	movl	4(%ebx), %edx
	cmpl	$666, %edx
	je	.L421
	.loc 1 899 0
	testl	%eax, %eax
	je	.L364
.L365:
.LBB83:
	.loc 1 903 0
	movl	136(%ebx), %eax
	cmpl	$2, %eax
	je	.L422
	cmpl	$3, %eax
	je	.L423
	.loc 1 905 0
	movl	132(%ebx), %eax
	leal	(%eax,%eax,2), %eax
	.loc 1 903 0
	movl	$5, 4(%esp)
	movl	%ebx, (%esp)
	call	*configuration_table+8(,%eax,4)
.L367:
.LVL298:
	.loc 1 907 0
	leal	-2(%eax), %edx
	cmpl	$1, %edx
	jbe	.L424
	.loc 1 910 0
	testl	%eax, %eax
	jne	.L371
.L370:
	.loc 1 911 0
	movl	16(%edi), %eax
.LVL299:
	testl	%eax, %eax
	jne	.L409
.LVL300:
.L372:
	.loc 1 912 0
	movl	$-1, 40(%ebx)
	movl	132(%ebx), %edx
	.loc 1 914 0
	xorl	%eax, %eax
	jmp	.L305
.LVL301:
	.p2align 2,,3
.L381:
.LBE83:
.LBE82:
.LBE81:
	.loc 1 505 0
	movl	$6, %esi
	jmp	.L303
.LVL302:
	.p2align 2,,3
.L410:
	.loc 1 512 0 discriminator 2
	leal	(%esi,%esi,2), %ecx
	cmpl	%ebp, configuration_table+8(,%ecx,4)
	jne	.L304
	jmp	.L386
.LVL303:
	.p2align 2,,3
.L412:
.LBB113:
.LBB110:
	.loc 1 679 0
	movl	4(%edi), %ecx
	testl	%ecx, %ecx
	je	.L307
	.p2align 2,,3
.L306:
	.loc 1 681 0
	movl	z_errmsg+16, %eax
	movl	%eax, 24(%edi)
	movl	$-2, %eax
	jmp	.L305
.LVL304:
	.p2align 2,,3
.L424:
.LBB84:
	.loc 1 908 0
	movl	$666, 4(%ebx)
	.loc 1 910 0
	cmpl	$2, %eax
	je	.L370
.L371:
	.loc 1 923 0
	decl	%eax
.LVL305:
	jne	.L409
	.loc 1 940 0
	movl	%edi, %eax
	call	flush_pending
	.loc 1 941 0
	movl	16(%edi), %eax
	testl	%eax, %eax
	jne	.L409
	.loc 1 942 0
	movl	$-1, 40(%ebx)
	.p2align 2,,3
.L409:
	movl	132(%ebx), %edx
	.loc 1 943 0
	xorl	%eax, %eax
.LVL306:
	jmp	.L305
.LVL307:
	.p2align 2,,3
.L384:
.LBE84:
.LBE110:
.LBE113:
	.loc 1 508 0
	movl	$-2, %eax
	.loc 1 528 0
	addl	$44, %esp
	.cfi_remember_state
.LCFI226:
	.cfi_def_cfa_offset 20
	popl	%ebx
	.cfi_restore 3
.LCFI227:
	.cfi_def_cfa_offset 16
	popl	%esi
	.cfi_restore 6
.LCFI228:
	.cfi_def_cfa_offset 12
	popl	%edi
	.cfi_restore 7
.LCFI229:
	.cfi_def_cfa_offset 8
	popl	%ebp
	.cfi_restore 5
.LCFI230:
	.cfi_def_cfa_offset 4
	ret
.LVL308:
	.p2align 2,,3
.L364:
.LCFI231:
	.cfi_restore_state
.LBB114:
.LBB111:
	.loc 1 899 0
	movl	116(%ebx), %eax
	testl	%eax, %eax
	jne	.L365
	.loc 1 900 0
	cmpl	$666, %edx
	jne	.L365
	jmp	.L409
	.p2align 2,,3
.L420:
	.loc 1 889 0
	movl	z_errmsg+28, %eax
	movl	%eax, 24(%edi)
	movl	132(%ebx), %edx
.LVL309:
	.loc 1 517 0
	xorl	%eax, %eax
	jmp	.L305
.LVL310:
	.p2align 2,,3
.L419:
	.loc 1 871 0
	movl	%edi, %eax
	call	flush_pending
	.loc 1 872 0
	movl	16(%edi), %eax
	testl	%eax, %eax
	je	.L372
	.loc 1 889 0
	movl	4(%edi), %eax
	jmp	.L361
	.p2align 2,,3
.L414:
	.loc 1 692 0
	cmpl	$2, 24(%ebx)
	je	.L425
.LBB85:
	.loc 1 738 0
	movl	48(%ebx), %ecx
	sall	$12, %ecx
	subl	$30720, %ecx
.LVL311:
	.loc 1 741 0
	decl	%eax
	jle	.L426
.L398:
	xorl	%eax, %eax
.L325:
	.loc 1 749 0
	orl	%eax, %ecx
.LVL312:
	.loc 1 750 0
	movl	108(%ebx), %ebp
	testl	%ebp, %ebp
	je	.L326
	orl	$32, %ecx
.LVL313:
.L326:
	.loc 1 751 0
	movl	%ecx, %eax
	movl	$31, %ebp
	xorl	%edx, %edx
	divl	%ebp
	addl	$31, %ecx
.LVL314:
	subl	%edx, %ecx
.LVL315:
	.loc 1 753 0
	movl	$113, 4(%ebx)
.LVL316:
.LBB86:
.LBB87:
	.loc 1 632 0
	movl	20(%ebx), %eax
	movl	%ecx, %edx
	shrl	$8, %edx
	movl	8(%ebx), %ebp
	movb	%dl, 0(%ebp,%eax)
	.loc 1 633 0
	movl	8(%ebx), %edx
	movb	%cl, 1(%edx,%eax)
	leal	2(%eax), %edx
	movl	%edx, 20(%ebx)
.LBE87:
.LBE86:
	.loc 1 757 0
	movl	108(%ebx), %ecx
.LVL317:
	testl	%ecx, %ecx
	je	.L327
	.loc 1 758 0
	movl	48(%edi), %ebp
	movl	%ebp, %ecx
	shrl	$16, %ecx
	movl	%ecx, 24(%esp)
.LVL318:
.LBB88:
.LBB89:
	.loc 1 632 0
	movl	%ebp, %ecx
.LVL319:
	shrl	$24, %ecx
	movl	8(%ebx), %ebp
	movb	%cl, 2(%eax,%ebp)
	.loc 1 633 0
	movl	8(%ebx), %edx
	movb	24(%esp), %cl
	movb	%cl, 3(%edx,%eax)
.LBE89:
.LBE88:
	.loc 1 759 0
	movl	48(%edi), %ecx
	andl	$65535, %ecx
.LVL320:
.LBB90:
.LBB91:
	.loc 1 632 0
	movl	%ecx, %ebp
	shrl	$8, %ebp
	movl	%ebp, 24(%esp)
	movb	24(%esp), %dl
	movl	8(%ebx), %ebp
	movb	%dl, 4(%ebp,%eax)
	.loc 1 633 0
	movl	8(%ebx), %edx
	movb	%cl, 5(%edx,%eax)
	addl	$6, %eax
	movl	%eax, 20(%ebx)
.LVL321:
.L327:
.LBE91:
.LBE90:
	.loc 1 761 0
	movl	$0, 8(%esp)
	movl	$0, 4(%esp)
	movl	$0, (%esp)
	call	adler32
	movl	%eax, 48(%edi)
	movl	4(%ebx), %ecx
	jmp	.L312
.LVL322:
	.p2align 2,,3
.L426:
	.loc 1 741 0
	cmpl	$1, %edx
	jle	.L398
	.loc 1 743 0
	cmpl	$5, %edx
	jle	.L399
	.loc 1 745 0
	cmpl	$6, %edx
	je	.L400
	movl	$192, %eax
	jmp	.L325
.LVL323:
	.p2align 2,,3
.L415:
.LBE85:
	.loc 1 765 0
	movl	28(%ebx), %ebp
	movl	20(%ebx), %eax
.L324:
	.loc 1 766 0
	movl	16(%ebp), %edx
	testl	%edx, %edx
	je	.L329
.LVL324:
.LBB92:
	.loc 1 769 0
	movl	32(%ebx), %ecx
	movl	20(%ebp), %edx
	andl	$65535, %edx
	cmpl	%ecx, %edx
	movl	%ebp, %edx
	movl	%eax, 24(%esp)
	jbe	.L330
	movl	%esi, 28(%esp)
	movl	%eax, %esi
	jmp	.L334
.LVL325:
	.p2align 2,,3
.L331:
	.loc 1 779 0
	movl	16(%ebp), %edx
	movb	(%edx,%ecx), %cl
	movl	8(%ebx), %edx
	movb	%cl, (%edx,%eax)
	incl	%eax
	movl	%eax, 20(%ebx)
	.loc 1 780 0
	movl	32(%ebx), %ecx
	incl	%ecx
	movl	%ecx, 32(%ebx)
	.loc 1 769 0
	movl	28(%ebx), %edx
	movzwl	20(%edx), %ebp
	cmpl	%ecx, %ebp
	jbe	.L427
	movl	%edx, %ebp
.L334:
	.loc 1 770 0
	cmpl	%eax, 12(%ebx)
	jne	.L331
	.loc 1 771 0
	movl	44(%edx), %ebp
	testl	%ebp, %ebp
	je	.L332
	cmpl	%eax, %esi
	jb	.L428
.LVL326:
.L332:
	.loc 1 774 0
	movl	%edi, %eax
	call	flush_pending
	.loc 1 775 0
	movl	20(%ebx), %esi
.LVL327:
	.loc 1 776 0
	cmpl	12(%ebx), %esi
	je	.L429
	movl	28(%ebx), %ebp
	movl	32(%ebx), %ecx
	movl	%esi, %eax
	jmp	.L331
.L429:
	movl	%esi, 24(%esp)
	movl	28(%esp), %esi
	movl	28(%ebx), %edx
	.loc 1 775 0
	movl	24(%esp), %eax
.LVL328:
.L330:
	.loc 1 782 0
	movl	44(%edx), %ecx
	testl	%ecx, %ecx
	je	.L335
	cmpl	%eax, 24(%esp)
	jb	.L430
.L335:
	.loc 1 785 0
	movl	20(%edx), %eax
	cmpl	%eax, 32(%ebx)
	je	.L336
	movl	4(%ebx), %ecx
	movl	20(%ebx), %eax
	jmp	.L337
.LVL329:
	.p2align 2,,3
.L421:
.LBE92:
	.loc 1 893 0
	testl	%eax, %eax
	je	.L364
	.loc 1 894 0
	movl	z_errmsg+28, %eax
	movl	%eax, 24(%edi)
	movl	20(%ebx), %eax
	movl	132(%ebx), %edx
.LVL330:
.L311:
.LBE111:
.LBE114:
	.loc 1 516 0
	cmpl	$1, %eax
	sbbl	%eax, %eax
	notl	%eax
	andl	$-5, %eax
	jmp	.L305
.LVL331:
	.p2align 2,,3
.L427:
	movl	%esi, 24(%esp)
	movl	28(%esp), %esi
.LVL332:
	jmp	.L330
.LVL333:
	.p2align 2,,3
.L416:
.LBB115:
.LBB112:
	.loc 1 793 0
	movl	28(%ebx), %edx
.L376:
	.loc 1 794 0
	movl	28(%edx), %ebp
	testl	%ebp, %ebp
	je	.L340
	movl	%eax, %ebp
	jmp	.L344
.LVL334:
	.p2align 2,,3
.L341:
.LBB93:
	.loc 1 810 0
	movl	32(%ebx), %ecx
	movl	28(%edx), %edx
	movb	(%edx,%ecx), %dl
.LVL335:
	incl	%ecx
	movl	%ecx, 32(%ebx)
	.loc 1 811 0
	movl	8(%ebx), %ecx
	movb	%dl, (%ecx,%eax)
	incl	%eax
	movl	%eax, 20(%ebx)
	.loc 1 812 0
	testb	%dl, %dl
	je	.L404
	movl	28(%ebx), %edx
.LVL336:
.L344:
	.loc 1 799 0
	cmpl	%eax, 12(%ebx)
	jne	.L341
	.loc 1 800 0
	movl	44(%edx), %ecx
	testl	%ecx, %ecx
	je	.L342
	cmpl	%ebp, %eax
	ja	.L431
.LVL337:
.L342:
	.loc 1 803 0
	movl	%edi, %eax
	call	flush_pending
	.loc 1 804 0
	movl	20(%ebx), %ebp
.LVL338:
	.loc 1 805 0
	cmpl	12(%ebx), %ebp
	je	.L403
	movl	28(%ebx), %edx
	movl	%ebp, %eax
	jmp	.L341
.LVL339:
	.p2align 2,,3
.L404:
	.loc 1 812 0
	xorl	%ecx, %ecx
.LVL340:
.L343:
	.loc 1 813 0
	movl	28(%ebx), %edx
	movl	44(%edx), %edx
	testl	%edx, %edx
	je	.L345
	cmpl	%eax, %ebp
	jb	.L432
.LVL341:
.L345:
	.loc 1 816 0
	testl	%ecx, %ecx
	je	.L346
	movl	4(%ebx), %ecx
	movl	20(%ebx), %eax
	jmp	.L339
.LVL342:
	.p2align 2,,3
.L428:
.LBE93:
.LBB94:
	.loc 1 772 0
	subl	%esi, %eax
	movl	%eax, 8(%esp)
	addl	8(%ebx), %esi
.LVL343:
	movl	%esi, 4(%esp)
	movl	48(%edi), %eax
	movl	%eax, (%esp)
	call	crc32
	movl	%eax, 48(%edi)
	jmp	.L332
	.p2align 2,,3
.L423:
.LBE94:
.LBB95:
	.loc 1 903 0
	movl	$5, %edx
	movl	%ebx, %eax
	call	deflate_rle
	jmp	.L367
	.p2align 2,,3
.L418:
.LBE95:
	.loc 1 853 0
	movl	28(%ebx), %edx
.L378:
	.loc 1 854 0
	movl	44(%edx), %edx
	testl	%edx, %edx
	je	.L357
	.loc 1 855 0
	leal	2(%eax), %edx
	cmpl	12(%ebx), %edx
	ja	.L433
.L358:
	.loc 1 858 0
	movb	48(%edi), %cl
	movl	8(%ebx), %ebp
	movb	%cl, 0(%ebp,%eax)
	.loc 1 859 0
	movl	48(%edi), %ecx
	shrl	$8, %ecx
	movl	8(%ebx), %ebp
	movb	%cl, 1(%ebp,%eax)
	movl	%edx, 20(%ebx)
	.loc 1 860 0
	movl	$0, 8(%esp)
	movl	$0, 4(%esp)
	movl	$0, (%esp)
	call	crc32
	movl	%eax, 48(%edi)
	.loc 1 861 0
	movl	$113, 4(%ebx)
	movl	20(%ebx), %eax
	jmp	.L356
	.p2align 2,,3
.L357:
	.loc 1 865 0
	movl	$113, 4(%ebx)
	jmp	.L356
	.p2align 2,,3
.L417:
	.loc 1 824 0
	movl	28(%ebx), %edx
.L377:
	.loc 1 825 0
	movl	36(%edx), %ebp
	testl	%ebp, %ebp
	je	.L348
	movl	%eax, %ebp
	jmp	.L352
.LVL344:
	.p2align 2,,3
.L349:
.LBB96:
	.loc 1 841 0
	movl	32(%ebx), %ecx
	movl	36(%edx), %edx
	movb	(%edx,%ecx), %dl
.LVL345:
	incl	%ecx
	movl	%ecx, 32(%ebx)
	.loc 1 842 0
	movl	8(%ebx), %ecx
	movb	%dl, (%ecx,%eax)
	incl	%eax
	movl	%eax, 20(%ebx)
	.loc 1 843 0
	testb	%dl, %dl
	je	.L406
	movl	28(%ebx), %edx
.LVL346:
.L352:
	.loc 1 830 0
	cmpl	%eax, 12(%ebx)
	jne	.L349
	.loc 1 831 0
	movl	44(%edx), %ecx
	testl	%ecx, %ecx
	je	.L350
	cmpl	%ebp, %eax
	ja	.L434
.LVL347:
.L350:
	.loc 1 834 0
	movl	%edi, %eax
	call	flush_pending
	.loc 1 835 0
	movl	20(%ebx), %ebp
.LVL348:
	.loc 1 836 0
	cmpl	12(%ebx), %ebp
	je	.L405
	movl	28(%ebx), %edx
	movl	%ebp, %eax
	jmp	.L349
.LVL349:
	.p2align 2,,3
.L406:
	.loc 1 843 0
	xorl	%ecx, %ecx
.LVL350:
.L351:
	.loc 1 844 0
	movl	28(%ebx), %edx
	movl	44(%edx), %edx
	testl	%edx, %edx
	je	.L353
	cmpl	%eax, %ebp
	jb	.L435
.LVL351:
.L353:
	.loc 1 847 0
	testl	%ecx, %ecx
	je	.L354
	movl	4(%ebx), %ecx
	movl	20(%ebx), %eax
	jmp	.L316
	.p2align 2,,3
.L346:
.LBE96:
.LBB97:
	.loc 1 817 0
	movl	$0, 32(%ebx)
	.loc 1 818 0
	movl	$91, 4(%ebx)
	movl	28(%ebx), %edx
	movl	20(%ebx), %eax
	jmp	.L377
	.p2align 2,,3
.L354:
.LBE97:
.LBB98:
	.loc 1 848 0
	movl	$103, 4(%ebx)
	movl	28(%ebx), %edx
	movl	20(%ebx), %eax
	jmp	.L378
	.p2align 2,,3
.L422:
.LBE98:
.LBB99:
	.loc 1 903 0
	movl	$5, %edx
	movl	%ebx, %eax
	call	deflate_huff
	jmp	.L367
.LVL352:
	.p2align 2,,3
.L336:
.LBE99:
.LBB100:
	.loc 1 786 0
	movl	$0, 32(%ebx)
	.loc 1 787 0
	movl	$73, 4(%ebx)
	movl	20(%ebx), %eax
	jmp	.L376
.LVL353:
	.p2align 2,,3
.L434:
.LBE100:
.LBB101:
	.loc 1 832 0
	subl	%ebp, %eax
	movl	%eax, 8(%esp)
	addl	8(%ebx), %ebp
.LVL354:
	movl	%ebp, 4(%esp)
	movl	48(%edi), %eax
	movl	%eax, (%esp)
	call	crc32
	movl	%eax, 48(%edi)
	jmp	.L350
.LVL355:
	.p2align 2,,3
.L431:
.LBE101:
.LBB102:
	.loc 1 801 0
	subl	%ebp, %eax
	movl	%eax, 8(%esp)
	addl	8(%ebx), %ebp
.LVL356:
	movl	%ebp, 4(%esp)
	movl	48(%edi), %eax
	movl	%eax, (%esp)
	call	crc32
	movl	%eax, 48(%edi)
	jmp	.L342
.L329:
.LBE102:
	.loc 1 791 0
	movl	$73, 4(%ebx)
	movl	%ebp, %edx
	jmp	.L376
.LVL357:
.L413:
	.loc 1 683 0
	movl	z_errmsg+28, %eax
	movl	%eax, 24(%edi)
	movl	20(%ebx), %eax
	jmp	.L311
.LVL358:
.L348:
	.loc 1 851 0
	movl	$103, 4(%ebx)
	jmp	.L378
.L340:
	.loc 1 822 0
	movl	$91, 4(%ebx)
	jmp	.L377
.L433:
	.loc 1 856 0
	movl	%edi, %eax
	call	flush_pending
	.loc 1 857 0
	movl	20(%ebx), %eax
	leal	2(%eax), %edx
	cmpl	12(%ebx), %edx
	ja	.L356
	jmp	.L358
	.p2align 2,,3
.L425:
	.loc 1 693 0
	movl	$0, 8(%esp)
	movl	$0, 4(%esp)
	movl	$0, (%esp)
	call	crc32
	movl	%eax, 48(%edi)
	.loc 1 694 0
	movl	20(%ebx), %edx
	movl	8(%ebx), %eax
	movb	$31, (%eax,%edx)
	.loc 1 695 0
	movl	8(%ebx), %eax
	movb	$-117, 1(%eax,%edx)
	.loc 1 696 0
	movl	8(%ebx), %eax
	movb	$8, 2(%eax,%edx)
	leal	3(%edx), %ebp
	movl	%ebp, 20(%ebx)
	.loc 1 697 0
	movl	28(%ebx), %ecx
	testl	%ecx, %ecx
	je	.L436
	.loc 1 710 0
	addl	8(%ebx), %ebp
	movl	(%ecx), %eax
	testl	%eax, %eax
	setne	24(%esp)
	cmpl	$1, 44(%ecx)
	sbbl	%eax, %eax
	notl	%eax
	andl	$2, %eax
	addl	24(%esp), %eax
	movb	%al, 24(%esp)
	cmpl	$1, 16(%ecx)
	sbbl	%eax, %eax
	notl	%eax
	andl	$4, %eax
	addl	24(%esp), %eax
	movb	%al, 24(%esp)
	cmpl	$1, 28(%ecx)
	sbbl	%eax, %eax
	notl	%eax
	andl	$8, %eax
	addl	24(%esp), %eax
	movb	%al, 24(%esp)
	cmpl	$1, 36(%ecx)
	sbbl	%eax, %eax
	notl	%eax
	andl	$16, %eax
	addl	24(%esp), %eax
	movb	%al, 0(%ebp)
	.loc 1 716 0
	movl	8(%ebx), %ecx
	movl	28(%ebx), %eax
	movl	4(%eax), %eax
	movb	%al, 4(%ecx,%edx)
	.loc 1 717 0
	movl	8(%ebx), %ecx
	movl	28(%ebx), %eax
	movl	4(%eax), %eax
	shrl	$8, %eax
	movb	%al, 5(%ecx,%edx)
	.loc 1 718 0
	movl	8(%ebx), %ecx
	movl	28(%ebx), %eax
	movzwl	6(%eax), %eax
	movb	%al, 6(%ecx,%edx)
	.loc 1 719 0
	movl	8(%ebx), %ecx
	movl	28(%ebx), %eax
	movzbl	7(%eax), %eax
	movb	%al, 7(%ecx,%edx)
	leal	8(%edx), %eax
	movl	%eax, 20(%ebx)
	.loc 1 720 0
	addl	8(%ebx), %eax
	movl	132(%ebx), %ecx
	cmpl	$9, %ecx
	je	.L394
	cmpl	$1, 136(%ebx)
	jle	.L437
	movb	$4, %cl
.L321:
	movb	%cl, (%eax)
	.loc 1 723 0
	movl	8(%ebx), %ecx
	movl	28(%ebx), %eax
	movl	12(%eax), %eax
	movb	%al, 9(%ecx,%edx)
	leal	10(%edx), %eax
	movl	%eax, 20(%ebx)
	.loc 1 724 0
	movl	28(%ebx), %ebp
	movl	16(%ebp), %ecx
	testl	%ecx, %ecx
	je	.L322
	.loc 1 725 0
	movl	20(%ebp), %ecx
	movl	8(%ebx), %ebp
	movb	%cl, 0(%ebp,%eax)
	.loc 1 726 0
	movl	8(%ebx), %ecx
	movl	28(%ebx), %eax
	movl	20(%eax), %eax
	shrl	$8, %eax
	movb	%al, 11(%ecx,%edx)
	leal	12(%edx), %eax
	movl	%eax, 20(%ebx)
	movl	28(%ebx), %ebp
.L322:
	.loc 1 728 0
	movl	44(%ebp), %edx
	testl	%edx, %edx
	jne	.L438
.L323:
	.loc 1 731 0
	movl	$0, 32(%ebx)
	.loc 1 732 0
	movl	$69, 4(%ebx)
	jmp	.L324
.LVL359:
.L432:
.LBB103:
	.loc 1 814 0
	subl	%ebp, %eax
	movl	%eax, 8(%esp)
	addl	8(%ebx), %ebp
.LVL360:
	movl	%ebp, 4(%esp)
	movl	48(%edi), %eax
	movl	%eax, (%esp)
	movl	%ecx, 16(%esp)
	call	crc32
.LVL361:
	movl	%eax, 48(%edi)
	movl	16(%esp), %ecx
	jmp	.L345
.LVL362:
.L435:
.LBE103:
.LBB104:
	.loc 1 845 0
	subl	%ebp, %eax
	movl	%eax, 8(%esp)
	addl	8(%ebx), %ebp
.LVL363:
	movl	%ebp, 4(%esp)
	movl	48(%edi), %eax
	movl	%eax, (%esp)
	movl	%ecx, 16(%esp)
	call	crc32
.LVL364:
	movl	%eax, 48(%edi)
	movl	16(%esp), %ecx
	jmp	.L353
.LVL365:
.L430:
.LBE104:
.LBB105:
	.loc 1 783 0
	subl	24(%esp), %eax
	movl	%eax, 8(%esp)
	movl	24(%esp), %eax
	addl	8(%ebx), %eax
	movl	%eax, 4(%esp)
	movl	48(%edi), %eax
	movl	%eax, (%esp)
	call	crc32
	movl	%eax, 48(%edi)
	movl	28(%ebx), %edx
	jmp	.L335
.LVL366:
.L399:
.LBE105:
.LBB106:
	.loc 1 743 0
	movl	$64, %eax
	jmp	.L325
.LVL367:
.L403:
.LBE106:
.LBB107:
	.loc 1 804 0
	movl	%ebp, %eax
	.loc 1 806 0
	movl	$1, %ecx
	jmp	.L343
.LVL368:
.L405:
.LBE107:
.LBB108:
	.loc 1 835 0
	movl	%ebp, %eax
	.loc 1 837 0
	movl	$1, %ecx
	jmp	.L351
.LVL369:
.L438:
.LBE108:
	.loc 1 729 0
	movl	%eax, 8(%esp)
	movl	8(%ebx), %eax
	movl	%eax, 4(%esp)
	movl	48(%edi), %eax
	movl	%eax, (%esp)
	call	crc32
	movl	%eax, 48(%edi)
	movl	28(%ebx), %ebp
	movl	20(%ebx), %eax
	jmp	.L323
.L394:
	.loc 1 720 0
	movb	$2, %cl
	jmp	.L321
.L437:
	decl	%ecx
	setle	%cl
	sall	$2, %ecx
	jmp	.L321
.LVL370:
.L400:
.LBB109:
	.loc 1 745 0
	movl	$128, %eax
	jmp	.L325
.LVL371:
.L436:
.LBE109:
	.loc 1 698 0
	movl	8(%ebx), %eax
	movb	$0, (%eax,%ebp)
	.loc 1 699 0
	movl	8(%ebx), %eax
	movb	$0, 4(%eax,%edx)
	.loc 1 700 0
	movl	8(%ebx), %eax
	movb	$0, 5(%eax,%edx)
	.loc 1 701 0
	movl	8(%ebx), %eax
	movb	$0, 6(%eax,%edx)
	.loc 1 702 0
	movl	8(%ebx), %eax
	movb	$0, 7(%eax,%edx)
	leal	8(%edx), %ebp
	movl	%ebp, 20(%ebx)
	.loc 1 703 0
	addl	8(%ebx), %ebp
	movl	132(%ebx), %ecx
	cmpl	$9, %ecx
	je	.L387
	movb	$4, %al
	cmpl	$1, 136(%ebx)
	jle	.L439
.L315:
	movb	%al, 0(%ebp)
	.loc 1 706 0
	movl	8(%ebx), %eax
	movb	$3, 9(%eax,%edx)
	leal	10(%edx), %eax
	movl	%eax, 20(%ebx)
	.loc 1 707 0
	movl	$113, 4(%ebx)
	jmp	.L356
.L387:
	.loc 1 703 0
	movb	$2, %al
	jmp	.L315
.L439:
	decl	%ecx
	setle	%al
	sall	$2, %eax
	jmp	.L315
.LBE112:
.LBE115:
	.cfi_endproc
.LFE33:
	.size	deflateParams, .-deflateParams
	.p2align 2,,3
	.globl	deflateTune
	.type	deflateTune, @function
deflateTune:
.LFB34:
	.loc 1 537 0
	.cfi_startproc
.LVL372:
	movl	4(%esp), %eax
	.loc 1 540 0
	testl	%eax, %eax
	je	.L442
	.loc 1 540 0 is_stmt 0 discriminator 2
	movl	28(%eax), %eax
	testl	%eax, %eax
	je	.L443
.LVL373:
	.loc 1 542 0 is_stmt 1
	movl	8(%esp), %edx
	movl	%edx, 140(%eax)
	.loc 1 543 0
	movl	12(%esp), %edx
	movl	%edx, 128(%eax)
	.loc 1 544 0
	movl	16(%esp), %edx
	movl	%edx, 144(%eax)
	.loc 1 545 0
	movl	20(%esp), %edx
	movl	%edx, 124(%eax)
	.loc 1 546 0
	xorl	%eax, %eax
	ret
.LVL374:
.L442:
	.loc 1 540 0
	movl	$-2, %eax
	ret
.L443:
	movl	$-2, %eax
	.loc 1 547 0
	ret
	.cfi_endproc
.LFE34:
	.size	deflateTune, .-deflateTune
	.p2align 2,,3
	.globl	deflateBound
	.type	deflateBound, @function
deflateBound:
.LFB35:
	.loc 1 569 0
	.cfi_startproc
.LVL375:
	pushl	%ebp
.LCFI232:
	.cfi_def_cfa_offset 8
	.cfi_offset 5, -8
	pushl	%edi
.LCFI233:
	.cfi_def_cfa_offset 12
	.cfi_offset 7, -12
	pushl	%esi
.LCFI234:
	.cfi_def_cfa_offset 16
	.cfi_offset 6, -16
	pushl	%ebx
.LCFI235:
	.cfi_def_cfa_offset 20
	.cfi_offset 3, -20
	movl	20(%esp), %ebx
	movl	24(%esp), %ecx
	.loc 1 576 0
	leal	7(%ecx), %esi
	movl	%esi, %edx
	shrl	$3, %edx
	leal	63(%ecx), %eax
	shrl	$6, %eax
	.loc 1 575 0
	addl	%edx, %eax
	.loc 1 576 0
	addl	%ecx, %eax
.LVL376:
	.loc 1 579 0
	testl	%ebx, %ebx
	je	.L445
	.loc 1 579 0 is_stmt 0 discriminator 1
	movl	28(%ebx), %ebx
	testl	%ebx, %ebx
	je	.L445
.LVL377:
	.loc 1 584 0 is_stmt 1
	movl	24(%ebx), %edx
	cmpl	$1, %edx
	je	.L450
	cmpl	$2, %edx
	je	.L451
	.loc 1 611 0
	cmpl	$1, %edx
	sbbl	%edx, %edx
	notl	%edx
	andl	$6, %edx
.L448:
.LVL378:
	.loc 1 615 0
	cmpl	$15, 48(%ebx)
	je	.L467
.L457:
	.loc 1 616 0
	leal	5(%edx,%eax), %eax
.LVL379:
	.loc 1 621 0
	popl	%ebx
	.cfi_remember_state
.LCFI236:
	.cfi_def_cfa_offset 16
	.cfi_restore 3
	popl	%esi
.LCFI237:
	.cfi_def_cfa_offset 12
	.cfi_restore 6
	popl	%edi
.LCFI238:
	.cfi_def_cfa_offset 8
	.cfi_restore 7
	popl	%ebp
.LCFI239:
	.cfi_def_cfa_offset 4
	.cfi_restore 5
	ret
.LVL380:
	.p2align 2,,3
.L451:
.LCFI240:
	.cfi_restore_state
	.loc 1 593 0
	movl	28(%ebx), %edi
	testl	%edi, %edi
	je	.L461
	.loc 1 594 0
	movl	16(%edi), %ebp
	testl	%ebp, %ebp
	je	.L462
	.loc 1 595 0
	movl	20(%edi), %edx
	addl	$20, %edx
.LVL381:
.L452:
	.loc 1 596 0
	movl	28(%edi), %ebp
.LVL382:
	.loc 1 597 0
	testl	%ebp, %ebp
	je	.L453
	.loc 1 566 0 discriminator 1
	subl	%edx, %ebp
.LVL383:
	.p2align 2,,3
.L454:
	.loc 1 599 0 discriminator 1
	incl	%edx
.LVL384:
	.loc 1 600 0 discriminator 1
	cmpb	$0, -1(%ebp,%edx)
	jne	.L454
.L453:
	.loc 1 601 0
	movl	36(%edi), %ebp
.LVL385:
	.loc 1 602 0
	testl	%ebp, %ebp
	je	.L455
	.loc 1 566 0 discriminator 1
	subl	%edx, %ebp
.LVL386:
	.p2align 2,,3
.L456:
	.loc 1 604 0 discriminator 1
	incl	%edx
.LVL387:
	.loc 1 605 0 discriminator 1
	cmpb	$0, -1(%ebp,%edx)
	jne	.L456
.L455:
	.loc 1 606 0
	movl	44(%edi), %edi
	testl	%edi, %edi
	je	.L448
	.loc 1 607 0
	addl	$2, %edx
.LVL388:
	jmp	.L448
	.p2align 2,,3
.L467:
	.loc 1 615 0 discriminator 1
	cmpl	$15, 80(%ebx)
	jne	.L457
	.loc 1 619 0
	movl	%ecx, %eax
.LVL389:
	shrl	$12, %eax
	addl	%esi, %eax
	movl	%ecx, %ebx
	shrl	$14, %ebx
	addl	%ebx, %eax
	.loc 1 620 0
	shrl	$25, %ecx
	addl	%ecx, %eax
	.loc 1 619 0
	addl	%edx, %eax
	.loc 1 621 0
	popl	%ebx
	.cfi_remember_state
	.cfi_restore 3
.LCFI241:
	.cfi_def_cfa_offset 16
	popl	%esi
	.cfi_restore 6
.LCFI242:
	.cfi_def_cfa_offset 12
	popl	%edi
	.cfi_restore 7
.LCFI243:
	.cfi_def_cfa_offset 8
	popl	%ebp
	.cfi_restore 5
.LCFI244:
	.cfi_def_cfa_offset 4
	ret
.LVL390:
	.p2align 2,,3
.L450:
.LCFI245:
	.cfi_restore_state
	.loc 1 589 0
	cmpl	$1, 108(%ebx)
	sbbl	%edx, %edx
	andl	$-4, %edx
	addl	$10, %edx
	jmp	.L448
.LVL391:
	.p2align 2,,3
.L445:
	.loc 1 580 0
	addl	$11, %eax
.LVL392:
	.loc 1 621 0
	popl	%ebx
	.cfi_remember_state
	.cfi_restore 3
.LCFI246:
	.cfi_def_cfa_offset 16
	popl	%esi
	.cfi_restore 6
.LCFI247:
	.cfi_def_cfa_offset 12
	popl	%edi
	.cfi_restore 7
.LCFI248:
	.cfi_def_cfa_offset 8
	popl	%ebp
	.cfi_restore 5
.LCFI249:
	.cfi_def_cfa_offset 4
	ret
.LVL393:
	.p2align 2,,3
.L461:
.LCFI250:
	.cfi_restore_state
	.loc 1 592 0
	movl	$18, %edx
	jmp	.L448
	.p2align 2,,3
.L462:
	movl	$18, %edx
	jmp	.L452
	.cfi_endproc
.LFE35:
	.size	deflateBound, .-deflateBound
	.p2align 2,,3
	.globl	deflate
	.type	deflate, @function
deflate:
.LFB38:
	.loc 1 668 0
	.cfi_startproc
.LVL394:
	pushl	%ebp
.LCFI251:
	.cfi_def_cfa_offset 8
	.cfi_offset 5, -8
	pushl	%edi
.LCFI252:
	.cfi_def_cfa_offset 12
	.cfi_offset 7, -12
	pushl	%esi
.LCFI253:
	.cfi_def_cfa_offset 16
	.cfi_offset 6, -16
	pushl	%ebx
.LCFI254:
	.cfi_def_cfa_offset 20
	.cfi_offset 3, -20
	subl	$44, %esp
.LCFI255:
	.cfi_def_cfa_offset 64
	movl	64(%esp), %esi
	.loc 1 672 0
	testl	%esi, %esi
	je	.L547
	.loc 1 672 0 is_stmt 0 discriminator 1
	movl	28(%esi), %ebx
	testl	%ebx, %ebx
	je	.L547
	cmpl	$5, 68(%esp)
	jg	.L547
	.loc 1 673 0 is_stmt 1
	movl	68(%esp), %eax
	testl	%eax, %eax
	js	.L547
.LVL395:
	.loc 1 678 0
	movl	12(%esi), %ebp
	testl	%ebp, %ebp
	je	.L470
	.loc 1 678 0 is_stmt 0 discriminator 1
	movl	(%esi), %edi
	testl	%edi, %edi
	je	.L578
.L471:
	.loc 1 680 0 is_stmt 1 discriminator 1
	movl	4(%ebx), %eax
	.loc 1 679 0 discriminator 1
	cmpl	$666, %eax
	je	.L579
.L472:
	.loc 1 683 0
	movl	16(%esi), %edx
	testl	%edx, %edx
	je	.L576
	.loc 1 685 0
	movl	%esi, (%ebx)
	.loc 1 686 0
	movl	40(%ebx), %ecx
	movl	%ecx, 28(%esp)
.LVL396:
	.loc 1 687 0
	movl	68(%esp), %edx
	movl	%edx, 40(%ebx)
	.loc 1 690 0
	cmpl	$42, %eax
	je	.L580
	.loc 1 765 0
	cmpl	$69, %eax
	je	.L581
.LVL397:
.L490:
	.loc 1 791 0
	movl	20(%ebx), %edx
	.loc 1 793 0
	cmpl	$73, %eax
	je	.L582
.L501:
	.loc 1 824 0
	cmpl	$91, %eax
	je	.L583
.L478:
	.loc 1 853 0
	cmpl	$103, %eax
	je	.L584
.L518:
	.loc 1 870 0
	testl	%edx, %edx
	jne	.L585
	.loc 1 887 0
	movl	4(%esi), %eax
	testl	%eax, %eax
	je	.L586
.L523:
	.loc 1 893 0
	movl	4(%ebx), %edx
	cmpl	$666, %edx
	je	.L587
	.loc 1 899 0
	testl	%eax, %eax
	je	.L527
.L528:
.LBB116:
	.loc 1 903 0
	movl	136(%ebx), %eax
	cmpl	$2, %eax
	je	.L588
	.loc 1 903 0 is_stmt 0 discriminator 2
	cmpl	$3, %eax
	je	.L589
	.loc 1 905 0 is_stmt 1 discriminator 4
	movl	132(%ebx), %eax
	leal	(%eax,%eax,2), %eax
	.loc 1 903 0 discriminator 4
	movl	68(%esp), %ecx
	movl	%ecx, 4(%esp)
	movl	%ebx, (%esp)
	call	*configuration_table+8(,%eax,4)
.L531:
.LVL398:
	.loc 1 907 0 discriminator 6
	leal	-2(%eax), %edx
	cmpl	$1, %edx
	jbe	.L590
	.loc 1 910 0
	testl	%eax, %eax
	jne	.L535
.L534:
	.loc 1 911 0
	movl	16(%esi), %ebp
	testl	%ebp, %ebp
	je	.L577
.LVL399:
.L572:
.LBE116:
	.loc 1 949 0
	xorl	%eax, %eax
.LVL400:
.L469:
	.loc 1 976 0
	addl	$44, %esp
	.cfi_remember_state
.LCFI256:
	.cfi_def_cfa_offset 20
	popl	%ebx
.LCFI257:
	.cfi_def_cfa_offset 16
	.cfi_restore 3
	popl	%esi
.LCFI258:
	.cfi_def_cfa_offset 12
	.cfi_restore 6
	popl	%edi
.LCFI259:
	.cfi_def_cfa_offset 8
	.cfi_restore 7
	popl	%ebp
.LCFI260:
	.cfi_def_cfa_offset 4
	.cfi_restore 5
	ret
.LVL401:
	.p2align 2,,3
.L586:
.LCFI261:
	.cfi_restore_state
	.loc 1 887 0 discriminator 1
	movl	68(%esp), %ecx
	sall	%ecx
	xorl	%edx, %edx
	cmpl	$5, 68(%esp)
	sete	%dl
	leal	(%edx,%edx,8), %edx
	subl	%edx, %ecx
	movl	28(%esp), %ebp
	sall	%ebp
	xorl	%edx, %edx
	cmpl	$5, 28(%esp)
	setge	%dl
	movl	%edx, %edi
	leal	(%edi,%edi,8), %edi
	subl	%edi, %ebp
	cmpl	%ebp, %ecx
	jg	.L523
	cmpl	$4, 68(%esp)
	je	.L523
.LVL402:
.L576:
	.loc 1 894 0
	movl	z_errmsg+28, %eax
	movl	%eax, 24(%esi)
	movl	$-5, %eax
	jmp	.L469
.LVL403:
	.p2align 2,,3
.L590:
.LBB117:
	.loc 1 908 0
	movl	$666, 4(%ebx)
	.loc 1 910 0
	cmpl	$2, %eax
	je	.L534
.L535:
	.loc 1 923 0
	decl	%eax
.LVL404:
	jne	.L529
	.loc 1 924 0
	cmpl	$1, 68(%esp)
	je	.L591
	.loc 1 926 0
	cmpl	$5, 68(%esp)
	je	.L537
	.loc 1 927 0
	movl	$0, 12(%esp)
	movl	$0, 8(%esp)
	movl	$0, 4(%esp)
	movl	%ebx, (%esp)
	call	_tr_stored_block
	.loc 1 931 0
	cmpl	$3, 68(%esp)
	jne	.L537
	.loc 1 932 0
	movl	68(%ebx), %edx
	movl	76(%ebx), %eax
	movw	$0, -2(%edx,%eax,2)
	leal	-2(%eax,%eax), %ecx
	xorl	%eax, %eax
	movl	%edx, %edi
	rep stosb
	.loc 1 933 0
	movl	116(%ebx), %edi
	testl	%edi, %edi
	jne	.L537
	.loc 1 934 0
	movl	$0, 108(%ebx)
	.loc 1 935 0
	movl	$0, 92(%ebx)
	.loc 1 936 0
	movl	$0, 5812(%ebx)
	.p2align 2,,3
.L537:
	.loc 1 940 0
	movl	%esi, %eax
	call	flush_pending
	.loc 1 941 0
	movl	16(%esi), %ecx
	testl	%ecx, %ecx
	jne	.L529
	.p2align 2,,3
.L577:
	.loc 1 942 0
	movl	$-1, 40(%ebx)
	.loc 1 943 0
	xorl	%eax, %eax
.LBE117:
	.loc 1 976 0
	addl	$44, %esp
	.cfi_remember_state
.LCFI262:
	.cfi_def_cfa_offset 20
	popl	%ebx
	.cfi_restore 3
.LCFI263:
	.cfi_def_cfa_offset 16
.LVL405:
	popl	%esi
	.cfi_restore 6
.LCFI264:
	.cfi_def_cfa_offset 12
	popl	%edi
	.cfi_restore 7
.LCFI265:
	.cfi_def_cfa_offset 8
	popl	%ebp
	.cfi_restore 5
.LCFI266:
	.cfi_def_cfa_offset 4
	ret
.LVL406:
	.p2align 2,,3
.L587:
.LCFI267:
	.cfi_restore_state
	.loc 1 893 0 discriminator 1
	testl	%eax, %eax
	jne	.L576
.L527:
	.loc 1 899 0 discriminator 1
	movl	116(%ebx), %eax
	testl	%eax, %eax
	jne	.L528
	movl	68(%esp), %eax
	testl	%eax, %eax
	je	.L572
	.loc 1 900 0
	cmpl	$666, %edx
	jne	.L528
	.p2align 2,,3
.L529:
	.loc 1 949 0
	cmpl	$4, 68(%esp)
	jne	.L572
	.loc 1 950 0
	movl	24(%ebx), %eax
	testl	%eax, %eax
	jle	.L573
	.loc 1 954 0
	cmpl	$2, %eax
	je	.L592
	.loc 1 967 0
	movl	48(%esi), %edx
	movl	%edx, %ecx
	shrl	$16, %ecx
.LVL407:
.LBB118:
.LBB119:
	.loc 1 632 0
	movl	20(%ebx), %eax
	movl	8(%ebx), %edi
	shrl	$24, %edx
	movb	%dl, (%edi,%eax)
	.loc 1 633 0
	movl	8(%ebx), %edx
	movb	%cl, 1(%edx,%eax)
.LBE119:
.LBE118:
	.loc 1 968 0
	movl	48(%esi), %edx
	andl	$65535, %edx
.LVL408:
.LBB120:
.LBB121:
	.loc 1 632 0
	movl	8(%ebx), %ebp
	movl	%edx, %edi
	shrl	$8, %edi
	movl	%edi, %ecx
.LVL409:
	movb	%cl, 2(%ebp,%eax)
	.loc 1 633 0
	movl	8(%ebx), %ecx
	movb	%dl, 3(%ecx,%eax)
	addl	$4, %eax
	movl	%eax, 20(%ebx)
.LVL410:
.L539:
.LBE121:
.LBE120:
	.loc 1 970 0
	movl	%esi, %eax
	call	flush_pending
	.loc 1 974 0
	movl	24(%ebx), %eax
	testl	%eax, %eax
	jle	.L540
	.loc 1 974 0 is_stmt 0 discriminator 1
	negl	%eax
	movl	%eax, 24(%ebx)
.L540:
	.loc 1 975 0 is_stmt 1
	xorl	%eax, %eax
	movl	20(%ebx), %edx
	testl	%edx, %edx
	sete	%al
	jmp	.L469
.LVL411:
	.p2align 2,,3
.L579:
	.loc 1 680 0
	cmpl	$4, 68(%esp)
	je	.L472
.L470:
	.loc 1 681 0
	movl	z_errmsg+16, %eax
	movl	%eax, 24(%esi)
	movl	$-2, %eax
	jmp	.L469
.LVL412:
	.p2align 2,,3
.L585:
	.loc 1 871 0
	movl	%esi, %eax
	call	flush_pending
	.loc 1 872 0
	movl	16(%esi), %eax
	testl	%eax, %eax
	je	.L577
	.loc 1 889 0
	movl	4(%esi), %eax
	jmp	.L523
	.p2align 2,,3
.L580:
	.loc 1 692 0
	cmpl	$2, 24(%ebx)
	je	.L593
.LBB122:
	.loc 1 738 0
	movl	48(%ebx), %eax
	sall	$12, %eax
	subl	$30720, %eax
.LVL413:
	.loc 1 741 0
	cmpl	$1, 136(%ebx)
	jle	.L594
.L559:
	xorl	%ecx, %ecx
.L487:
	.loc 1 749 0
	orl	%eax, %ecx
.LVL414:
	.loc 1 750 0
	movl	108(%ebx), %edi
	testl	%edi, %edi
	je	.L488
	.loc 1 750 0 is_stmt 0 discriminator 1
	orl	$32, %ecx
.LVL415:
.L488:
	.loc 1 751 0 is_stmt 1
	movl	$31, %ebp
	movl	%ecx, %eax
	xorl	%edx, %edx
	divl	%ebp
	addl	$31, %ecx
.LVL416:
	subl	%edx, %ecx
.LVL417:
	.loc 1 753 0
	movl	$113, 4(%ebx)
.LVL418:
.LBB123:
.LBB124:
	.loc 1 632 0
	movl	20(%ebx), %eax
	movl	8(%ebx), %ebp
	movl	%ecx, %edi
	shrl	$8, %edi
	movl	%edi, %edx
	movb	%dl, 0(%ebp,%eax)
	.loc 1 633 0
	movl	8(%ebx), %edx
	movb	%cl, 1(%edx,%eax)
	leal	2(%eax), %edx
	movl	%edx, 20(%ebx)
.LBE124:
.LBE123:
	.loc 1 757 0
	movl	108(%ebx), %edx
	testl	%edx, %edx
	je	.L489
	.loc 1 758 0
	movl	48(%esi), %ecx
.LVL419:
	movl	%ecx, %edi
	shrl	$16, %edi
.LVL420:
.LBB125:
.LBB126:
	.loc 1 632 0
	movl	8(%ebx), %ebp
	shrl	$24, %ecx
	movb	%cl, 2(%ebp,%eax)
	.loc 1 633 0
	movl	8(%ebx), %edx
	movl	%edi, %ecx
	movb	%cl, 3(%edx,%eax)
.LBE126:
.LBE125:
	.loc 1 759 0
	movl	48(%esi), %edx
	andl	$65535, %edx
.LVL421:
.LBB127:
.LBB128:
	.loc 1 632 0
	movl	8(%ebx), %ebp
	movl	%edx, %edi
.LVL422:
	shrl	$8, %edi
	movl	%edi, %ecx
	movb	%cl, 4(%ebp,%eax)
	.loc 1 633 0
	movl	8(%ebx), %ecx
	movb	%dl, 5(%ecx,%eax)
	addl	$6, %eax
	movl	%eax, 20(%ebx)
.LVL423:
.L489:
.LBE128:
.LBE127:
	.loc 1 761 0
	movl	$0, 8(%esp)
	movl	$0, 4(%esp)
	movl	$0, (%esp)
	call	adler32
	movl	%eax, 48(%esi)
	movl	4(%ebx), %eax
.LBE122:
	.loc 1 765 0
	cmpl	$69, %eax
	jne	.L490
.L581:
	movl	28(%ebx), %edi
	movl	20(%ebx), %edx
.L486:
	.loc 1 766 0
	movl	16(%edi), %eax
	testl	%eax, %eax
	je	.L491
.LVL424:
.LBB129:
	.loc 1 769 0
	movl	32(%ebx), %ecx
	movl	20(%edi), %eax
	andl	$65535, %eax
	cmpl	%ecx, %eax
	movl	%edi, %eax
	movl	%edx, %ebp
	ja	.L496
.LVL425:
	.p2align 2,,3
.L492:
	.loc 1 782 0
	movl	44(%eax), %edi
	testl	%edi, %edi
	je	.L497
	.loc 1 782 0 is_stmt 0 discriminator 1
	cmpl	%edx, %ebp
	jb	.L595
.LVL426:
.L497:
	.loc 1 785 0 is_stmt 1
	movl	20(%eax), %edx
	cmpl	%edx, 32(%ebx)
	je	.L498
	movl	4(%ebx), %eax
	movl	20(%ebx), %edx
.LBE129:
	.loc 1 793 0
	cmpl	$73, %eax
	jne	.L501
	.p2align 2,,3
.L582:
	movl	28(%ebx), %eax
	jmp	.L541
.LVL427:
.L609:
.LBB130:
	.loc 1 771 0
	movl	44(%eax), %eax
	testl	%eax, %eax
	je	.L494
	.loc 1 771 0 is_stmt 0 discriminator 1
	cmpl	%edx, %ebp
	jb	.L596
.LVL428:
.L494:
	.loc 1 774 0 is_stmt 1
	movl	%esi, %eax
	call	flush_pending
	.loc 1 775 0
	movl	20(%ebx), %ebp
.LVL429:
	.loc 1 776 0
	cmpl	12(%ebx), %ebp
	je	.L597
	movl	28(%ebx), %edi
	movl	32(%ebx), %ecx
	movl	%ebp, %edx
.LVL430:
.L493:
	.loc 1 779 0
	movl	16(%edi), %eax
	movb	(%eax,%ecx), %cl
	movl	8(%ebx), %eax
	movb	%cl, (%eax,%edx)
	incl	%edx
	movl	%edx, 20(%ebx)
	.loc 1 780 0
	movl	32(%ebx), %ecx
	incl	%ecx
	movl	%ecx, 32(%ebx)
	.loc 1 769 0
	movl	28(%ebx), %eax
	movl	20(%eax), %edi
	andl	$65535, %edi
	cmpl	%ecx, %edi
	jbe	.L492
	movl	%eax, %edi
.L496:
	.loc 1 770 0
	cmpl	%edx, 12(%ebx)
	jne	.L493
	jmp	.L609
.LVL431:
	.p2align 2,,3
.L589:
.LBE130:
.LBB131:
	.loc 1 903 0 discriminator 3
	movl	68(%esp), %edx
	movl	%ebx, %eax
	call	deflate_rle
	jmp	.L531
	.p2align 2,,3
.L498:
.LBE131:
.LBB132:
	.loc 1 786 0
	movl	$0, 32(%ebx)
	.loc 1 787 0
	movl	$73, 4(%ebx)
	movl	20(%ebx), %edx
.L541:
.LBE132:
	.loc 1 794 0
	movl	28(%eax), %ecx
	testl	%ecx, %ecx
	je	.L502
	movl	%edx, %ecx
	jmp	.L506
.LVL432:
	.p2align 2,,3
.L503:
.LBB133:
	.loc 1 810 0
	movl	32(%ebx), %edi
	movl	28(%eax), %eax
	movb	(%eax,%edi), %al
.LVL433:
	incl	%edi
	movl	%edi, 32(%ebx)
	.loc 1 811 0
	movl	8(%ebx), %edi
	movb	%al, (%edi,%edx)
	incl	%edx
	movl	%edx, 20(%ebx)
	.loc 1 812 0
	testb	%al, %al
	je	.L565
	movl	28(%ebx), %eax
.LVL434:
.L506:
	.loc 1 799 0
	cmpl	%edx, 12(%ebx)
	jne	.L503
	.loc 1 800 0
	movl	44(%eax), %eax
	testl	%eax, %eax
	je	.L504
	.loc 1 800 0 is_stmt 0 discriminator 1
	cmpl	%edx, %ecx
	jb	.L599
.LVL435:
.L504:
	.loc 1 803 0 is_stmt 1
	movl	%esi, %eax
	call	flush_pending
	.loc 1 804 0
	movl	20(%ebx), %ecx
.LVL436:
	.loc 1 805 0
	cmpl	12(%ebx), %ecx
	je	.L564
	movl	28(%ebx), %eax
	movl	%ecx, %edx
	jmp	.L503
.LVL437:
	.p2align 2,,3
.L594:
.LBE133:
.LBB134:
	.loc 1 741 0 discriminator 1
	movl	132(%ebx), %edx
	cmpl	$1, %edx
	jle	.L559
	.loc 1 743 0
	cmpl	$5, %edx
	jle	.L560
	.loc 1 745 0
	cmpl	$6, %edx
	je	.L600
	movl	$192, %ecx
	jmp	.L487
.LVL438:
	.p2align 2,,3
.L565:
.LBE134:
.LBB135:
	.loc 1 812 0
	xorl	%edi, %edi
.LVL439:
.L505:
	.loc 1 813 0
	movl	28(%ebx), %eax
	movl	44(%eax), %ebp
	testl	%ebp, %ebp
	je	.L507
	.loc 1 813 0 is_stmt 0 discriminator 1
	cmpl	%edx, %ecx
	jb	.L601
.LVL440:
.L507:
	.loc 1 816 0 is_stmt 1
	testl	%edi, %edi
	je	.L508
	movl	4(%ebx), %eax
	movl	20(%ebx), %edx
.LBE135:
	.loc 1 824 0
	cmpl	$91, %eax
	jne	.L478
.LVL441:
	.p2align 2,,3
.L583:
	movl	28(%ebx), %eax
.L542:
	.loc 1 825 0
	movl	36(%eax), %ecx
	testl	%ecx, %ecx
	je	.L510
	movl	%edx, %ecx
	jmp	.L514
.LVL442:
	.p2align 2,,3
.L511:
.LBB136:
	.loc 1 841 0
	movl	32(%ebx), %edi
	movl	36(%eax), %eax
	movb	(%eax,%edi), %al
.LVL443:
	incl	%edi
	movl	%edi, 32(%ebx)
	.loc 1 842 0
	movl	8(%ebx), %edi
	movb	%al, (%edi,%edx)
	incl	%edx
	movl	%edx, 20(%ebx)
	.loc 1 843 0
	testb	%al, %al
	je	.L567
	movl	28(%ebx), %eax
.LVL444:
.L514:
	.loc 1 830 0
	cmpl	%edx, 12(%ebx)
	jne	.L511
	.loc 1 831 0
	movl	44(%eax), %eax
	testl	%eax, %eax
	je	.L512
	.loc 1 831 0 is_stmt 0 discriminator 1
	cmpl	%edx, %ecx
	jb	.L602
.LVL445:
.L512:
	.loc 1 834 0 is_stmt 1
	movl	%esi, %eax
	call	flush_pending
	.loc 1 835 0
	movl	20(%ebx), %ecx
.LVL446:
	.loc 1 836 0
	cmpl	12(%ebx), %ecx
	je	.L566
	movl	28(%ebx), %eax
	movl	%ecx, %edx
	jmp	.L511
.LVL447:
	.p2align 2,,3
.L596:
.LBE136:
.LBB137:
	.loc 1 772 0
	subl	%ebp, %edx
	movl	%edx, 8(%esp)
	addl	8(%ebx), %ebp
.LVL448:
	movl	%ebp, 4(%esp)
	movl	48(%esi), %eax
	movl	%eax, (%esp)
	call	crc32
	movl	%eax, 48(%esi)
	jmp	.L494
.LVL449:
	.p2align 2,,3
.L578:
.LBE137:
	.loc 1 679 0
	movl	4(%esi), %ecx
	testl	%ecx, %ecx
	je	.L471
	jmp	.L470
.LVL450:
	.p2align 2,,3
.L584:
	.loc 1 853 0
	movl	28(%ebx), %eax
.L543:
	.loc 1 854 0
	movl	44(%eax), %eax
	testl	%eax, %eax
	je	.L519
	.loc 1 855 0
	leal	2(%edx), %eax
	cmpl	12(%ebx), %eax
	ja	.L603
.L520:
	.loc 1 858 0
	movl	8(%ebx), %ebp
	movl	48(%esi), %edi
	movl	%edi, %ecx
	movb	%cl, 0(%ebp,%edx)
	.loc 1 859 0
	movl	8(%ebx), %ebp
	movl	48(%esi), %edi
	shrl	$8, %edi
	movl	%edi, %ecx
	movb	%cl, 1(%ebp,%edx)
	movl	%eax, 20(%ebx)
	.loc 1 860 0
	movl	$0, 8(%esp)
	movl	$0, 4(%esp)
	movl	$0, (%esp)
	call	crc32
	movl	%eax, 48(%esi)
	.loc 1 861 0
	movl	$113, 4(%ebx)
	movl	20(%ebx), %edx
	jmp	.L518
	.p2align 2,,3
.L519:
	.loc 1 865 0
	movl	$113, 4(%ebx)
	jmp	.L518
.LVL451:
	.p2align 2,,3
.L567:
.LBB138:
	.loc 1 843 0
	xorl	%edi, %edi
.LVL452:
.L513:
	.loc 1 844 0
	movl	28(%ebx), %eax
	movl	44(%eax), %eax
	testl	%eax, %eax
	je	.L515
	.loc 1 844 0 is_stmt 0 discriminator 1
	cmpl	%edx, %ecx
	jb	.L604
.LVL453:
.L515:
	.loc 1 847 0 is_stmt 1
	testl	%edi, %edi
	je	.L516
	movl	4(%ebx), %eax
	movl	20(%ebx), %edx
	jmp	.L478
.LVL454:
	.p2align 2,,3
.L508:
.LBE138:
.LBB139:
	.loc 1 817 0
	movl	$0, 32(%ebx)
	.loc 1 818 0
	movl	$91, 4(%ebx)
	movl	28(%ebx), %eax
	movl	20(%ebx), %edx
	jmp	.L542
.LVL455:
	.p2align 2,,3
.L516:
.LBE139:
.LBB140:
	.loc 1 848 0
	movl	$103, 4(%ebx)
	movl	28(%ebx), %eax
	movl	20(%ebx), %edx
	jmp	.L543
.LVL456:
	.p2align 2,,3
.L588:
.LBE140:
.LBB141:
	.loc 1 903 0 discriminator 1
	movl	68(%esp), %edx
	movl	%ebx, %eax
	call	deflate_huff
	jmp	.L531
.LVL457:
	.p2align 2,,3
.L547:
.LBE141:
	.loc 1 674 0
	movl	$-2, %eax
	jmp	.L469
.LVL458:
	.p2align 2,,3
.L602:
.LBB142:
	.loc 1 832 0
	subl	%ecx, %edx
	movl	%edx, 8(%esp)
	addl	8(%ebx), %ecx
.LVL459:
	movl	%ecx, 4(%esp)
	movl	48(%esi), %eax
	movl	%eax, (%esp)
	call	crc32
	movl	%eax, 48(%esi)
	jmp	.L512
.LVL460:
	.p2align 2,,3
.L599:
.LBE142:
.LBB143:
	.loc 1 801 0
	subl	%ecx, %edx
	movl	%edx, 8(%esp)
	addl	8(%ebx), %ecx
.LVL461:
	movl	%ecx, 4(%esp)
	movl	48(%esi), %eax
	movl	%eax, (%esp)
	call	crc32
	movl	%eax, 48(%esi)
	jmp	.L504
.LVL462:
.L595:
.LBE143:
.LBB144:
	.loc 1 783 0
	subl	%ebp, %edx
	movl	%edx, 8(%esp)
	addl	8(%ebx), %ebp
.LVL463:
	movl	%ebp, 4(%esp)
	movl	48(%esi), %eax
	movl	%eax, (%esp)
	call	crc32
	movl	%eax, 48(%esi)
	movl	28(%ebx), %eax
	jmp	.L497
.LVL464:
	.p2align 2,,3
.L597:
	.loc 1 776 0
	movl	28(%ebx), %eax
	.loc 1 775 0
	movl	%ebp, %edx
	jmp	.L492
.LVL465:
	.p2align 2,,3
.L510:
.LBE144:
	.loc 1 851 0
	movl	$103, 4(%ebx)
	jmp	.L543
	.p2align 2,,3
.L491:
	.loc 1 791 0
	movl	$73, 4(%ebx)
	movl	%edi, %eax
	jmp	.L541
	.p2align 2,,3
.L502:
	.loc 1 822 0
	movl	$91, 4(%ebx)
	jmp	.L542
	.p2align 2,,3
.L603:
	.loc 1 856 0
	movl	%esi, %eax
	call	flush_pending
	.loc 1 857 0
	movl	20(%ebx), %edx
	leal	2(%edx), %eax
	cmpl	12(%ebx), %eax
	ja	.L518
	jmp	.L520
	.p2align 2,,3
.L593:
	.loc 1 693 0
	movl	$0, 8(%esp)
	movl	$0, 4(%esp)
	movl	$0, (%esp)
	call	crc32
	movl	%eax, 48(%esi)
	.loc 1 694 0
	movl	20(%ebx), %eax
	movl	8(%ebx), %edx
	movb	$31, (%edx,%eax)
	.loc 1 695 0
	movl	8(%ebx), %edx
	movb	$-117, 1(%edx,%eax)
	.loc 1 696 0
	movl	8(%ebx), %edx
	movb	$8, 2(%edx,%eax)
	leal	3(%eax), %edi
	movl	%edi, 20(%ebx)
	.loc 1 697 0
	movl	28(%ebx), %edx
	testl	%edx, %edx
	je	.L605
	.loc 1 710 0
	addl	8(%ebx), %edi
	movl	(%edx), %ebp
	testl	%ebp, %ebp
	setne	%cl
	movl	%ecx, %ebp
	cmpl	$1, 44(%edx)
	sbbl	%ecx, %ecx
	notl	%ecx
	andl	$2, %ecx
	addl	%ecx, %ebp
	cmpl	$1, 16(%edx)
	sbbl	%ecx, %ecx
	notl	%ecx
	andl	$4, %ecx
	addl	%ecx, %ebp
	cmpl	$1, 28(%edx)
	sbbl	%ecx, %ecx
	notl	%ecx
	andl	$8, %ecx
	addl	%ebp, %ecx
	cmpl	$1, 36(%edx)
	sbbl	%edx, %edx
	notl	%edx
	andl	$16, %edx
	addl	%ecx, %edx
	movb	%dl, (%edi)
	.loc 1 716 0
	movl	8(%ebx), %edx
	movl	28(%ebx), %ecx
	movl	4(%ecx), %ecx
	movb	%cl, 4(%edx,%eax)
	.loc 1 717 0
	movl	8(%ebx), %ecx
	movl	28(%ebx), %edx
	movl	4(%edx), %edx
	shrl	$8, %edx
	movb	%dl, 5(%ecx,%eax)
	.loc 1 718 0
	movl	8(%ebx), %edx
	movl	28(%ebx), %ecx
	movzwl	6(%ecx), %ecx
	movb	%cl, 6(%edx,%eax)
	.loc 1 719 0
	movl	8(%ebx), %edx
	movl	28(%ebx), %ecx
	movzbl	7(%ecx), %ecx
	movb	%cl, 7(%edx,%eax)
	leal	8(%eax), %edx
	movl	%edx, 20(%ebx)
	.loc 1 720 0
	addl	8(%ebx), %edx
	movl	132(%ebx), %ecx
	cmpl	$9, %ecx
	je	.L555
	.loc 1 720 0 is_stmt 0 discriminator 1
	cmpl	$1, 136(%ebx)
	jle	.L606
	.loc 1 720 0
	movb	$4, %cl
.L483:
	.loc 1 720 0 discriminator 6
	movb	%cl, (%edx)
	.loc 1 723 0 is_stmt 1 discriminator 6
	movl	8(%ebx), %edx
	movl	28(%ebx), %ecx
	movl	12(%ecx), %ecx
	movb	%cl, 9(%edx,%eax)
	leal	10(%eax), %edx
	movl	%edx, 20(%ebx)
	.loc 1 724 0 discriminator 6
	movl	28(%ebx), %edi
	movl	16(%edi), %ecx
	testl	%ecx, %ecx
	je	.L484
	.loc 1 725 0
	movl	8(%ebx), %ebp
	movl	20(%edi), %ecx
	movb	%cl, 0(%ebp,%edx)
	.loc 1 726 0
	movl	8(%ebx), %ecx
	movl	28(%ebx), %edx
	movl	20(%edx), %edx
	shrl	$8, %edx
	movb	%dl, 11(%ecx,%eax)
	leal	12(%eax), %edx
	movl	%edx, 20(%ebx)
	movl	28(%ebx), %edi
.L484:
	.loc 1 728 0
	movl	44(%edi), %ebp
	testl	%ebp, %ebp
	jne	.L607
.L485:
	.loc 1 731 0
	movl	$0, 32(%ebx)
	.loc 1 732 0
	movl	$69, 4(%ebx)
	jmp	.L486
.LVL466:
.L601:
.LBB145:
	.loc 1 814 0
	subl	%ecx, %edx
	movl	%edx, 8(%esp)
	addl	8(%ebx), %ecx
.LVL467:
	movl	%ecx, 4(%esp)
	movl	48(%esi), %eax
	movl	%eax, (%esp)
	call	crc32
	movl	%eax, 48(%esi)
	jmp	.L507
.LVL468:
.L604:
.LBE145:
.LBB146:
	.loc 1 845 0
	subl	%ecx, %edx
	movl	%edx, 8(%esp)
	addl	8(%ebx), %ecx
.LVL469:
	movl	%ecx, 4(%esp)
	movl	48(%esi), %eax
	movl	%eax, (%esp)
	call	crc32
	movl	%eax, 48(%esi)
	jmp	.L515
.LVL470:
.L592:
.LBE146:
	.loc 1 955 0
	movl	20(%ebx), %eax
	movl	8(%ebx), %edx
	movl	48(%esi), %ecx
	movb	%cl, (%edx,%eax)
	.loc 1 956 0
	movl	8(%ebx), %ecx
	movl	48(%esi), %edx
	shrl	$8, %edx
	movb	%dl, 1(%ecx,%eax)
	.loc 1 957 0
	movl	8(%ebx), %edx
	movzwl	50(%esi), %ecx
	movb	%cl, 2(%edx,%eax)
	.loc 1 958 0
	movl	8(%ebx), %edx
	movzbl	51(%esi), %ecx
	movb	%cl, 3(%edx,%eax)
	.loc 1 959 0
	movl	8(%ebx), %edx
	movl	8(%esi), %ecx
	movb	%cl, 4(%edx,%eax)
	.loc 1 960 0
	movl	8(%ebx), %ecx
	movl	8(%esi), %edx
	shrl	$8, %edx
	movb	%dl, 5(%ecx,%eax)
	.loc 1 961 0
	movl	8(%ebx), %edx
	movzwl	10(%esi), %ecx
	movb	%cl, 6(%edx,%eax)
	.loc 1 962 0
	movl	8(%ebx), %edx
	movzbl	11(%esi), %ecx
	movb	%cl, 7(%edx,%eax)
	addl	$8, %eax
	movl	%eax, 20(%ebx)
	jmp	.L539
.L573:
	.loc 1 950 0
	movl	$1, %eax
	jmp	.L469
.LVL471:
.L560:
.LBB147:
	.loc 1 743 0
	movl	$64, %ecx
	jmp	.L487
.LVL472:
.L566:
.LBE147:
.LBB148:
	.loc 1 835 0
	movl	%ecx, %edx
	.loc 1 837 0
	movl	$1, %edi
	jmp	.L513
.LVL473:
.L564:
.LBE148:
.LBB149:
	.loc 1 804 0
	movl	%ecx, %edx
	.loc 1 806 0
	movl	$1, %edi
	jmp	.L505
.LVL474:
.L591:
.LBE149:
.LBB150:
	.loc 1 925 0
	movl	%ebx, (%esp)
	call	_tr_align
	jmp	.L537
.L607:
.LBE150:
	.loc 1 729 0
	movl	%edx, 8(%esp)
	movl	8(%ebx), %eax
	movl	%eax, 4(%esp)
	movl	48(%esi), %eax
	movl	%eax, (%esp)
	call	crc32
	movl	%eax, 48(%esi)
	movl	28(%ebx), %edi
	movl	20(%ebx), %edx
	jmp	.L485
.L555:
	.loc 1 720 0
	movb	$2, %cl
	jmp	.L483
.LVL475:
.L600:
.LBB151:
	.loc 1 745 0
	movl	$128, %ecx
	jmp	.L487
.LVL476:
.L606:
.LBE151:
	.loc 1 720 0 discriminator 4
	decl	%ecx
	setle	%cl
	sall	$2, %ecx
	jmp	.L483
.L605:
	.loc 1 698 0
	movl	8(%ebx), %edx
	movb	$0, (%edx,%edi)
	.loc 1 699 0
	movl	8(%ebx), %edx
	movb	$0, 4(%edx,%eax)
	.loc 1 700 0
	movl	8(%ebx), %edx
	movb	$0, 5(%edx,%eax)
	.loc 1 701 0
	movl	8(%ebx), %edx
	movb	$0, 6(%edx,%eax)
	.loc 1 702 0
	movl	8(%ebx), %edx
	movb	$0, 7(%edx,%eax)
	leal	8(%eax), %ecx
	movl	%ecx, 20(%ebx)
	.loc 1 703 0
	addl	8(%ebx), %ecx
	movl	132(%ebx), %edx
	cmpl	$9, %edx
	je	.L548
	.loc 1 703 0 is_stmt 0 discriminator 1
	cmpl	$1, 136(%ebx)
	jle	.L608
	.loc 1 703 0
	movb	$4, %dl
.L477:
	.loc 1 703 0 discriminator 6
	movb	%dl, (%ecx)
	.loc 1 706 0 is_stmt 1 discriminator 6
	movl	8(%ebx), %edx
	movb	$3, 9(%edx,%eax)
	leal	10(%eax), %edx
	movl	%edx, 20(%ebx)
	.loc 1 707 0 discriminator 6
	movl	$113, 4(%ebx)
	jmp	.L518
.L548:
	.loc 1 703 0
	movb	$2, %dl
	jmp	.L477
.L608:
	.loc 1 703 0 is_stmt 0 discriminator 4
	decl	%edx
	setle	%dl
	sall	$2, %edx
	jmp	.L477
	.cfi_endproc
.LFE38:
	.size	deflate, .-deflate
	.p2align 2,,3
	.globl	deflateEnd
	.type	deflateEnd, @function
deflateEnd:
.LFB39:
	.loc 1 981 0 is_stmt 1
	.cfi_startproc
.LVL477:
	pushl	%esi
.LCFI268:
	.cfi_def_cfa_offset 8
	.cfi_offset 6, -8
	pushl	%ebx
.LCFI269:
	.cfi_def_cfa_offset 12
	.cfi_offset 3, -12
	subl	$20, %esp
.LCFI270:
	.cfi_def_cfa_offset 32
	movl	32(%esp), %ebx
	.loc 1 984 0
	testl	%ebx, %ebx
	je	.L619
	.loc 1 984 0 is_stmt 0 discriminator 2
	movl	28(%ebx), %eax
	testl	%eax, %eax
	je	.L619
	.loc 1 986 0 is_stmt 1
	movl	4(%eax), %esi
.LVL478:
	.loc 1 987 0
	cmpl	$42, %esi
	je	.L612
	.loc 1 987 0 is_stmt 0 discriminator 1
	cmpl	$69, %esi
	je	.L612
	.loc 1 988 0 is_stmt 1
	cmpl	$73, %esi
	je	.L612
	.loc 1 989 0
	cmpl	$91, %esi
	je	.L612
	.loc 1 990 0
	cmpl	$103, %esi
	je	.L612
	.loc 1 991 0
	cmpl	$113, %esi
	je	.L612
	.loc 1 992 0
	cmpl	$666, %esi
	jne	.L619
	.p2align 2,,3
.L612:
	.loc 1 998 0
	movl	8(%eax), %edx
	testl	%edx, %edx
	je	.L613
	.loc 1 998 0 is_stmt 0 discriminator 1
	movl	%edx, 4(%esp)
	movl	40(%ebx), %eax
	movl	%eax, (%esp)
	call	*36(%ebx)
.LVL479:
	movl	28(%ebx), %eax
.L613:
	.loc 1 999 0 is_stmt 1
	movl	68(%eax), %edx
	testl	%edx, %edx
	je	.L614
	.loc 1 999 0 is_stmt 0 discriminator 1
	movl	%edx, 4(%esp)
	movl	40(%ebx), %eax
	movl	%eax, (%esp)
	call	*36(%ebx)
	movl	28(%ebx), %eax
.L614:
	.loc 1 1000 0 is_stmt 1
	movl	64(%eax), %edx
	testl	%edx, %edx
	je	.L615
	.loc 1 1000 0 is_stmt 0 discriminator 1
	movl	%edx, 4(%esp)
	movl	40(%ebx), %eax
	movl	%eax, (%esp)
	call	*36(%ebx)
	movl	28(%ebx), %eax
.L615:
	.loc 1 1001 0 is_stmt 1
	movl	56(%eax), %edx
	testl	%edx, %edx
	je	.L616
	.loc 1 1001 0 is_stmt 0 discriminator 1
	movl	%edx, 4(%esp)
	movl	40(%ebx), %eax
	movl	%eax, (%esp)
	call	*36(%ebx)
	movl	28(%ebx), %eax
.L616:
	.loc 1 1003 0 is_stmt 1
	movl	%eax, 4(%esp)
	movl	40(%ebx), %eax
	movl	%eax, (%esp)
	call	*36(%ebx)
	.loc 1 1004 0
	movl	$0, 28(%ebx)
	.loc 1 1006 0
	xorl	%eax, %eax
	cmpl	$113, %esi
	setne	%al
	leal	-3(%eax,%eax,2), %eax
.LVL480:
.L611:
	.loc 1 1007 0
	addl	$20, %esp
	.cfi_remember_state
.LCFI271:
	.cfi_def_cfa_offset 12
	popl	%ebx
.LCFI272:
	.cfi_def_cfa_offset 8
	.cfi_restore 3
	popl	%esi
.LCFI273:
	.cfi_def_cfa_offset 4
	.cfi_restore 6
	ret
	.p2align 2,,3
.L619:
.LCFI274:
	.cfi_restore_state
	.loc 1 994 0
	movl	$-2, %eax
	jmp	.L611
	.cfi_endproc
.LFE39:
	.size	deflateEnd, .-deflateEnd
	.p2align 2,,3
	.globl	deflateInit2_
	.type	deflateInit2_, @function
deflateInit2_:
.LFB26:
	.loc 1 223 0
	.cfi_startproc
.LVL481:
	pushl	%ebp
.LCFI275:
	.cfi_def_cfa_offset 8
	.cfi_offset 5, -8
	pushl	%edi
.LCFI276:
	.cfi_def_cfa_offset 12
	.cfi_offset 7, -12
	pushl	%esi
.LCFI277:
	.cfi_def_cfa_offset 16
	.cfi_offset 6, -16
	pushl	%ebx
.LCFI278:
	.cfi_def_cfa_offset 20
	.cfi_offset 3, -20
	subl	$44, %esp
.LCFI279:
	.cfi_def_cfa_offset 64
	movl	64(%esp), %esi
	movl	76(%esp), %ebp
	movl	80(%esp), %edi
	movl	88(%esp), %eax
.LVL482:
	.loc 1 233 0
	testl	%eax, %eax
	je	.L633
	.loc 1 233 0 is_stmt 0 discriminator 1
	cmpb	$49, (%eax)
	jne	.L633
	cmpl	$56, 92(%esp)
	jne	.L633
	.loc 1 237 0 is_stmt 1
	testl	%esi, %esi
	je	.L644
	.loc 1 239 0
	movl	$0, 24(%esi)
	.loc 1 240 0
	movl	32(%esi), %eax
	testl	%eax, %eax
	je	.L647
	.loc 1 248 0
	movl	36(%esi), %eax
	testl	%eax, %eax
	je	.L648
.L624:
	.loc 1 258 0
	cmpl	$-1, 68(%esp)
	je	.L649
	.loc 1 261 0
	testl	%ebp, %ebp
	js	.L650
.L626:
	.loc 1 266 0
	cmpl	$15, %ebp
	jg	.L651
	.loc 1 225 0
	movl	$1, %edx
.LVL483:
.L627:
	.loc 1 271 0
	leal	-1(%edi), %eax
	cmpl	$8, %eax
	ja	.L644
	.loc 1 271 0 is_stmt 0 discriminator 1
	cmpl	$8, 72(%esp)
	jne	.L644
	cmpl	$7, %ebp
	jle	.L644
	.loc 1 272 0 is_stmt 1
	cmpl	$15, %ebp
	jg	.L644
	.loc 1 272 0 is_stmt 0 discriminator 1
	movl	68(%esp), %eax
	testl	%eax, %eax
	js	.L644
	cmpl	$9, 68(%esp)
	jg	.L644
	movl	84(%esp), %eax
	testl	%eax, %eax
	js	.L644
	.loc 1 273 0 is_stmt 1
	cmpl	$4, 84(%esp)
	jg	.L644
	.loc 1 276 0
	cmpl	$8, %ebp
	je	.L652
.LVL484:
.L628:
	.loc 1 277 0
	movl	$5828, 8(%esp)
	movl	$1, 4(%esp)
	movl	40(%esi), %eax
	movl	%eax, (%esp)
	movl	%edx, 28(%esp)
	call	*32(%esi)
.LVL485:
	movl	%eax, %ebx
.LVL486:
	.loc 1 278 0
	testl	%eax, %eax
	movl	28(%esp), %edx
	je	.L646
	.loc 1 279 0
	movl	%eax, 28(%esi)
	.loc 1 280 0
	movl	%esi, (%eax)
	.loc 1 282 0
	movl	%edx, 24(%eax)
	.loc 1 283 0
	movl	$0, 28(%eax)
	.loc 1 284 0
	movl	%ebp, 48(%eax)
	.loc 1 285 0
	movl	$1, %eax
.LVL487:
	movl	%ebp, %ecx
	sall	%cl, %eax
	movl	%eax, %ebp
.LVL488:
	movl	%eax, 44(%ebx)
	.loc 1 286 0
	leal	-1(%eax), %eax
	movl	%eax, 52(%ebx)
	.loc 1 288 0
	leal	7(%edi), %ecx
	movl	%ecx, 80(%ebx)
	.loc 1 289 0
	movl	$1, %eax
	sall	%cl, %eax
	movl	%eax, %ecx
	movl	%eax, 76(%ebx)
	.loc 1 290 0
	decl	%ecx
	movl	%ecx, 84(%ebx)
	.loc 1 291 0
	leal	9(%edi), %eax
	movl	$-1431655765, %edx
	mull	%edx
	shrl	%edx
	movl	%edx, 88(%ebx)
	.loc 1 293 0
	movl	$2, 8(%esp)
	movl	%ebp, 4(%esp)
	movl	40(%esi), %eax
	movl	%eax, (%esp)
	call	*32(%esi)
.LVL489:
	movl	%eax, 56(%ebx)
	.loc 1 294 0
	movl	$2, 8(%esp)
	movl	44(%ebx), %eax
	movl	%eax, 4(%esp)
	movl	40(%esi), %eax
	movl	%eax, (%esp)
	call	*32(%esi)
	movl	%eax, 64(%ebx)
	.loc 1 295 0
	movl	$2, 8(%esp)
	movl	76(%ebx), %eax
	movl	%eax, 4(%esp)
	movl	40(%esi), %eax
	movl	%eax, (%esp)
	call	*32(%esi)
	movl	%eax, 68(%ebx)
	.loc 1 297 0
	movl	$0, 5824(%ebx)
	.loc 1 299 0
	leal	6(%edi), %ecx
	movl	$1, %edi
	sall	%cl, %edi
	movl	%edi, 5788(%ebx)
	.loc 1 301 0
	movl	$4, 8(%esp)
	movl	%edi, 4(%esp)
	movl	40(%esi), %eax
	movl	%eax, (%esp)
	call	*32(%esi)
.LVL490:
	.loc 1 302 0
	movl	%eax, 8(%ebx)
	.loc 1 303 0
	movl	5788(%ebx), %edx
	leal	0(,%edx,4), %ecx
	movl	%ecx, 12(%ebx)
	.loc 1 305 0
	movl	56(%ebx), %ebp
	testl	%ebp, %ebp
	je	.L629
	.loc 1 305 0 is_stmt 0 discriminator 1
	movl	64(%ebx), %edi
	testl	%edi, %edi
	je	.L629
	movl	68(%ebx), %ecx
	testl	%ecx, %ecx
	je	.L629
	testl	%eax, %eax
	je	.L629
	.loc 1 312 0 is_stmt 1
	movl	%edx, %ecx
	andl	$-2, %ecx
	addl	%eax, %ecx
	movl	%ecx, 5796(%ebx)
	.loc 1 313 0
	leal	(%edx,%edx,2), %edx
	addl	%edx, %eax
.LVL491:
	movl	%eax, 5784(%ebx)
	.loc 1 315 0
	movl	68(%esp), %ecx
	movl	%ecx, 132(%ebx)
	.loc 1 316 0
	movl	84(%esp), %eax
	movl	%eax, 136(%ebx)
	.loc 1 317 0
	movb	$8, 36(%ebx)
.LVL492:
.LBB154:
.LBB155:
	.loc 1 432 0
	movl	%esi, (%esp)
	call	deflateResetKeep
.LVL493:
	movl	%eax, %ebx
.LVL494:
	.loc 1 433 0
	testl	%eax, %eax
	jne	.L622
	.loc 1 434 0
	movl	28(%esi), %eax
.LVL495:
	call	lm_init
.LVL496:
.L622:
.LBE155:
.LBE154:
	.loc 1 320 0
	movl	%ebx, %eax
	addl	$44, %esp
	.cfi_remember_state
.LCFI280:
	.cfi_def_cfa_offset 20
	popl	%ebx
.LCFI281:
	.cfi_def_cfa_offset 16
	.cfi_restore 3
	popl	%esi
.LCFI282:
	.cfi_def_cfa_offset 12
	.cfi_restore 6
	popl	%edi
.LCFI283:
	.cfi_def_cfa_offset 8
	.cfi_restore 7
	popl	%ebp
.LCFI284:
	.cfi_def_cfa_offset 4
	.cfi_restore 5
	ret
.LVL497:
	.p2align 2,,3
.L651:
.LCFI285:
	.cfi_restore_state
	.loc 1 268 0
	subl	$16, %ebp
.LVL498:
	.loc 1 267 0
	movl	$2, %edx
	jmp	.L627
.LVL499:
	.p2align 2,,3
.L644:
	.loc 1 274 0
	movl	$-2, %ebx
	.loc 1 320 0
	movl	%ebx, %eax
	addl	$44, %esp
	.cfi_remember_state
.LCFI286:
	.cfi_def_cfa_offset 20
	popl	%ebx
	.cfi_restore 3
.LCFI287:
	.cfi_def_cfa_offset 16
	popl	%esi
	.cfi_restore 6
.LCFI288:
	.cfi_def_cfa_offset 12
	popl	%edi
	.cfi_restore 7
.LCFI289:
	.cfi_def_cfa_offset 8
	popl	%ebp
	.cfi_restore 5
.LCFI290:
	.cfi_def_cfa_offset 4
	ret
.LVL500:
	.p2align 2,,3
.L649:
.LCFI291:
	.cfi_restore_state
	.loc 1 258 0
	movl	$6, 68(%esp)
	.loc 1 261 0
	testl	%ebp, %ebp
	jns	.L626
.L650:
.LVL501:
	.loc 1 263 0
	negl	%ebp
.LVL502:
	.loc 1 262 0
	xorl	%edx, %edx
	jmp	.L627
.LVL503:
	.p2align 2,,3
.L633:
	.loc 1 235 0
	movl	$-6, %ebx
	.loc 1 320 0
	movl	%ebx, %eax
	addl	$44, %esp
	.cfi_remember_state
.LCFI292:
	.cfi_def_cfa_offset 20
	popl	%ebx
	.cfi_restore 3
.LCFI293:
	.cfi_def_cfa_offset 16
	popl	%esi
	.cfi_restore 6
.LCFI294:
	.cfi_def_cfa_offset 12
	popl	%edi
	.cfi_restore 7
.LCFI295:
	.cfi_def_cfa_offset 8
	popl	%ebp
	.cfi_restore 5
.LCFI296:
	.cfi_def_cfa_offset 4
	ret
.LVL504:
	.p2align 2,,3
.L652:
.LCFI297:
	.cfi_restore_state
	.loc 1 276 0
	movw	$9, %bp
.LVL505:
	jmp	.L628
.LVL506:
	.p2align 2,,3
.L647:
	.loc 1 244 0
	movl	$zcalloc, 32(%esi)
	.loc 1 245 0
	movl	$0, 40(%esi)
	.loc 1 248 0
	movl	36(%esi), %eax
	testl	%eax, %eax
	jne	.L624
	.p2align 2,,3
.L648:
	.loc 1 252 0
	movl	$zcfree, 36(%esi)
	jmp	.L624
.LVL507:
	.p2align 2,,3
.L629:
	.loc 1 307 0
	movl	$666, 4(%ebx)
	.loc 1 308 0
	movl	z_errmsg+24, %eax
.LVL508:
	movl	%eax, 24(%esi)
	.loc 1 309 0
	movl	%esi, (%esp)
	call	deflateEnd
.LVL509:
	.loc 1 310 0
	movl	$-4, %ebx
.LVL510:
	jmp	.L622
.LVL511:
	.p2align 2,,3
.L646:
	.loc 1 278 0
	movl	$-4, %ebx
	jmp	.L622
	.cfi_endproc
.LFE26:
	.size	deflateInit2_, .-deflateInit2_
	.p2align 2,,3
	.globl	deflateInit_
	.type	deflateInit_, @function
deflateInit_:
.LFB25:
	.loc 1 206 0
	.cfi_startproc
.LVL512:
	pushl	%edi
.LCFI298:
	.cfi_def_cfa_offset 8
	.cfi_offset 7, -8
	pushl	%esi
.LCFI299:
	.cfi_def_cfa_offset 12
	.cfi_offset 6, -12
	pushl	%ebx
.LCFI300:
	.cfi_def_cfa_offset 16
	.cfi_offset 3, -16
	subl	$16, %esp
.LCFI301:
	.cfi_def_cfa_offset 32
	movl	32(%esp), %esi
	movl	36(%esp), %edi
	movl	40(%esp), %eax
.LVL513:
.LBB160:
.LBB161:
	.loc 1 233 0
	testl	%eax, %eax
	je	.L662
	cmpb	$49, (%eax)
	jne	.L662
	cmpl	$56, 44(%esp)
	jne	.L662
	.loc 1 237 0
	testl	%esi, %esi
	je	.L666
	.loc 1 239 0
	movl	$0, 24(%esi)
	.loc 1 240 0
	movl	32(%esi), %eax
	testl	%eax, %eax
	je	.L668
	.loc 1 248 0
	movl	36(%esi), %ebx
	testl	%ebx, %ebx
	je	.L669
.L656:
	.loc 1 258 0
	cmpl	$-1, %edi
	je	.L664
	.loc 1 272 0
	testl	%edi, %edi
	js	.L666
	cmpl	$9, %edi
	jg	.L666
.L657:
	.loc 1 277 0
	movl	$5828, 8(%esp)
	movl	$1, 4(%esp)
	movl	40(%esi), %eax
	movl	%eax, (%esp)
	call	*32(%esi)
	movl	%eax, %ebx
.LVL514:
	.loc 1 278 0
	testl	%eax, %eax
	je	.L667
	.loc 1 279 0
	movl	%eax, 28(%esi)
	.loc 1 280 0
	movl	%esi, (%eax)
	.loc 1 282 0
	movl	$1, 24(%eax)
	.loc 1 283 0
	movl	$0, 28(%eax)
	.loc 1 284 0
	movl	$15, 48(%eax)
	.loc 1 285 0
	movl	$32768, 44(%eax)
	.loc 1 286 0
	movl	$32767, 52(%eax)
	.loc 1 288 0
	movl	$15, 80(%eax)
	.loc 1 289 0
	movl	$32768, 76(%eax)
	.loc 1 290 0
	movl	$32767, 84(%eax)
	.loc 1 291 0
	movl	$5, 88(%eax)
	.loc 1 293 0
	movl	$2, 8(%esp)
	movl	$32768, 4(%esp)
	movl	40(%esi), %eax
.LVL515:
	movl	%eax, (%esp)
	call	*32(%esi)
	movl	%eax, 56(%ebx)
	.loc 1 294 0
	movl	$2, 8(%esp)
	movl	44(%ebx), %eax
	movl	%eax, 4(%esp)
	movl	40(%esi), %eax
	movl	%eax, (%esp)
	call	*32(%esi)
	movl	%eax, 64(%ebx)
	.loc 1 295 0
	movl	$2, 8(%esp)
	movl	76(%ebx), %eax
	movl	%eax, 4(%esp)
	movl	40(%esi), %eax
	movl	%eax, (%esp)
	call	*32(%esi)
	movl	%eax, 68(%ebx)
	.loc 1 297 0
	movl	$0, 5824(%ebx)
	.loc 1 299 0
	movl	$16384, 5788(%ebx)
	.loc 1 301 0
	movl	$4, 8(%esp)
	movl	$16384, 4(%esp)
	movl	40(%esi), %eax
	movl	%eax, (%esp)
	call	*32(%esi)
.LVL516:
	.loc 1 302 0
	movl	%eax, 8(%ebx)
	.loc 1 303 0
	movl	5788(%ebx), %edx
	leal	0(,%edx,4), %ecx
	movl	%ecx, 12(%ebx)
	.loc 1 305 0
	movl	56(%ebx), %ecx
	testl	%ecx, %ecx
	je	.L658
	movl	64(%ebx), %ecx
	testl	%ecx, %ecx
	je	.L658
	movl	68(%ebx), %ecx
	testl	%ecx, %ecx
	je	.L658
	testl	%eax, %eax
	je	.L658
	.loc 1 312 0
	movl	%edx, %ecx
	andl	$-2, %ecx
	addl	%eax, %ecx
	movl	%ecx, 5796(%ebx)
	.loc 1 313 0
	leal	(%edx,%edx,2), %edx
	addl	%edx, %eax
.LVL517:
	movl	%eax, 5784(%ebx)
	.loc 1 315 0
	movl	%edi, 132(%ebx)
	.loc 1 316 0
	movl	$0, 136(%ebx)
	.loc 1 317 0
	movb	$8, 36(%ebx)
.LVL518:
.LBB162:
.LBB163:
	.loc 1 432 0
	movl	%esi, (%esp)
	call	deflateResetKeep
.LVL519:
	movl	%eax, %ebx
.LVL520:
	.loc 1 433 0
	testl	%eax, %eax
	je	.L670
.LVL521:
.L654:
.LBE163:
.LBE162:
.LBE161:
.LBE160:
	.loc 1 210 0
	movl	%ebx, %eax
	addl	$16, %esp
	.cfi_remember_state
.LCFI302:
	.cfi_def_cfa_offset 16
	popl	%ebx
.LCFI303:
	.cfi_def_cfa_offset 12
	.cfi_restore 3
	popl	%esi
.LCFI304:
	.cfi_def_cfa_offset 8
	.cfi_restore 6
	popl	%edi
.LCFI305:
	.cfi_def_cfa_offset 4
	.cfi_restore 7
	ret
.LVL522:
	.p2align 2,,3
.L670:
.LCFI306:
	.cfi_restore_state
.LBB169:
.LBB166:
.LBB165:
.LBB164:
	.loc 1 434 0
	movl	28(%esi), %eax
.LVL523:
	call	lm_init
.LBE164:
.LBE165:
.LBE166:
.LBE169:
	.loc 1 210 0
	movl	%ebx, %eax
	addl	$16, %esp
	.cfi_remember_state
.LCFI307:
	.cfi_def_cfa_offset 16
	popl	%ebx
	.cfi_restore 3
.LCFI308:
	.cfi_def_cfa_offset 12
.LVL524:
	popl	%esi
	.cfi_restore 6
.LCFI309:
	.cfi_def_cfa_offset 8
	popl	%edi
	.cfi_restore 7
.LCFI310:
	.cfi_def_cfa_offset 4
	ret
.LVL525:
	.p2align 2,,3
.L664:
.LCFI311:
	.cfi_restore_state
.LBB170:
.LBB167:
	.loc 1 258 0
	movl	$6, %edi
	jmp	.L657
	.p2align 2,,3
.L662:
	.loc 1 235 0
	movl	$-6, %ebx
.LBE167:
.LBE170:
	.loc 1 210 0
	movl	%ebx, %eax
	addl	$16, %esp
	.cfi_remember_state
.LCFI312:
	.cfi_def_cfa_offset 16
	popl	%ebx
	.cfi_restore 3
.LCFI313:
	.cfi_def_cfa_offset 12
	popl	%esi
	.cfi_restore 6
.LCFI314:
	.cfi_def_cfa_offset 8
	popl	%edi
	.cfi_restore 7
.LCFI315:
	.cfi_def_cfa_offset 4
	ret
	.p2align 2,,3
.L668:
.LCFI316:
	.cfi_restore_state
.LBB171:
.LBB168:
	.loc 1 244 0
	movl	$zcalloc, 32(%esi)
	.loc 1 245 0
	movl	$0, 40(%esi)
	.loc 1 248 0
	movl	36(%esi), %ebx
	testl	%ebx, %ebx
	jne	.L656
	.p2align 2,,3
.L669:
	.loc 1 252 0
	movl	$zcfree, 36(%esi)
	jmp	.L656
	.p2align 2,,3
.L666:
	.loc 1 274 0
	movl	$-2, %ebx
	jmp	.L654
.LVL526:
	.p2align 2,,3
.L658:
	.loc 1 307 0
	movl	$666, 4(%ebx)
	.loc 1 308 0
	movl	z_errmsg+24, %eax
.LVL527:
	movl	%eax, 24(%esi)
	.loc 1 309 0
	movl	%esi, (%esp)
	call	deflateEnd
.LVL528:
	.loc 1 310 0
	movl	$-4, %ebx
.LVL529:
	jmp	.L654
.LVL530:
	.p2align 2,,3
.L667:
	.loc 1 278 0
	movl	$-4, %ebx
	jmp	.L654
.LBE168:
.LBE171:
	.cfi_endproc
.LFE25:
	.size	deflateInit_, .-deflateInit_
	.p2align 2,,3
	.globl	deflateCopy
	.type	deflateCopy, @function
deflateCopy:
.LFB40:
	.loc 1 1017 0
	.cfi_startproc
.LVL531:
	pushl	%ebp
.LCFI317:
	.cfi_def_cfa_offset 8
	.cfi_offset 5, -8
	pushl	%edi
.LCFI318:
	.cfi_def_cfa_offset 12
	.cfi_offset 7, -12
	pushl	%esi
.LCFI319:
	.cfi_def_cfa_offset 16
	.cfi_offset 6, -16
	pushl	%ebx
.LCFI320:
	.cfi_def_cfa_offset 20
	.cfi_offset 3, -20
	subl	$44, %esp
.LCFI321:
	.cfi_def_cfa_offset 64
	movl	64(%esp), %ebp
	movl	68(%esp), %esi
	.loc 1 1026 0
	testl	%esi, %esi
	je	.L677
	.loc 1 1026 0 is_stmt 0 discriminator 1
	testl	%ebp, %ebp
	je	.L677
	movl	28(%esi), %edx
	testl	%edx, %edx
	je	.L677
.LVL532:
	.loc 1 1032 0 is_stmt 1
	movl	$14, %ecx
	movl	%ebp, %edi
	rep movsl
	.loc 1 1034 0
	movl	$5828, 8(%esp)
	movl	$1, 4(%esp)
	movl	40(%ebp), %eax
	movl	%eax, (%esp)
	movl	%edx, 24(%esp)
	call	*32(%ebp)
.LVL533:
	movl	%eax, %ebx
.LVL534:
	.loc 1 1035 0
	testl	%eax, %eax
	movl	24(%esp), %edx
	je	.L678
	.loc 1 1036 0
	movl	%eax, 28(%ebp)
	.loc 1 1037 0
	movl	$1457, %ecx
	movl	%eax, %edi
	movl	%edx, %esi
	rep movsl
	.loc 1 1038 0
	movl	%ebp, (%eax)
	.loc 1 1040 0
	movl	$2, 8(%esp)
	movl	44(%eax), %eax
.LVL535:
	movl	%eax, 4(%esp)
	movl	40(%ebp), %eax
	movl	%eax, (%esp)
	movl	%edx, 24(%esp)
	call	*32(%ebp)
	movl	%eax, 56(%ebx)
	.loc 1 1041 0
	movl	$2, 8(%esp)
	movl	44(%ebx), %eax
	movl	%eax, 4(%esp)
	movl	40(%ebp), %eax
	movl	%eax, (%esp)
	call	*32(%ebp)
	movl	%eax, 64(%ebx)
	.loc 1 1042 0
	movl	$2, 8(%esp)
	movl	76(%ebx), %eax
	movl	%eax, 4(%esp)
	movl	40(%ebp), %eax
	movl	%eax, (%esp)
	call	*32(%ebp)
	movl	%eax, 68(%ebx)
	.loc 1 1043 0
	movl	$4, 8(%esp)
	movl	5788(%ebx), %eax
	movl	%eax, 4(%esp)
	movl	40(%ebp), %eax
	movl	%eax, (%esp)
	call	*32(%ebp)
	movl	%eax, 28(%esp)
.LVL536:
	.loc 1 1044 0
	movl	%eax, 8(%ebx)
	.loc 1 1046 0
	movl	56(%ebx), %eax
.LVL537:
	testl	%eax, %eax
	movl	24(%esp), %edx
	je	.L673
	.loc 1 1046 0 is_stmt 0 discriminator 1
	movl	64(%ebx), %edi
	testl	%edi, %edi
	je	.L673
	movl	68(%ebx), %esi
	testl	%esi, %esi
	je	.L673
	movl	28(%esp), %ecx
	testl	%ecx, %ecx
	je	.L673
	.loc 1 1052 0 is_stmt 1
	movl	44(%ebx), %ecx
	sall	%ecx
	movl	56(%edx), %esi
	movl	%eax, %edi
	rep movsb
	.loc 1 1053 0
	movl	64(%ebx), %eax
	movl	44(%ebx), %ecx
	sall	%ecx
	movl	64(%edx), %esi
	movl	%eax, %edi
	rep movsb
	.loc 1 1054 0
	movl	68(%ebx), %eax
	movl	76(%ebx), %ecx
	sall	%ecx
	movl	68(%edx), %esi
	movl	%eax, %edi
	rep movsb
	.loc 1 1055 0
	movl	8(%ebx), %eax
	movl	8(%edx), %esi
	movl	12(%ebx), %ecx
	movl	%eax, %edi
	rep movsb
	.loc 1 1057 0
	movl	8(%ebx), %ecx
	movl	16(%edx), %eax
	addl	%ecx, %eax
	subl	8(%edx), %eax
	movl	%eax, 16(%ebx)
	.loc 1 1058 0
	movl	5788(%ebx), %eax
	movl	%eax, %edx
	andl	$-2, %edx
	addl	28(%esp), %edx
	movl	%edx, 5796(%ebx)
	.loc 1 1059 0
	leal	(%eax,%eax,2), %eax
	addl	%eax, %ecx
	movl	%ecx, 5784(%ebx)
	.loc 1 1061 0
	leal	148(%ebx), %eax
	movl	%eax, 2840(%ebx)
	.loc 1 1062 0
	leal	2440(%ebx), %eax
	movl	%eax, 2852(%ebx)
	.loc 1 1063 0
	leal	2684(%ebx), %eax
	movl	%eax, 2864(%ebx)
	.loc 1 1065 0
	xorl	%eax, %eax
.LVL538:
.L672:
	.loc 1 1067 0
	addl	$44, %esp
	.cfi_remember_state
.LCFI322:
	.cfi_def_cfa_offset 20
	popl	%ebx
.LCFI323:
	.cfi_def_cfa_offset 16
	.cfi_restore 3
	popl	%esi
.LCFI324:
	.cfi_def_cfa_offset 12
	.cfi_restore 6
	popl	%edi
.LCFI325:
	.cfi_def_cfa_offset 8
	.cfi_restore 7
	popl	%ebp
.LCFI326:
	.cfi_def_cfa_offset 4
	.cfi_restore 5
	ret
.LVL539:
	.p2align 2,,3
.L673:
.LCFI327:
	.cfi_restore_state
	.loc 1 1048 0
	movl	%ebp, (%esp)
	call	deflateEnd
	.loc 1 1049 0
	movl	$-4, %eax
	jmp	.L672
.LVL540:
	.p2align 2,,3
.L677:
	.loc 1 1027 0
	movl	$-2, %eax
	jmp	.L672
.LVL541:
	.p2align 2,,3
.L678:
	.loc 1 1035 0
	movl	$-4, %eax
.LVL542:
	jmp	.L672
	.cfi_endproc
.LFE40:
	.size	deflateCopy, .-deflateCopy
	.globl	deflate_copyright
	.section	.rodata
	.align 32
	.type	deflate_copyright, @object
	.size	deflate_copyright, 68
deflate_copyright:
	.string	" deflate 1.2.8 Copyright 1995-2013 Jean-loup Gailly and Mark Adler "
	.align 32
	.type	configuration_table, @object
	.size	configuration_table, 120
configuration_table:
	.value	0
	.value	0
	.value	0
	.value	0
	.long	deflate_stored
	.value	4
	.value	4
	.value	8
	.value	4
	.long	deflate_fast
	.value	4
	.value	5
	.value	16
	.value	8
	.long	deflate_fast
	.value	4
	.value	6
	.value	32
	.value	32
	.long	deflate_fast
	.value	4
	.value	4
	.value	16
	.value	16
	.long	deflate_slow
	.value	8
	.value	16
	.value	32
	.value	32
	.long	deflate_slow
	.value	8
	.value	16
	.value	128
	.value	128
	.long	deflate_slow
	.value	8
	.value	32
	.value	128
	.value	256
	.long	deflate_slow
	.value	32
	.value	128
	.value	258
	.value	1024
	.long	deflate_slow
	.value	32
	.value	258
	.value	258
	.value	4096
	.long	deflate_slow
	.text
.Letext0:
	.file 2 "zconf.h"
	.file 3 "zlib.h"
	.file 4 "deflate.h"
	.file 5 "zutil.h"
	.file 6 "/home/user/workspace/embox/./src/include/../util/dlist_debug.h"
	.section	.note.GNU-stack,"",@progbits
