	.file	"infback.c"
	.text
.Ltext0:
	.p2align 2,,3
	.globl	inflateBackInit_
	.type	inflateBackInit_, @function
inflateBackInit_:
.LFB25:
	.file 1 "infback.c"
	.loc 1 34 0
	.cfi_startproc
.LVL0:
	pushl	%edi
.LCFI0:
	.cfi_def_cfa_offset 8
	.cfi_offset 7, -8
	pushl	%esi
.LCFI1:
	.cfi_def_cfa_offset 12
	.cfi_offset 6, -12
	pushl	%ebx
.LCFI2:
	.cfi_def_cfa_offset 16
	.cfi_offset 3, -16
	subl	$16, %esp
.LCFI3:
	.cfi_def_cfa_offset 32
	movl	32(%esp), %esi
	movl	36(%esp), %edi
	movl	40(%esp), %ebx
	movl	44(%esp), %eax
	.loc 1 37 0
	testl	%eax, %eax
	je	.L7
	.loc 1 37 0 is_stmt 0 discriminator 1
	cmpb	$49, (%eax)
	jne	.L7
	cmpl	$56, 48(%esp)
	jne	.L7
	.loc 1 40 0 is_stmt 1
	testl	%esi, %esi
	je	.L11
	.loc 1 40 0 is_stmt 0 discriminator 1
	testl	%ebx, %ebx
	je	.L11
	cmpl	$7, %edi
	jle	.L11
	.loc 1 41 0 is_stmt 1
	cmpl	$15, %edi
	jg	.L11
	.loc 1 43 0
	movl	$0, 24(%esi)
	.loc 1 44 0
	movl	32(%esi), %edx
	testl	%edx, %edx
	je	.L14
	.loc 1 52 0
	movl	36(%esi), %eax
	testl	%eax, %eax
	je	.L15
.L4:
	.loc 1 58 0
	movl	$7116, 8(%esp)
	movl	$1, 4(%esp)
	movl	40(%esi), %eax
	movl	%eax, (%esp)
	call	*32(%esi)
.LVL1:
	.loc 1 60 0
	testl	%eax, %eax
	je	.L12
	.loc 1 62 0
	movl	%eax, 28(%esi)
	.loc 1 63 0
	movl	$32768, 20(%eax)
	.loc 1 64 0
	movl	%edi, 36(%eax)
	.loc 1 65 0
	movl	$1, %edx
	movl	%edi, %ecx
	sall	%cl, %edx
	movl	%edx, 40(%eax)
	.loc 1 66 0
	movl	%ebx, 52(%eax)
	.loc 1 67 0
	movl	$0, 48(%eax)
	.loc 1 68 0
	movl	$0, 44(%eax)
	.loc 1 69 0
	xorl	%eax, %eax
.LVL2:
.L2:
	.loc 1 70 0
	addl	$16, %esp
	.cfi_remember_state
.LCFI4:
	.cfi_def_cfa_offset 16
	popl	%ebx
.LCFI5:
	.cfi_def_cfa_offset 12
	.cfi_restore 3
	popl	%esi
.LCFI6:
	.cfi_def_cfa_offset 8
	.cfi_restore 6
	popl	%edi
.LCFI7:
	.cfi_def_cfa_offset 4
	.cfi_restore 7
	ret
	.p2align 2,,3
.L7:
.LCFI8:
	.cfi_restore_state
	.loc 1 39 0
	movl	$-6, %eax
	.loc 1 70 0
	addl	$16, %esp
	.cfi_remember_state
.LCFI9:
	.cfi_def_cfa_offset 16
	popl	%ebx
	.cfi_restore 3
.LCFI10:
	.cfi_def_cfa_offset 12
	popl	%esi
	.cfi_restore 6
.LCFI11:
	.cfi_def_cfa_offset 8
	popl	%edi
	.cfi_restore 7
.LCFI12:
	.cfi_def_cfa_offset 4
	ret
	.p2align 2,,3
.L14:
.LCFI13:
	.cfi_restore_state
	.loc 1 48 0
	movl	$zcalloc, 32(%esi)
	.loc 1 49 0
	movl	$0, 40(%esi)
	.loc 1 52 0
	movl	36(%esi), %eax
	testl	%eax, %eax
	jne	.L4
	.p2align 2,,3
.L15:
	.loc 1 56 0
	movl	$zcfree, 36(%esi)
	jmp	.L4
	.p2align 2,,3
.L11:
	.loc 1 42 0
	movl	$-2, %eax
	jmp	.L2
.LVL3:
.L12:
	.loc 1 60 0
	movl	$-4, %eax
.LVL4:
	jmp	.L2
	.cfi_endproc
.LFE25:
	.size	inflateBackInit_, .-inflateBackInit_
	.section	.rodata.str1.1,"aMS",@progbits,1
.LC0:
	.string	"invalid block type"
.LC1:
	.string	"invalid stored block lengths"
	.section	.rodata.str1.4,"aMS",@progbits,1
	.align 4
.LC2:
	.string	"too many length or distance symbols"
	.section	.rodata.str1.1
.LC3:
	.string	"invalid code lengths set"
.LC4:
	.string	"invalid bit length repeat"
	.section	.rodata.str1.4
	.align 4
.LC5:
	.string	"invalid code -- missing end-of-block"
	.section	.rodata.str1.1
.LC6:
	.string	"invalid literal/lengths set"
.LC7:
	.string	"invalid distances set"
.LC8:
	.string	"invalid literal/length code"
.LC9:
	.string	"invalid distance code"
.LC10:
	.string	"invalid distance too far back"
	.text
	.p2align 2,,3
	.globl	inflateBack
	.type	inflateBack, @function
inflateBack:
.LFB27:
	.loc 1 256 0
	.cfi_startproc
.LVL5:
	pushl	%ebp
.LCFI14:
	.cfi_def_cfa_offset 8
	.cfi_offset 5, -8
	pushl	%edi
.LCFI15:
	.cfi_def_cfa_offset 12
	.cfi_offset 7, -12
	pushl	%esi
.LCFI16:
	.cfi_def_cfa_offset 16
	.cfi_offset 6, -16
	pushl	%ebx
.LCFI17:
	.cfi_def_cfa_offset 20
	.cfi_offset 3, -20
	subl	$140, %esp
.LCFI18:
	.cfi_def_cfa_offset 160
	.loc 1 273 0
	movl	160(%esp), %eax
	testl	%eax, %eax
	je	.L150
	.loc 1 273 0 is_stmt 0 discriminator 1
	movl	160(%esp), %edx
	movl	28(%edx), %edx
	movl	%edx, 44(%esp)
	testl	%edx, %edx
	je	.L150
.LVL6:
	.loc 1 278 0 is_stmt 1
	movl	160(%esp), %ebx
	movl	$0, 24(%ebx)
	.loc 1 279 0
	movl	$11, (%edx)
	.loc 1 280 0
	movl	$0, 4(%edx)
	.loc 1 281 0
	movl	$0, 44(%edx)
	.loc 1 282 0
	movl	(%ebx), %eax
	movl	%eax, 124(%esp)
.LVL7:
	.loc 1 283 0
	testl	%eax, %eax
	je	.L151
	.loc 1 283 0 is_stmt 0 discriminator 1
	movl	4(%ebx), %ebx
.L18:
.LVL8:
	.loc 1 286 0 is_stmt 1 discriminator 3
	movl	44(%esp), %edx
	movl	52(%edx), %edx
	movl	%edx, 52(%esp)
.LVL9:
	.loc 1 287 0 discriminator 3
	movl	44(%esp), %edx
	movl	40(%edx), %edx
	movl	%edx, 60(%esp)
.LVL10:
	movl	$11, %eax
	.loc 1 285 0 discriminator 3
	xorl	%esi, %esi
	.loc 1 284 0 discriminator 3
	xorl	%edi, %edi
	.loc 1 385 0 discriminator 3
	movl	44(%esp), %edx
	addl	$1328, %edx
	movl	%edx, 68(%esp)
.LVL11:
.L208:
	.loc 1 291 0
	subl	$11, %eax
	cmpl	$18, %eax
	jbe	.L220
.L20:
.LVL12:
	.loc 1 610 0
	movl	124(%esp), %edx
	.loc 1 620 0
	movl	$-2, %eax
.LVL13:
.L28:
	.loc 1 626 0
	movl	160(%esp), %ebp
	movl	%edx, 0(%ebp)
	.loc 1 627 0
	movl	%ebx, 4(%ebp)
.LVL14:
.L17:
	.loc 1 629 0
	addl	$140, %esp
	.cfi_remember_state
.LCFI19:
	.cfi_def_cfa_offset 20
	popl	%ebx
.LCFI20:
	.cfi_def_cfa_offset 16
	.cfi_restore 3
	popl	%esi
.LCFI21:
	.cfi_def_cfa_offset 12
	.cfi_restore 6
	popl	%edi
.LCFI22:
	.cfi_def_cfa_offset 8
	.cfi_restore 7
	popl	%ebp
.LCFI23:
	.cfi_def_cfa_offset 4
	.cfi_restore 5
	ret
.LVL15:
	.p2align 2,,3
.L220:
.LCFI24:
	.cfi_restore_state
	.loc 1 291 0
	jmp	*.L27(,%eax,4)
	.section	.rodata
	.align 4
	.align 4
.L27:
	.long	.L21
	.long	.L20
	.long	.L22
	.long	.L20
	.long	.L20
	.long	.L23
	.long	.L20
	.long	.L20
	.long	.L20
	.long	.L24
	.long	.L20
	.long	.L20
	.long	.L20
	.long	.L20
	.long	.L20
	.long	.L20
	.long	.L20
	.long	.L25
	.long	.L26
	.text
	.p2align 2,,3
.L26:
	movl	124(%esp), %edx
	.loc 1 616 0
	movl	$-3, %eax
	jmp	.L28
	.p2align 2,,3
.L25:
.LVL16:
	.loc 1 609 0
	movl	44(%esp), %edx
	movl	40(%edx), %eax
	cmpl	60(%esp), %eax
	ja	.L145
	movl	124(%esp), %edx
	.loc 1 608 0
	movl	$1, %eax
	jmp	.L28
.LVL17:
.L97:
	.loc 1 479 0
	movl	44(%esp), %edx
	movl	$20, (%edx)
.LVL18:
	.p2align 2,,3
.L24:
	.loc 1 483 0
	cmpl	$5, %ebx
	ja	.L221
.L98:
	.loc 1 494 0
	movl	44(%esp), %edx
	movl	76(%edx), %edx
	movl	%edx, 48(%esp)
	movl	44(%esp), %edx
	movl	84(%edx), %ebp
	movl	$1, %eax
	movl	%ebp, %ecx
	sall	%cl, %eax
	decl	%eax
	andl	%edi, %eax
	movl	48(%esp), %ecx
	leal	(%ecx,%eax,4), %edx
	movb	(%edx), %al
	movb	%al, 56(%esp)
.LVL19:
	movb	1(%edx), %al
.LVL20:
	movw	2(%edx), %dx
.LVL21:
	.loc 1 495 0
	movzbl	%al, %ecx
	movl	%ecx, 80(%esp)
	cmpl	%ecx, %esi
	jae	.L100
	.loc 1 494 0
	movl	%ebx, %eax
.LVL22:
	jmp	.L181
.LVL23:
	.p2align 2,,3
.L103:
	.loc 1 496 0 discriminator 2
	decl	%eax
.LVL24:
	movl	124(%esp), %ebx
	movzbl	(%ebx), %edx
	movl	%esi, %ecx
	sall	%cl, %edx
	addl	%edx, %edi
.LVL25:
	incl	%ebx
	movl	%ebx, 124(%esp)
	addl	$8, %esi
.LVL26:
	.loc 1 494 0 discriminator 2
	movl	$1, %edx
	movl	%ebp, %ecx
	sall	%cl, %edx
	decl	%edx
	andl	%edi, %edx
	movl	48(%esp), %ebx
	leal	(%ebx,%edx,4), %edx
	movb	(%edx), %bl
	movb	%bl, 56(%esp)
	movb	1(%edx), %bl
.LVL27:
	movw	2(%edx), %dx
.LVL28:
	.loc 1 495 0 discriminator 2
	movzbl	%bl, %ecx
	cmpl	%esi, %ecx
	jbe	.L222
.LVL29:
.L181:
	.loc 1 496 0
	testl	%eax, %eax
	jne	.L103
	.loc 1 496 0 is_stmt 0 discriminator 1
	leal	124(%esp), %ecx
	movl	%ecx, 4(%esp)
	movl	168(%esp), %ebx
	movl	%ebx, (%esp)
	call	*164(%esp)
.LVL30:
	testl	%eax, %eax
	je	.L168
	.loc 1 496 0
	movl	44(%esp), %edx
	movl	76(%edx), %edx
	movl	%edx, 48(%esp)
	movl	44(%esp), %ebx
	movl	84(%ebx), %ebp
	jmp	.L103
.LVL31:
	.p2align 2,,3
.L23:
	.loc 1 360 0 is_stmt 1 discriminator 1
	cmpl	$13, %esi
	ja	.L30
	movl	%ebx, %eax
	movl	%esi, %ecx
	movl	164(%esp), %ebp
	movl	168(%esp), %esi
.LVL32:
	jmp	.L187
.LVL33:
	.p2align 2,,3
.L52:
	.loc 1 360 0 is_stmt 0 discriminator 2
	decl	%eax
.LVL34:
	movl	124(%esp), %ebx
	movzbl	(%ebx), %edx
	sall	%cl, %edx
	addl	%edx, %edi
.LVL35:
	incl	%ebx
	movl	%ebx, 124(%esp)
	addl	$8, %ecx
.LVL36:
	cmpl	$13, %ecx
	ja	.L223
.L187:
	testl	%eax, %eax
	jne	.L52
	.loc 1 360 0 discriminator 1
	leal	124(%esp), %ebx
	movl	%ebx, 4(%esp)
	movl	%esi, (%esp)
	movl	%ecx, 40(%esp)
	call	*%ebp
.LVL37:
	testl	%eax, %eax
	movl	40(%esp), %ecx
	jne	.L52
.LVL38:
.L168:
	movl	%eax, %ebx
	.loc 1 550 0 is_stmt 1
	xorl	%edx, %edx
	movl	$-5, %eax
.LVL39:
	jmp	.L28
.LVL40:
	.p2align 2,,3
.L22:
	.loc 1 328 0
	movl	%esi, %ecx
	andl	$7, %ecx
	shrl	%cl, %edi
.LVL41:
	andl	$-8, %esi
.LVL42:
	.loc 1 329 0
	cmpl	$31, %esi
	ja	.L42
	movl	%ebx, %eax
	movl	%esi, %ecx
	movl	164(%esp), %ebp
	movl	168(%esp), %esi
.LVL43:
	jmp	.L175
.LVL44:
	.p2align 2,,3
.L43:
	.loc 1 329 0 is_stmt 0 discriminator 2
	decl	%eax
.LVL45:
	movl	124(%esp), %ebx
	movzbl	(%ebx), %edx
	sall	%cl, %edx
	addl	%edx, %edi
.LVL46:
	incl	%ebx
	movl	%ebx, 124(%esp)
	addl	$8, %ecx
.LVL47:
	cmpl	$31, %ecx
	ja	.L224
.L175:
	testl	%eax, %eax
	jne	.L43
	.loc 1 329 0 discriminator 1
	leal	124(%esp), %ebx
	movl	%ebx, 4(%esp)
	movl	%esi, (%esp)
	movl	%ecx, 40(%esp)
	call	*%ebp
.LVL48:
	testl	%eax, %eax
	movl	40(%esp), %ecx
	jne	.L43
.L169:
	movl	%eax, %ebx
.LVL49:
.L218:
	.loc 1 558 0 is_stmt 1
	xorl	%edx, %edx
	movl	$-5, %eax
.LVL50:
	jmp	.L28
.LVL51:
	.p2align 2,,3
.L21:
	.loc 1 294 0
	movl	44(%esp), %edx
	movl	4(%edx), %eax
	testl	%eax, %eax
	jne	.L31
	.loc 1 299 0 discriminator 1
	cmpl	$2, %esi
	ja	.L33
	movl	%ebx, %eax
	movl	%esi, %ecx
	movl	164(%esp), %ebp
	movl	168(%esp), %esi
.LVL52:
	jmp	.L173
.LVL53:
	.p2align 2,,3
.L35:
	.loc 1 299 0 is_stmt 0 discriminator 2
	decl	%eax
.LVL54:
	movl	124(%esp), %ebx
	movzbl	(%ebx), %edx
	sall	%cl, %edx
	addl	%edx, %edi
.LVL55:
	incl	%ebx
	movl	%ebx, 124(%esp)
	addl	$8, %ecx
.LVL56:
	cmpl	$2, %ecx
	ja	.L225
.L173:
	testl	%eax, %eax
	jne	.L35
	.loc 1 299 0 discriminator 1
	leal	124(%esp), %ebx
	movl	%ebx, 4(%esp)
	movl	%esi, (%esp)
	movl	%ecx, 40(%esp)
	call	*%ebp
.LVL57:
	testl	%eax, %eax
	movl	40(%esp), %ecx
	jne	.L35
	jmp	.L169
.LVL58:
	.p2align 2,,3
.L31:
	.loc 1 295 0 is_stmt 1
	movl	%esi, %ecx
	andl	$7, %ecx
	shrl	%cl, %edi
.LVL59:
	andl	$-8, %esi
.LVL60:
	.loc 1 296 0
	movl	$28, (%edx)
	.loc 1 297 0
	movl	$28, %eax
	jmp	.L208
	.p2align 2,,3
.L221:
	.loc 1 483 0 discriminator 1
	cmpl	$257, 60(%esp)
	jbe	.L98
	.loc 1 484 0
	movl	52(%esp), %eax
	movl	160(%esp), %ebp
	movl	%eax, 12(%ebp)
	movl	60(%esp), %edx
	movl	%edx, 16(%ebp)
	movl	124(%esp), %eax
	movl	%eax, 0(%ebp)
	movl	%ebx, 4(%ebp)
	movl	44(%esp), %ebx
.LVL61:
	movl	%edi, 56(%ebx)
	movl	%esi, 60(%ebx)
	.loc 1 485 0
	movl	40(%ebx), %eax
	cmpl	%eax, 44(%ebx)
	jae	.L102
	.loc 1 486 0
	movl	%eax, %edx
	subl	60(%esp), %edx
	movl	%edx, 44(%ebx)
	movl	160(%esp), %ebp
.L102:
	.loc 1 487 0
	movl	%eax, 4(%esp)
	movl	%ebp, (%esp)
	call	inflate_fast
.LVL62:
	.loc 1 488 0
	movl	12(%ebp), %eax
	movl	%eax, 52(%esp)
.LVL63:
	movl	16(%ebp), %edx
	movl	%edx, 60(%esp)
.LVL64:
	movl	0(%ebp), %eax
	movl	%eax, 124(%esp)
	movl	4(%ebp), %ebx
.LVL65:
	movl	44(%esp), %edx
	movl	56(%edx), %edi
.LVL66:
	movl	60(%edx), %esi
.LVL67:
	movl	(%edx), %eax
	.loc 1 489 0
	jmp	.L208
.LVL68:
	.p2align 2,,3
.L145:
	.loc 1 610 0
	subl	60(%esp), %eax
	movl	%eax, 8(%esp)
	movl	52(%edx), %eax
	movl	%eax, 4(%esp)
	movl	176(%esp), %ebp
	movl	%ebp, (%esp)
	call	*172(%esp)
	movl	124(%esp), %edx
	testl	%eax, %eax
	je	.L226
.LVL69:
.L217:
	.loc 1 573 0
	movl	$-5, %eax
	jmp	.L28
.LVL70:
	.p2align 2,,3
.L224:
	movl	%eax, %ebx
	movl	%ecx, %esi
.LVL71:
.L42:
	.loc 1 330 0
	movl	%edi, %ebp
	andl	$65535, %ebp
	movl	%edi, %eax
	shrl	$16, %eax
	xorl	$65535, %eax
	cmpl	%eax, %ebp
	je	.L45
	.loc 1 331 0
	movl	160(%esp), %ebp
	movl	$.LC1, 24(%ebp)
	.loc 1 332 0
	movl	44(%esp), %edx
	movl	$29, (%edx)
	.loc 1 333 0
	movl	$29, %eax
	jmp	.L208
.LVL72:
	.p2align 2,,3
.L223:
	movl	%eax, %ebx
	movl	%ecx, %esi
.LVL73:
.L30:
	.loc 1 361 0
	movl	%edi, %eax
	andl	$31, %eax
	addl	$257, %eax
	movl	44(%esp), %edx
	movl	%eax, 96(%edx)
	.loc 1 362 0
	movl	%edi, %ecx
	shrl	$5, %ecx
.LVL74:
	.loc 1 363 0
	andl	$31, %ecx
.LVL75:
	incl	%ecx
	movl	%ecx, 100(%edx)
	.loc 1 364 0
	movl	%edi, %edx
	shrl	$10, %edx
.LVL76:
	.loc 1 365 0
	andl	$15, %edx
.LVL77:
	addl	$4, %edx
	movl	44(%esp), %ebp
	movl	%edx, 92(%ebp)
	.loc 1 366 0
	shrl	$14, %edi
.LVL78:
	subl	$14, %esi
.LVL79:
	.loc 1 368 0
	cmpl	$286, %eax
	ja	.L54
	.loc 1 368 0 is_stmt 0 discriminator 1
	cmpl	$30, %ecx
	ja	.L54
	.loc 1 377 0 is_stmt 1
	movl	44(%esp), %ecx
	movl	$0, 104(%ecx)
	xorl	%eax, %eax
	movl	%esi, %ecx
	movl	%eax, %esi
.LVL80:
	movl	%ebx, %eax
	movl	%edi, %ebx
.LVL81:
	movl	44(%esp), %edi
.LVL82:
	movl	%edx, 56(%esp)
.L56:
	.loc 1 379 0 discriminator 1
	cmpl	$2, %ecx
	ja	.L60
	.loc 1 379 0 is_stmt 0 discriminator 2
	testl	%eax, %eax
	je	.L227
.LVL83:
	.p2align 2,,3
.L57:
	decl	%eax
.LVL84:
	movl	124(%esp), %esi
	movzbl	(%esi), %edx
	sall	%cl, %edx
	addl	%edx, %ebx
.LVL85:
	incl	%esi
	movl	%esi, 124(%esp)
	addl	$8, %ecx
.LVL86:
	movl	92(%edi), %edx
	movl	%edx, 56(%esp)
	movl	104(%edi), %esi
.L60:
	.loc 1 380 0 is_stmt 1
	movzwl	order.2327(%esi,%esi), %ebp
	movl	%ebx, %edx
	andl	$7, %edx
	movw	%dx, 112(%edi,%ebp,2)
	incl	%esi
	movl	%esi, 104(%edi)
	.loc 1 381 0
	shrl	$3, %ebx
.LVL87:
	subl	$3, %ecx
.LVL88:
	.loc 1 378 0
	cmpl	56(%esp), %esi
	jb	.L56
	movl	%ebx, %edi
	movl	%eax, %ebx
.LVL89:
	movl	%esi, %eax
.LVL90:
	movl	%ecx, %esi
	.loc 1 383 0
	cmpl	$18, %eax
	ja	.L61
	movl	44(%esp), %ecx
.LVL91:
	.p2align 2,,3
.L186:
	.loc 1 384 0
	movzwl	order.2327(%eax,%eax), %edx
	movw	$0, 112(%ecx,%edx,2)
	incl	%eax
	.loc 1 383 0
	cmpl	$18, %eax
	jbe	.L186
	movl	44(%esp), %edx
	movl	%eax, 104(%edx)
.L61:
	.loc 1 385 0
	movl	68(%esp), %ebp
	movl	44(%esp), %edx
	movl	%ebp, 108(%edx)
	.loc 1 386 0
	movl	%ebp, 76(%edx)
	.loc 1 387 0
	movl	$7, 84(%edx)
	.loc 1 389 0
	addl	$752, %edx
	movl	%edx, 80(%esp)
	.loc 1 388 0
	movl	44(%esp), %edx
	addl	$84, %edx
	movl	%edx, 100(%esp)
	movl	44(%esp), %edx
	addl	$108, %edx
	movl	%edx, 84(%esp)
	movl	44(%esp), %edx
	addl	$112, %edx
	movl	%edx, 104(%esp)
	movl	80(%esp), %ebp
	movl	%ebp, 20(%esp)
	movl	100(%esp), %edx
	movl	%edx, 16(%esp)
	movl	84(%esp), %ebp
	movl	%ebp, 12(%esp)
	movl	$19, 8(%esp)
	movl	104(%esp), %edx
	movl	%edx, 4(%esp)
	movl	$0, (%esp)
	call	inflate_table
.LVL92:
	.loc 1 390 0
	testl	%eax, %eax
	je	.L63
	.loc 1 391 0
	movl	160(%esp), %ebp
	movl	$.LC3, 24(%ebp)
	.loc 1 392 0
	movl	44(%esp), %edx
	movl	$29, (%edx)
	.loc 1 393 0
	movl	$29, %eax
.LVL93:
	jmp	.L208
	.p2align 2,,3
.L54:
	.loc 1 369 0
	movl	160(%esp), %edx
	movl	$.LC2, 24(%edx)
	.loc 1 370 0
	movl	44(%esp), %edx
	movl	$29, (%edx)
	.loc 1 371 0
	movl	$29, %eax
	jmp	.L208
.LVL94:
	.p2align 2,,3
.L151:
	.loc 1 283 0
	xorl	%ebx, %ebx
	jmp	.L18
.LVL95:
	.p2align 2,,3
.L222:
	movl	%ecx, 80(%esp)
	movb	%bl, %cl
	movl	%eax, %ebx
.LVL96:
	movb	%cl, %al
.LVL97:
.L100:
	.loc 1 498 0
	cmpb	$0, 56(%esp)
	je	.L105
	.loc 1 498 0 is_stmt 0 discriminator 1
	movzbl	56(%esp), %ebp
	movl	%ebp, 64(%esp)
	testl	$240, %ebp
	jne	.L106
	movl	%ebp, %ecx
	.loc 1 501 0 is_stmt 1
	movzwl	%dx, %edx
	movl	%edx, 72(%esp)
	.loc 1 502 0
	movzbl	%al, %ebp
	addl	%ebp, %ecx
	movl	$1, %edx
	sall	%cl, %edx
	decl	%edx
	movl	%edx, 76(%esp)
	andl	%edi, %edx
	movb	%al, %cl
	shrl	%cl, %edx
	.loc 1 501 0
	movl	72(%esp), %eax
.LVL98:
	addl	%edx, %eax
	movl	48(%esp), %edx
	leal	(%edx,%eax,4), %eax
	movb	(%eax), %dl
	movb	%dl, 56(%esp)
.LVL99:
	movb	1(%eax), %dl
	movb	%dl, 84(%esp)
.LVL100:
	movw	2(%eax), %dx
.LVL101:
	.loc 1 503 0
	movzbl	84(%esp), %eax
.LVL102:
	leal	0(%ebp,%eax), %ecx
	cmpl	%ecx, %esi
	jae	.L107
	movl	%ebx, %eax
	movl	%ebp, 64(%esp)
	jmp	.L180
.LVL103:
	.p2align 2,,3
.L108:
	.loc 1 504 0 discriminator 2
	decl	%eax
.LVL104:
	movl	124(%esp), %ebx
	movzbl	(%ebx), %edx
	movl	%esi, %ecx
	sall	%cl, %edx
	addl	%edx, %edi
.LVL105:
	incl	%ebx
	movl	%ebx, 124(%esp)
	addl	$8, %esi
.LVL106:
	.loc 1 502 0 discriminator 2
	movl	76(%esp), %edx
	andl	%edi, %edx
	movb	64(%esp), %cl
	shrl	%cl, %edx
	.loc 1 501 0 discriminator 2
	addl	72(%esp), %edx
	movl	48(%esp), %ebx
	leal	(%ebx,%edx,4), %edx
	movb	(%edx), %bl
	movb	%bl, 56(%esp)
	movb	1(%edx), %bl
.LVL107:
	movw	2(%edx), %dx
.LVL108:
	.loc 1 503 0 discriminator 2
	movzbl	%bl, %ecx
	movl	64(%esp), %ebp
	addl	%ecx, %ebp
	cmpl	%esi, %ebp
	jbe	.L228
.LVL109:
.L180:
	.loc 1 504 0
	testl	%eax, %eax
	jne	.L108
	.loc 1 504 0 is_stmt 0 discriminator 1
	leal	124(%esp), %ecx
	movl	%ecx, 4(%esp)
	movl	168(%esp), %ebx
	movl	%ebx, (%esp)
	call	*164(%esp)
.LVL110:
	testl	%eax, %eax
	je	.L168
	.loc 1 504 0
	movl	44(%esp), %edx
	movl	76(%edx), %edx
	movl	%edx, 48(%esp)
	jmp	.L108
.LVL111:
	.p2align 2,,3
.L225:
	movl	%eax, %ebx
	movl	%ecx, %esi
.LVL112:
.L33:
	.loc 1 300 0 is_stmt 1
	movl	%edi, %eax
	andl	$1, %eax
	movl	44(%esp), %edx
	movl	%eax, 4(%edx)
	.loc 1 301 0
	shrl	%edi
.LVL113:
	.loc 1 302 0
	movl	%edi, %eax
	andl	$3, %eax
	cmpl	$2, %eax
	je	.L39
	cmpl	$3, %eax
	je	.L40
	decl	%eax
	je	.L38
	.loc 1 306 0
	movl	$13, (%edx)
	.loc 1 307 0
	movl	$13, %eax
.L41:
	.loc 1 323 0
	shrl	$2, %edi
.LVL114:
	subl	$3, %esi
.LVL115:
	.loc 1 324 0
	jmp	.L208
.LVL116:
	.p2align 2,,3
.L105:
	.loc 1 508 0
	movb	%al, %cl
	shrl	%cl, %edi
.LVL117:
	subl	80(%esp), %esi
.LVL118:
	.loc 1 509 0
	movzwl	%dx, %edx
	movl	44(%esp), %ebp
	movl	%edx, 64(%ebp)
.LVL119:
.L147:
	.loc 1 516 0
	movl	60(%esp), %eax
	testl	%eax, %eax
	je	.L229
.L111:
	.loc 1 517 0
	movl	52(%esp), %ebp
	movb	%dl, 0(%ebp)
	incl	%ebp
	movl	%ebp, 52(%esp)
.LVL120:
	.loc 1 518 0
	decl	60(%esp)
	.loc 1 519 0
	movl	44(%esp), %edx
	movl	$20, (%edx)
	.loc 1 520 0
	movl	$20, %eax
	jmp	.L208
.LVL121:
	.p2align 2,,3
.L45:
	.loc 1 335 0
	movl	44(%esp), %edx
	movl	%ebp, 64(%edx)
.LVL122:
	.loc 1 341 0
	testl	%ebp, %ebp
	je	.L46
	movl	%ebp, %esi
	movl	60(%esp), %ebp
	jmp	.L174
.LVL123:
	.p2align 2,,3
.L47:
	.loc 1 344 0
	testl	%ebp, %ebp
	je	.L230
.L48:
	movl	%ebx, %eax
	cmpl	%esi, %ebx
	jbe	.L49
.LVL124:
	movl	%esi, %eax
.LVL125:
.L49:
	cmpl	%ebp, %eax
	jbe	.L50
	movl	%ebp, %eax
.LVL126:
.L50:
	.loc 1 347 0
	movl	124(%esp), %esi
	movl	52(%esp), %edi
	movl	%eax, %ecx
	rep movsb
.LVL127:
	.loc 1 348 0
	subl	%eax, %ebx
.LVL128:
	.loc 1 349 0
	addl	%eax, 124(%esp)
	.loc 1 350 0
	subl	%eax, %ebp
.LVL129:
	.loc 1 351 0
	movl	%edi, 52(%esp)
.LVL130:
	.loc 1 352 0
	movl	64(%edx), %esi
	subl	%eax, %esi
	movl	%esi, 64(%edx)
	.loc 1 341 0
	testl	%esi, %esi
	je	.L231
.LVL131:
.L174:
	.loc 1 343 0
	testl	%ebx, %ebx
	jne	.L47
	.loc 1 343 0 is_stmt 0 discriminator 1
	leal	124(%esp), %ecx
	movl	%ecx, 4(%esp)
	movl	168(%esp), %ebx
.LVL132:
	movl	%ebx, (%esp)
	movl	%edx, 40(%esp)
	call	*164(%esp)
	movl	%eax, %ebx
.LVL133:
	testl	%eax, %eax
	movl	40(%esp), %edx
	je	.L218
	.loc 1 344 0 is_stmt 1
	testl	%ebp, %ebp
	jne	.L48
.LVL134:
.L230:
	.loc 1 344 0 is_stmt 0 discriminator 1
	movl	52(%edx), %ebp
.LVL135:
	movl	%ebp, 52(%esp)
.LVL136:
	movl	40(%edx), %ebp
.LVL137:
	movl	%ebp, 44(%edx)
	movl	%ebp, 8(%esp)
	movl	52(%esp), %eax
	movl	%eax, 4(%esp)
	movl	176(%esp), %ecx
	movl	%ecx, (%esp)
	movl	%edx, 40(%esp)
	call	*172(%esp)
.LVL138:
	testl	%eax, %eax
	movl	40(%esp), %edx
	je	.L48
.LVL139:
.L219:
	.loc 1 587 0 is_stmt 1
	movl	124(%esp), %edx
	movl	$-5, %eax
	jmp	.L28
.LVL140:
.L106:
	.loc 1 508 0
	movb	%al, %cl
	shrl	%cl, %edi
.LVL141:
	subl	80(%esp), %esi
.LVL142:
	.loc 1 509 0
	movzwl	%dx, %edx
	movl	44(%esp), %ebp
	movl	%edx, 64(%ebp)
.LVL143:
.L148:
	.loc 1 524 0
	testb	$32, 64(%esp)
	je	.L113
	.loc 1 526 0
	movl	44(%esp), %edx
	movl	$11, (%edx)
	.loc 1 527 0
	movl	$11, %eax
	jmp	.L208
.LVL144:
.L226:
	.loc 1 608 0
	movb	$1, %al
	jmp	.L28
.LVL145:
.L229:
	.loc 1 516 0 discriminator 1
	movl	44(%esp), %edx
	movl	52(%edx), %edx
	movl	%edx, 52(%esp)
.LVL146:
	movl	44(%esp), %edx
	movl	40(%edx), %edx
	movl	%edx, 60(%esp)
.LVL147:
	movl	44(%esp), %ecx
	movl	%edx, 44(%ecx)
	movl	%edx, 8(%esp)
	movl	52(%esp), %ebp
	movl	%ebp, 4(%esp)
	movl	176(%esp), %edx
	movl	%edx, (%esp)
	call	*172(%esp)
.LVL148:
	testl	%eax, %eax
	jne	.L219
	.loc 1 516 0 is_stmt 0
	movl	44(%esp), %ecx
	movl	64(%ecx), %edx
	jmp	.L111
.LVL149:
.L40:
	.loc 1 320 0 is_stmt 1
	movl	160(%esp), %ebp
	movl	$.LC0, 24(%ebp)
	.loc 1 321 0
	movl	44(%esp), %edx
	movl	$29, (%edx)
	movl	$29, %eax
	jmp	.L41
.LVL150:
	.p2align 2,,3
.L227:
	.loc 1 379 0 discriminator 1
	leal	124(%esp), %ebp
	movl	%ebp, 4(%esp)
	movl	168(%esp), %edx
	movl	%edx, (%esp)
	movl	%ecx, 40(%esp)
	call	*164(%esp)
.LVL151:
	testl	%eax, %eax
	movl	40(%esp), %ecx
	jne	.L57
	jmp	.L168
.LVL152:
.L231:
	movl	%ebp, 60(%esp)
	movl	44(%esp), %edx
.LVL153:
.L46:
	.loc 1 355 0
	movl	$11, (%edx)
	.loc 1 356 0
	movl	$11, %eax
	.loc 1 338 0
	xorl	%esi, %esi
	xorl	%edi, %edi
	.loc 1 356 0
	jmp	.L208
.LVL154:
.L113:
	.loc 1 531 0
	testb	$64, 64(%esp)
	je	.L114
	.loc 1 532 0
	movl	160(%esp), %ebp
	movl	$.LC8, 24(%ebp)
	.loc 1 533 0
	movl	44(%esp), %edx
	movl	$29, (%edx)
	.loc 1 534 0
	movl	$29, %eax
	jmp	.L208
.LVL155:
.L228:
	movb	%bl, 84(%esp)
	movl	%eax, %ebx
.LVL156:
	movl	%ecx, %eax
.LVL157:
	movl	64(%esp), %ebp
.L107:
	.loc 1 506 0
	movl	%ebp, %ecx
	shrl	%cl, %edi
.LVL158:
	subl	80(%esp), %esi
.LVL159:
	.loc 1 508 0
	movb	%al, %cl
	shrl	%cl, %edi
.LVL160:
	movzbl	84(%esp), %eax
	subl	%eax, %esi
.LVL161:
	.loc 1 509 0
	movzwl	%dx, %edx
	movl	44(%esp), %ebp
	movl	%edx, 64(%ebp)
	.loc 1 512 0
	cmpb	$0, 56(%esp)
	je	.L147
	.loc 1 520 0
	movzbl	56(%esp), %ebp
	movl	%ebp, 64(%esp)
	jmp	.L148
.LVL162:
.L38:
.LBB4:
.LBB5:
	.loc 1 119 0
	movl	44(%esp), %edx
	movl	$lenfix.2305, 76(%edx)
	.loc 1 120 0
	movl	$9, 84(%edx)
	.loc 1 121 0
	movl	$distfix.2306, 80(%edx)
	.loc 1 122 0
	movl	$5, 88(%edx)
.LBE5:
.LBE4:
	.loc 1 312 0
	movl	$20, (%edx)
	.loc 1 313 0
	movl	$20, %eax
	jmp	.L41
.LVL163:
.L39:
	.loc 1 317 0
	movl	$16, (%edx)
	.loc 1 318 0
	movl	$16, %eax
	jmp	.L41
.LVL164:
.L114:
	.loc 1 538 0
	movb	56(%esp), %al
	andl	$15, %eax
	movl	%eax, %ebp
	movl	44(%esp), %edx
	movl	%eax, 72(%edx)
	.loc 1 539 0
	testl	%eax, %eax
	je	.L115
	.loc 1 540 0 discriminator 1
	cmpl	%esi, %eax
	jbe	.L116
	movl	%ebx, %eax
	movl	%esi, %ecx
	movl	168(%esp), %esi
.LVL165:
	jmp	.L179
.LVL166:
	.p2align 2,,3
.L117:
	.loc 1 540 0 is_stmt 0 discriminator 2
	decl	%eax
.LVL167:
	movl	124(%esp), %ebx
	movzbl	(%ebx), %edx
	sall	%cl, %edx
	addl	%edx, %edi
.LVL168:
	incl	%ebx
	movl	%ebx, 124(%esp)
	addl	$8, %ecx
.LVL169:
	cmpl	%ebp, %ecx
	jae	.L232
.L179:
	testl	%eax, %eax
	jne	.L117
	.loc 1 540 0 discriminator 1
	leal	124(%esp), %ebx
	movl	%ebx, 4(%esp)
	movl	%esi, (%esp)
	movl	%ecx, 40(%esp)
	call	*164(%esp)
.LVL170:
	testl	%eax, %eax
	movl	40(%esp), %ecx
	je	.L168
	.loc 1 540 0
	movl	44(%esp), %edx
	movl	72(%edx), %ebp
	jmp	.L117
.LVL171:
.L232:
	movl	%eax, %ebx
	movl	%ecx, %esi
.LVL172:
.L116:
	.loc 1 541 0 is_stmt 1
	movl	$1, %eax
	movl	%ebp, %ecx
	sall	%cl, %eax
	decl	%eax
	andl	%edi, %eax
	movl	44(%esp), %edx
	addl	%eax, 64(%edx)
	.loc 1 542 0
	shrl	%cl, %edi
.LVL173:
	subl	%ebp, %esi
.LVL174:
.L115:
	.loc 1 548 0
	movl	80(%edx), %edx
	movl	%edx, 48(%esp)
	movl	44(%esp), %edx
	movl	88(%edx), %ecx
	movl	$1, %eax
	sall	%cl, %eax
	decl	%eax
	andl	%edi, %eax
	movl	48(%esp), %ebp
	leal	0(%ebp,%eax,4), %eax
	movb	(%eax), %dl
	movb	%dl, 56(%esp)
.LVL175:
	movb	1(%eax), %dl
.LVL176:
	movw	2(%eax), %ax
.LVL177:
	.loc 1 549 0
	movzbl	%dl, %ebp
	cmpl	%ebp, %esi
	jae	.L167
	.loc 1 548 0
	movl	%ebx, %eax
.LVL178:
	movl	%ecx, %ebp
	jmp	.L178
.LVL179:
	.p2align 2,,3
.L120:
	.loc 1 550 0 discriminator 2
	decl	%eax
.LVL180:
	movl	124(%esp), %ebx
	movzbl	(%ebx), %edx
	movl	%esi, %ecx
	sall	%cl, %edx
	addl	%edx, %edi
.LVL181:
	incl	%ebx
	movl	%ebx, 124(%esp)
	addl	$8, %esi
.LVL182:
	.loc 1 548 0 discriminator 2
	movl	$1, %edx
	movl	%ebp, %ecx
	sall	%cl, %edx
	decl	%edx
	andl	%edi, %edx
	movl	48(%esp), %ebx
	leal	(%ebx,%edx,4), %ecx
	movb	(%ecx), %dl
	movb	%dl, 56(%esp)
	movb	1(%ecx), %dl
.LVL183:
	movw	2(%ecx), %bx
	.loc 1 549 0 discriminator 2
	movzbl	%dl, %ecx
.LVL184:
	cmpl	%esi, %ecx
	jbe	.L233
.L178:
	.loc 1 550 0
	testl	%eax, %eax
	jne	.L120
	.loc 1 550 0 is_stmt 0 discriminator 1
	leal	124(%esp), %ecx
	movl	%ecx, 4(%esp)
	movl	168(%esp), %ebx
	movl	%ebx, (%esp)
	call	*164(%esp)
.LVL185:
	testl	%eax, %eax
	je	.L168
	.loc 1 550 0
	movl	44(%esp), %edx
	movl	80(%edx), %edx
	movl	%edx, 48(%esp)
	movl	44(%esp), %ebx
	movl	88(%ebx), %ebp
	jmp	.L120
.LVL186:
.L150:
	.loc 1 274 0 is_stmt 1
	movl	$-2, %eax
	jmp	.L17
.LVL187:
.L233:
	movl	%ecx, %ebp
	movl	%ebx, %ecx
	movl	%eax, %ebx
	movl	%ecx, %eax
.LVL188:
	.loc 1 549 0
	movl	%ebp, 64(%esp)
.L119:
	.loc 1 552 0
	movzbl	56(%esp), %ecx
	movl	%ecx, 72(%esp)
	andl	$240, %ecx
	je	.L122
	movzbl	%dl, %edx
.LVL189:
.L123:
	.loc 1 562 0
	movb	%dl, %cl
	shrl	%cl, %edi
.LVL190:
	subl	64(%esp), %esi
.LVL191:
	.loc 1 563 0
	testb	$64, 72(%esp)
	je	.L127
	.loc 1 564 0
	movl	160(%esp), %ebp
	movl	$.LC9, 24(%ebp)
	.loc 1 565 0
	movl	44(%esp), %edx
	movl	$29, (%edx)
	.loc 1 566 0
	movl	$29, %eax
.LVL192:
	jmp	.L208
.LVL193:
.L122:
	.loc 1 555 0
	movzwl	%ax, %eax
	movl	%eax, 76(%esp)
	.loc 1 556 0
	movzbl	%dl, %ecx
	movl	%ecx, 64(%esp)
	movl	72(%esp), %ecx
	addl	64(%esp), %ecx
	movl	$1, %eax
	sall	%cl, %eax
	decl	%eax
	movl	%eax, 72(%esp)
	andl	%edi, %eax
	movb	%dl, %cl
	shrl	%cl, %eax
	.loc 1 555 0
	addl	76(%esp), %eax
	movl	48(%esp), %edx
.LVL194:
	leal	(%edx,%eax,4), %eax
	movb	(%eax), %dl
	movb	%dl, 56(%esp)
.LVL195:
	movb	1(%eax), %dl
	movb	%dl, 80(%esp)
.LVL196:
	movw	2(%eax), %ax
.LVL197:
	.loc 1 557 0
	movzbl	%dl, %edx
.LVL198:
	movl	64(%esp), %ecx
	addl	%edx, %ecx
	cmpl	%ecx, %esi
	jae	.L124
	movl	%ebx, %eax
.LVL199:
	movl	%ebp, 80(%esp)
	jmp	.L177
.LVL200:
	.p2align 2,,3
.L125:
	.loc 1 558 0 discriminator 2
	decl	%eax
.LVL201:
	movl	124(%esp), %ebx
	movzbl	(%ebx), %edx
	movl	%esi, %ecx
	sall	%cl, %edx
	addl	%edx, %edi
.LVL202:
	incl	%ebx
	movl	%ebx, 124(%esp)
	addl	$8, %esi
.LVL203:
	.loc 1 556 0 discriminator 2
	movl	72(%esp), %edx
	andl	%edi, %edx
	movb	64(%esp), %cl
	shrl	%cl, %edx
	.loc 1 555 0 discriminator 2
	addl	76(%esp), %edx
	movl	48(%esp), %ebx
	leal	(%ebx,%edx,4), %edx
	movb	(%edx), %bl
	movb	%bl, 56(%esp)
	movb	1(%edx), %cl
.LVL204:
	movw	2(%edx), %bp
	.loc 1 557 0 discriminator 2
	movzbl	%cl, %edx
.LVL205:
	movl	64(%esp), %ebx
	addl	%edx, %ebx
	cmpl	%esi, %ebx
	jbe	.L234
.LVL206:
.L177:
	.loc 1 558 0
	testl	%eax, %eax
	jne	.L125
	.loc 1 558 0 is_stmt 0 discriminator 1
	leal	124(%esp), %ecx
	movl	%ecx, 4(%esp)
	movl	168(%esp), %ebx
	movl	%ebx, (%esp)
	call	*164(%esp)
.LVL207:
	testl	%eax, %eax
	je	.L169
	.loc 1 558 0
	movl	44(%esp), %edx
	movl	80(%edx), %edx
	movl	%edx, 48(%esp)
	jmp	.L125
.LVL208:
.L127:
	.loc 1 568 0 is_stmt 1
	movzwl	%ax, %eax
	movl	44(%esp), %edx
	movl	%eax, 68(%edx)
	.loc 1 571 0
	movb	56(%esp), %dl
	andl	$15, %edx
	movl	%edx, %ebp
	movl	44(%esp), %edx
	movl	%ebp, 72(%edx)
	.loc 1 572 0
	testl	%ebp, %ebp
	je	.L128
	.loc 1 573 0 discriminator 1
	cmpl	%ebp, %esi
	jae	.L129
	movl	%ebx, %eax
.LVL209:
	movl	%esi, %ecx
	movl	168(%esp), %esi
.LVL210:
	jmp	.L176
.LVL211:
	.p2align 2,,3
.L130:
	.loc 1 573 0 is_stmt 0 discriminator 2
	decl	%eax
.LVL212:
	movl	124(%esp), %ebx
	movzbl	(%ebx), %edx
	sall	%cl, %edx
	addl	%edx, %edi
.LVL213:
	incl	%ebx
	movl	%ebx, 124(%esp)
	addl	$8, %ecx
.LVL214:
	cmpl	%ebp, %ecx
	jae	.L235
.L176:
	testl	%eax, %eax
	jne	.L130
	.loc 1 573 0 discriminator 1
	leal	124(%esp), %ebx
	movl	%ebx, 4(%esp)
	movl	%esi, (%esp)
	movl	%ecx, 40(%esp)
	call	*164(%esp)
.LVL215:
	testl	%eax, %eax
	movl	40(%esp), %ecx
	je	.L170
	.loc 1 573 0
	movl	44(%esp), %edx
	movl	72(%edx), %ebp
	jmp	.L130
.LVL216:
.L235:
	movl	%eax, %ebx
	movl	%ecx, %esi
.LVL217:
.L129:
	.loc 1 574 0 is_stmt 1
	movl	$1, %eax
	movl	%ebp, %ecx
	sall	%cl, %eax
	decl	%eax
	andl	%edi, %eax
	movl	44(%esp), %edx
	addl	68(%edx), %eax
	movl	%eax, 68(%edx)
	.loc 1 575 0
	shrl	%cl, %edi
.LVL218:
	subl	%ebp, %esi
.LVL219:
.L128:
	.loc 1 577 0
	movl	40(%edx), %ebp
	.loc 1 578 0
	cmpl	%ebp, 44(%edx)
	jb	.L171
	xorl	%edx, %edx
.L132:
	.loc 1 577 0
	movl	%ebp, %ecx
	subl	%edx, %ecx
	cmpl	%eax, %ecx
	jae	.L216
	.loc 1 579 0
	movl	160(%esp), %ebp
	movl	$.LC10, 24(%ebp)
	.loc 1 580 0
	movl	44(%esp), %edx
	movl	$29, (%edx)
	.loc 1 581 0
	movl	$29, %eax
	jmp	.L208
.LVL220:
.L234:
	movl	%eax, %ebx
	movl	%ebp, %eax
.LVL221:
	movl	80(%esp), %ebp
	movb	%cl, 80(%esp)
.LVL222:
.L124:
	.loc 1 560 0
	movb	64(%esp), %cl
	shrl	%cl, %edi
.LVL223:
	subl	%ebp, %esi
.LVL224:
	movzbl	56(%esp), %ebp
	movl	%ebp, 72(%esp)
	movzbl	80(%esp), %ebp
	movl	%ebp, 64(%esp)
	jmp	.L123
.LVL225:
.L63:
	.loc 1 398 0
	movl	44(%esp), %edx
	movl	$0, 104(%edx)
	movl	96(%edx), %ecx
	movl	%ecx, 72(%esp)
	.loc 1 399 0
	movl	$0, 56(%esp)
	addl	100(%edx), %ecx
	movl	%ecx, 76(%esp)
	movl	%ebx, %eax
.LVL226:
	movl	56(%esp), %ebx
.LVL227:
.L209:
	.loc 1 399 0 is_stmt 0 discriminator 1
	cmpl	%ebx, 76(%esp)
	jbe	.L92
	.loc 1 401 0 is_stmt 1
	movl	44(%esp), %edx
	movl	76(%edx), %edx
	movl	%edx, 48(%esp)
	movl	44(%esp), %ebx
	movl	84(%ebx), %ebp
	movl	$1, %edx
	movl	%ebp, %ecx
	sall	%cl, %edx
	decl	%edx
	andl	%edi, %edx
	movl	48(%esp), %ebx
	leal	(%ebx,%edx,4), %edx
.LVL228:
	movb	1(%edx), %cl
.LVL229:
	movw	2(%edx), %dx
.LVL230:
	.loc 1 402 0
	movzbl	%cl, %ebx
	movl	%ebx, 56(%esp)
	cmpl	%ebx, %esi
	jb	.L185
	jmp	.L93
.LVL231:
	.p2align 2,,3
.L65:
	.loc 1 403 0 discriminator 2
	decl	%eax
.LVL232:
	movl	124(%esp), %ebx
	movzbl	(%ebx), %edx
	movl	%esi, %ecx
	sall	%cl, %edx
	addl	%edx, %edi
.LVL233:
	incl	%ebx
	movl	%ebx, 124(%esp)
	addl	$8, %esi
.LVL234:
	.loc 1 401 0 discriminator 2
	movl	$1, %edx
	movl	%ebp, %ecx
	sall	%cl, %edx
	decl	%edx
	andl	%edi, %edx
	movl	48(%esp), %ebx
	leal	(%ebx,%edx,4), %edx
.LVL235:
	movb	1(%edx), %cl
.LVL236:
	movw	2(%edx), %dx
.LVL237:
	.loc 1 402 0 discriminator 2
	movzbl	%cl, %ebx
	cmpl	%esi, %ebx
	jbe	.L236
.L185:
	.loc 1 403 0
	testl	%eax, %eax
	jne	.L65
	.loc 1 403 0 is_stmt 0 discriminator 1
	leal	124(%esp), %ebx
	movl	%ebx, 4(%esp)
	movl	168(%esp), %edx
	movl	%edx, (%esp)
	call	*164(%esp)
.LVL238:
	testl	%eax, %eax
	je	.L168
	.loc 1 403 0
	movl	44(%esp), %ebx
	movl	76(%ebx), %ebx
	movl	%ebx, 48(%esp)
	movl	44(%esp), %edx
	movl	84(%edx), %ebp
	jmp	.L65
.LVL239:
.L236:
	movl	%ebx, 56(%esp)
.L93:
	.loc 1 405 0 is_stmt 1
	cmpw	$15, %dx
	ja	.L67
	.loc 1 406 0
	shrl	%cl, %edi
.LVL240:
	subl	56(%esp), %esi
.LVL241:
	.loc 1 407 0
	movl	44(%esp), %ebx
	movl	104(%ebx), %ecx
.LVL242:
	movw	%dx, 112(%ebx,%ecx,2)
	incl	%ecx
	movl	%ecx, 56(%esp)
	movl	%ecx, 104(%ebx)
	movl	96(%ebx), %ebp
	movl	%ebp, 72(%esp)
	addl	100(%ebx), %ebp
	movl	%ebp, 76(%esp)
	movl	%ecx, %ebx
	jmp	.L209
.LVL243:
.L67:
	.loc 1 411 0
	movzbl	%cl, %ecx
	movl	%ecx, 48(%esp)
	movl	%ecx, %ebp
	.loc 1 410 0
	cmpw	$16, %dx
	je	.L237
	.loc 1 422 0
	cmpw	$17, %dx
	je	.L76
	.loc 1 430 0 discriminator 1
	addl	$7, %ebp
	cmpl	%ebp, %esi
	jae	.L78
	movl	%esi, %ecx
.LVL244:
	movl	168(%esp), %esi
.LVL245:
	jmp	.L184
.LVL246:
	.p2align 2,,3
.L82:
	.loc 1 430 0 is_stmt 0 discriminator 2
	decl	%eax
.LVL247:
	movl	124(%esp), %ebx
	movzbl	(%ebx), %edx
	sall	%cl, %edx
	addl	%edx, %edi
.LVL248:
	incl	%ebx
	movl	%ebx, 124(%esp)
	addl	$8, %ecx
.LVL249:
	cmpl	%ebp, %ecx
	jae	.L238
.L184:
	testl	%eax, %eax
	jne	.L82
	.loc 1 430 0 discriminator 1
	leal	124(%esp), %eax
.LVL250:
	movl	%eax, 4(%esp)
	movl	%esi, (%esp)
	movl	%ecx, 40(%esp)
	call	*164(%esp)
.LVL251:
	testl	%eax, %eax
	movl	40(%esp), %ecx
	jne	.L82
	jmp	.L168
.LVL252:
.L216:
	movl	%ebx, 48(%esp)
	movl	52(%esp), %ebx
.LVL253:
	movl	%edi, 56(%esp)
	movl	%esi, 64(%esp)
.LVL254:
.L211:
	.loc 1 587 0 is_stmt 1
	movl	60(%esp), %eax
	testl	%eax, %eax
	je	.L239
.L135:
	.loc 1 588 0
	movl	44(%esp), %edx
	movl	68(%edx), %eax
	subl	%eax, %ebp
.LVL255:
	.loc 1 589 0
	cmpl	%ebp, 60(%esp)
	jbe	.L137
	.loc 1 590 0
	leal	(%ebx,%ebp), %edx
.LVL256:
	.loc 1 591 0
	movl	60(%esp), %esi
	subl	%ebp, %esi
.LVL257:
.L138:
	.loc 1 597 0
	movl	44(%esp), %ecx
	movl	64(%ecx), %eax
	cmpl	%eax, %esi
	jbe	.L139
	movl	%eax, %esi
.LVL258:
.L139:
	.loc 1 598 0
	subl	%esi, %eax
	movl	44(%esp), %ebp
	movl	%eax, 64(%ebp)
	.loc 1 599 0
	subl	%esi, 60(%esp)
	movl	%esi, %edi
	shrl	$2, %edi
	leal	0(,%edi,4), %eax
	movl	%eax, 52(%esp)
	.loc 1 250 0
	leal	4(%edx), %eax
	cmpl	%eax, %ebx
	seta	%cl
	leal	4(%ebx), %eax
	cmpl	%eax, %edx
	seta	%al
	orl	%eax, %ecx
	movl	%edx, %eax
	orl	%ebx, %eax
	testb	$3, %al
	sete	72(%esp)
	cmpl	$9, %esi
	seta	%al
	andb	%al, 72(%esp)
	.loc 1 599 0
	testb	%cl, 72(%esp)
	je	.L172
	movl	52(%esp), %ebp
	testl	%ebp, %ebp
	je	.L172
	.loc 1 250 0
	xorl	%eax, %eax
.LVL259:
	.p2align 2,,3
.L141:
	.loc 1 601 0 discriminator 1
	movl	(%edx,%eax,4), %ecx
	movl	%ecx, (%ebx,%eax,4)
	incl	%eax
	cmpl	%eax, %edi
	ja	.L141
	.loc 1 601 0 is_stmt 0
	movl	52(%esp), %edi
	addl	%ebx, %edi
	movl	%esi, %ebp
	subl	52(%esp), %ebp
	addl	52(%esp), %edx
	cmpl	52(%esp), %esi
	je	.L142
.L140:
	.loc 1 250 0 is_stmt 1
	xorl	%eax, %eax
	.p2align 2,,3
.L143:
	.loc 1 601 0
	movb	(%edx,%eax), %cl
	movb	%cl, (%edi,%eax)
	incl	%eax
	.loc 1 602 0
	cmpl	%ebp, %eax
	jne	.L143
.L142:
	addl	%esi, %ebx
	.loc 1 603 0
	movl	44(%esp), %edx
	movl	64(%edx), %ecx
	testl	%ecx, %ecx
	je	.L240
	movl	40(%edx), %ebp
	jmp	.L211
.LVL260:
.L137:
	.loc 1 594 0
	movl	%ebx, %edx
	subl	%eax, %edx
.LVL261:
	movl	60(%esp), %esi
	jmp	.L138
.LVL262:
.L239:
	.loc 1 587 0 discriminator 1
	movl	44(%esp), %edx
	movl	52(%edx), %ebx
.LVL263:
	movl	%ebp, 44(%edx)
	movl	%ebp, 8(%esp)
	movl	%ebx, 4(%esp)
	movl	176(%esp), %edx
	movl	%edx, (%esp)
	call	*172(%esp)
.LVL264:
	testl	%eax, %eax
	jne	.L241
	.loc 1 587 0 is_stmt 0
	movl	%ebp, 60(%esp)
	movl	44(%esp), %edx
	movl	40(%edx), %ebp
.LVL265:
	jmp	.L135
.LVL266:
.L171:
	.loc 1 578 0 is_stmt 1
	movl	60(%esp), %edx
	jmp	.L132
.LVL267:
.L240:
	movl	%ebx, 52(%esp)
	movl	48(%esp), %ebx
	movl	56(%esp), %edi
	movl	64(%esp), %esi
	.loc 1 603 0
	movl	(%edx), %eax
	jmp	.L208
.LVL268:
.L238:
	movl	%ecx, %esi
.LVL269:
.L78:
	.loc 1 431 0
	movb	48(%esp), %cl
	shrl	%cl, %edi
.LVL270:
	.loc 1 433 0
	movl	%edi, %edx
	andl	$127, %edx
	addl	$11, %edx
	movl	%edx, 64(%esp)
.LVL271:
	.loc 1 434 0
	shrl	$7, %edi
.LVL272:
	.loc 1 431 0
	subl	56(%esp), %esi
.LVL273:
	.loc 1 434 0
	subl	$7, %esi
.LVL274:
	movl	44(%esp), %ebx
	movl	104(%ebx), %ecx
	.loc 1 432 0
	xorl	%ebx, %ebx
	movl	%edx, %ebp
.LVL275:
.L75:
	.loc 1 436 0
	addl	%ecx, %ebp
	movl	%ebp, 56(%esp)
	movl	44(%esp), %edx
	movl	96(%edx), %edx
	movl	%edx, 72(%esp)
	movl	44(%esp), %ebp
	addl	100(%ebp), %edx
	movl	%edx, 76(%esp)
	cmpl	%edx, 56(%esp)
	ja	.L242
.LVL276:
	.loc 1 441 0
	movl	64(%esp), %edx
	decl	%edx
	movl	%edx, 88(%esp)
	.loc 1 250 0
	leal	56(%ecx), %ebp
	movl	%ebp, 108(%esp)
	movl	44(%esp), %edx
	leal	(%edx,%ebp,2), %edx
	sall	$30, %edx
	shrl	$31, %edx
	movl	%edx, 36(%esp)
	movl	64(%esp), %ebp
	cmpl	%ebp, %edx
	jbe	.L85
	movl	%ebp, 36(%esp)
.L85:
	movl	%ecx, %edx
	movl	36(%esp), %ebp
	testl	%ebp, %ebp
	je	.L86
	movl	%eax, 48(%esp)
	movl	%edi, 92(%esp)
	movl	%esi, 96(%esp)
	movl	44(%esp), %edi
.LVL277:
	movl	88(%esp), %eax
.LVL278:
	movl	36(%esp), %ebp
.LVL279:
.L87:
	.loc 1 442 0
	movw	%bx, 112(%edi,%edx,2)
	incl	%edx
.LVL280:
	.loc 1 441 0
	decl	%eax
.LVL281:
	movl	%edx, %esi
	subl	%ecx, %esi
	cmpl	%esi, %ebp
	ja	.L87
	movl	92(%esp), %edi
	movl	96(%esp), %esi
	movl	%eax, 88(%esp)
	movl	48(%esp), %eax
.LVL282:
	movl	%ebp, 36(%esp)
.LVL283:
.L86:
	movl	64(%esp), %ecx
	subl	36(%esp), %ecx
	movl	%ecx, 64(%esp)
	shrl	%ecx
	movl	%ecx, 48(%esp)
	sall	%ecx
	movl	%ecx, 92(%esp)
	je	.L88
	movl	%ebx, %ecx
	sall	$16, %ecx
	movzwl	%bx, %ebp
	orl	%ecx, %ebp
	movl	%ebp, 96(%esp)
	.loc 1 250 0
	movl	36(%esp), %ebp
	addl	108(%esp), %ebp
	.loc 1 441 0
	movl	44(%esp), %ecx
	leal	(%ecx,%ebp,2), %ebp
	.loc 1 250 0
	xorl	%ecx, %ecx
	movl	%eax, 108(%esp)
	movl	96(%esp), %eax
.LVL284:
.L89:
	.loc 1 442 0
	movl	%eax, 0(%ebp,%ecx,4)
	incl	%ecx
	cmpl	%ecx, 48(%esp)
	ja	.L89
	movl	108(%esp), %eax
	movl	92(%esp), %ebp
	subl	%ebp, 88(%esp)
	addl	%ebp, %edx
	cmpl	%ebp, 64(%esp)
	je	.L90
.L88:
	.loc 1 250 0
	movl	88(%esp), %ecx
	leal	2(%ecx,%ecx), %ecx
	movl	%ecx, 48(%esp)
	xorl	%ecx, %ecx
	movl	44(%esp), %ebp
	leal	0(%ebp,%edx,2), %edx
	movl	48(%esp), %ebp
.L91:
	.loc 1 442 0
	movw	%bx, 112(%edx,%ecx)
	addl	$2, %ecx
	.loc 1 441 0
	cmpl	%ebp, %ecx
	jne	.L91
.L90:
	movl	56(%esp), %ecx
	movl	44(%esp), %edx
	movl	%ecx, 104(%edx)
	movl	%ecx, %ebx
.LVL285:
	jmp	.L209
.LVL286:
.L76:
	.loc 1 423 0 discriminator 1
	addl	$3, %ebp
	cmpl	%ebp, %esi
	jb	.L183
	jmp	.L79
	.p2align 2,,3
.L80:
	.loc 1 423 0 is_stmt 0 discriminator 2
	decl	%eax
.LVL287:
	movl	124(%esp), %ebx
	movzbl	(%ebx), %edx
	movl	%esi, %ecx
	sall	%cl, %edx
	addl	%edx, %edi
.LVL288:
	incl	%ebx
	movl	%ebx, 124(%esp)
	addl	$8, %esi
.LVL289:
	cmpl	%ebp, %esi
	jae	.L79
.L183:
	testl	%eax, %eax
	jne	.L80
	.loc 1 423 0 discriminator 1
	leal	124(%esp), %ecx
	movl	%ecx, 4(%esp)
	movl	168(%esp), %ebx
	movl	%ebx, (%esp)
	call	*164(%esp)
.LVL290:
	testl	%eax, %eax
	jne	.L80
	jmp	.L168
.L237:
	.loc 1 411 0 is_stmt 1 discriminator 1
	addl	$2, %ebp
	cmpl	%ebp, %esi
	jae	.L70
	movl	%esi, %ecx
	jmp	.L182
.LVL291:
	.p2align 2,,3
.L71:
	.loc 1 411 0 is_stmt 0 discriminator 2
	decl	%eax
.LVL292:
	movl	124(%esp), %ebx
	movzbl	(%ebx), %edx
	sall	%cl, %edx
	addl	%edx, %edi
.LVL293:
	incl	%ebx
	movl	%ebx, 124(%esp)
	addl	$8, %ecx
.LVL294:
	cmpl	%ebp, %ecx
	jae	.L243
.L182:
	testl	%eax, %eax
	jne	.L71
	.loc 1 411 0 discriminator 1
	leal	124(%esp), %eax
.LVL295:
	movl	%eax, 4(%esp)
	movl	168(%esp), %edx
	movl	%edx, (%esp)
	movl	%ecx, 40(%esp)
	call	*164(%esp)
.LVL296:
	testl	%eax, %eax
	movl	40(%esp), %ecx
	jne	.L71
	jmp	.L168
.LVL297:
.L243:
	movl	%ecx, %esi
.LVL298:
.L70:
	.loc 1 412 0 is_stmt 1
	movb	48(%esp), %cl
	shrl	%cl, %edi
.LVL299:
	subl	56(%esp), %esi
.LVL300:
	.loc 1 413 0
	movl	44(%esp), %ebx
	movl	104(%ebx), %ecx
	testl	%ecx, %ecx
	je	.L244
	.loc 1 418 0
	movzwl	110(%ebx,%ecx,2), %ebx
.LVL301:
	.loc 1 419 0
	movl	%edi, %edx
	andl	$3, %edx
	addl	$3, %edx
	movl	%edx, 64(%esp)
.LVL302:
	.loc 1 420 0
	shrl	$2, %edi
.LVL303:
	subl	$2, %esi
.LVL304:
	movl	%edx, %ebp
	jmp	.L75
.LVL305:
.L167:
	.loc 1 549 0
	movl	%ebp, 64(%esp)
	jmp	.L119
.LVL306:
.L79:
	.loc 1 424 0
	movb	48(%esp), %cl
	shrl	%cl, %edi
.LVL307:
	.loc 1 426 0
	movl	%edi, %edx
	andl	$7, %edx
	addl	$3, %edx
	movl	%edx, 64(%esp)
.LVL308:
	.loc 1 427 0
	shrl	$3, %edi
.LVL309:
	.loc 1 424 0
	subl	56(%esp), %esi
.LVL310:
	.loc 1 427 0
	subl	$3, %esi
.LVL311:
	movl	44(%esp), %ebx
	movl	104(%ebx), %ecx
	.loc 1 425 0
	xorl	%ebx, %ebx
	movl	%edx, %ebp
	jmp	.L75
.LVL312:
.L170:
	movl	%eax, %ebx
	.loc 1 573 0
	xorl	%edx, %edx
	jmp	.L217
.LVL313:
.L92:
	movl	%eax, %ebx
	.loc 1 447 0
	movl	44(%esp), %edx
	cmpl	$29, (%edx)
	je	.L162
	.loc 1 450 0
	cmpw	$0, 624(%edx)
	jne	.L95
	.loc 1 451 0
	movl	160(%esp), %ebp
	movl	$.LC5, 24(%ebp)
	.loc 1 452 0
	movl	$29, (%edx)
	.loc 1 453 0
	movl	$29, %eax
.LVL314:
	jmp	.L208
.LVL315:
.L172:
	.loc 1 250 0
	movl	%esi, %ebp
	movl	%ebx, %edi
	jmp	.L140
.LVL316:
.L244:
	movl	%eax, %ebx
	.loc 1 414 0
	movl	160(%esp), %ebp
	movl	$.LC4, 24(%ebp)
	.loc 1 415 0
	movl	44(%esp), %edx
	movl	$29, (%edx)
.LVL317:
.L162:
	.loc 1 447 0
	movl	$29, %eax
.LVL318:
	jmp	.L208
.LVL319:
.L242:
	movl	%eax, %ebx
.LVL320:
	.loc 1 437 0
	movl	160(%esp), %edx
	movl	$.LC4, 24(%edx)
	.loc 1 438 0
	movl	$29, 0(%ebp)
	.loc 1 439 0
	jmp	.L162
.LVL321:
.L95:
	.loc 1 459 0
	movl	68(%esp), %ebp
	movl	44(%esp), %edx
	movl	%ebp, 108(%edx)
	.loc 1 460 0
	movl	%ebp, 76(%edx)
	.loc 1 461 0
	movl	$9, 84(%edx)
	.loc 1 462 0
	movl	80(%esp), %edx
	movl	%edx, 20(%esp)
	movl	100(%esp), %ebp
	movl	%ebp, 16(%esp)
	movl	84(%esp), %edx
	movl	%edx, 12(%esp)
	movl	72(%esp), %ecx
	movl	%ecx, 8(%esp)
	movl	104(%esp), %ebp
	movl	%ebp, 4(%esp)
	movl	$1, (%esp)
	call	inflate_table
.LVL322:
	.loc 1 464 0
	testl	%eax, %eax
	je	.L96
	.loc 1 465 0
	movl	160(%esp), %edx
	movl	$.LC6, 24(%edx)
	.loc 1 466 0
	movl	44(%esp), %edx
	movl	$29, (%edx)
	.loc 1 467 0
	movl	$29, %eax
.LVL323:
	jmp	.L208
.LVL324:
.L241:
	movl	48(%esp), %ebx
.LVL325:
	jmp	.L219
.LVL326:
.L96:
	.loc 1 469 0
	movl	44(%esp), %edx
	movl	108(%edx), %eax
.LVL327:
	movl	%eax, 80(%edx)
	.loc 1 470 0
	movl	$6, 88(%edx)
	.loc 1 471 0
	movl	80(%esp), %ebp
	movl	%ebp, 20(%esp)
	movl	%edx, %eax
	addl	$88, %eax
	movl	%eax, 16(%esp)
	movl	84(%esp), %edx
	movl	%edx, 12(%esp)
	movl	44(%esp), %edx
	movl	100(%edx), %eax
	movl	%eax, 8(%esp)
	movl	96(%edx), %eax
	leal	112(%edx,%eax,2), %eax
	movl	%eax, 4(%esp)
	movl	$2, (%esp)
	call	inflate_table
.LVL328:
	.loc 1 473 0
	testl	%eax, %eax
	je	.L97
	.loc 1 474 0
	movl	160(%esp), %ebp
	movl	$.LC7, 24(%ebp)
	.loc 1 475 0
	movl	44(%esp), %edx
	movl	$29, (%edx)
	.loc 1 476 0
	movl	$29, %eax
.LVL329:
	jmp	.L208
	.cfi_endproc
.LFE27:
	.size	inflateBack, .-inflateBack
	.p2align 2,,3
	.globl	inflateBackEnd
	.type	inflateBackEnd, @function
inflateBackEnd:
.LFB28:
	.loc 1 633 0
	.cfi_startproc
.LVL330:
	pushl	%ebx
.LCFI25:
	.cfi_def_cfa_offset 8
	.cfi_offset 3, -8
	subl	$24, %esp
.LCFI26:
	.cfi_def_cfa_offset 32
	movl	32(%esp), %ebx
	.loc 1 634 0
	testl	%ebx, %ebx
	je	.L249
	.loc 1 634 0 is_stmt 0 discriminator 1
	movl	28(%ebx), %eax
	testl	%eax, %eax
	je	.L249
	movl	36(%ebx), %edx
	testl	%edx, %edx
	je	.L249
	.loc 1 636 0 is_stmt 1
	movl	%eax, 4(%esp)
	movl	40(%ebx), %eax
	movl	%eax, (%esp)
	call	*%edx
	.loc 1 637 0
	movl	$0, 28(%ebx)
	.loc 1 639 0
	xorl	%eax, %eax
.L246:
	.loc 1 640 0
	addl	$24, %esp
	.cfi_remember_state
.LCFI27:
	.cfi_def_cfa_offset 8
	popl	%ebx
.LCFI28:
	.cfi_def_cfa_offset 4
	.cfi_restore 3
	ret
	.p2align 2,,3
.L249:
.LCFI29:
	.cfi_restore_state
	.loc 1 635 0
	movl	$-2, %eax
	jmp	.L246
	.cfi_endproc
.LFE28:
	.size	inflateBackEnd, .-inflateBackEnd
	.section	.rodata
	.align 32
	.type	lenfix.2305, @object
	.size	lenfix.2305, 2048
lenfix.2305:
	.byte	96
	.byte	7
	.value	0
	.byte	0
	.byte	8
	.value	80
	.byte	0
	.byte	8
	.value	16
	.byte	20
	.byte	8
	.value	115
	.byte	18
	.byte	7
	.value	31
	.byte	0
	.byte	8
	.value	112
	.byte	0
	.byte	8
	.value	48
	.byte	0
	.byte	9
	.value	192
	.byte	16
	.byte	7
	.value	10
	.byte	0
	.byte	8
	.value	96
	.byte	0
	.byte	8
	.value	32
	.byte	0
	.byte	9
	.value	160
	.byte	0
	.byte	8
	.value	0
	.byte	0
	.byte	8
	.value	128
	.byte	0
	.byte	8
	.value	64
	.byte	0
	.byte	9
	.value	224
	.byte	16
	.byte	7
	.value	6
	.byte	0
	.byte	8
	.value	88
	.byte	0
	.byte	8
	.value	24
	.byte	0
	.byte	9
	.value	144
	.byte	19
	.byte	7
	.value	59
	.byte	0
	.byte	8
	.value	120
	.byte	0
	.byte	8
	.value	56
	.byte	0
	.byte	9
	.value	208
	.byte	17
	.byte	7
	.value	17
	.byte	0
	.byte	8
	.value	104
	.byte	0
	.byte	8
	.value	40
	.byte	0
	.byte	9
	.value	176
	.byte	0
	.byte	8
	.value	8
	.byte	0
	.byte	8
	.value	136
	.byte	0
	.byte	8
	.value	72
	.byte	0
	.byte	9
	.value	240
	.byte	16
	.byte	7
	.value	4
	.byte	0
	.byte	8
	.value	84
	.byte	0
	.byte	8
	.value	20
	.byte	21
	.byte	8
	.value	227
	.byte	19
	.byte	7
	.value	43
	.byte	0
	.byte	8
	.value	116
	.byte	0
	.byte	8
	.value	52
	.byte	0
	.byte	9
	.value	200
	.byte	17
	.byte	7
	.value	13
	.byte	0
	.byte	8
	.value	100
	.byte	0
	.byte	8
	.value	36
	.byte	0
	.byte	9
	.value	168
	.byte	0
	.byte	8
	.value	4
	.byte	0
	.byte	8
	.value	132
	.byte	0
	.byte	8
	.value	68
	.byte	0
	.byte	9
	.value	232
	.byte	16
	.byte	7
	.value	8
	.byte	0
	.byte	8
	.value	92
	.byte	0
	.byte	8
	.value	28
	.byte	0
	.byte	9
	.value	152
	.byte	20
	.byte	7
	.value	83
	.byte	0
	.byte	8
	.value	124
	.byte	0
	.byte	8
	.value	60
	.byte	0
	.byte	9
	.value	216
	.byte	18
	.byte	7
	.value	23
	.byte	0
	.byte	8
	.value	108
	.byte	0
	.byte	8
	.value	44
	.byte	0
	.byte	9
	.value	184
	.byte	0
	.byte	8
	.value	12
	.byte	0
	.byte	8
	.value	140
	.byte	0
	.byte	8
	.value	76
	.byte	0
	.byte	9
	.value	248
	.byte	16
	.byte	7
	.value	3
	.byte	0
	.byte	8
	.value	82
	.byte	0
	.byte	8
	.value	18
	.byte	21
	.byte	8
	.value	163
	.byte	19
	.byte	7
	.value	35
	.byte	0
	.byte	8
	.value	114
	.byte	0
	.byte	8
	.value	50
	.byte	0
	.byte	9
	.value	196
	.byte	17
	.byte	7
	.value	11
	.byte	0
	.byte	8
	.value	98
	.byte	0
	.byte	8
	.value	34
	.byte	0
	.byte	9
	.value	164
	.byte	0
	.byte	8
	.value	2
	.byte	0
	.byte	8
	.value	130
	.byte	0
	.byte	8
	.value	66
	.byte	0
	.byte	9
	.value	228
	.byte	16
	.byte	7
	.value	7
	.byte	0
	.byte	8
	.value	90
	.byte	0
	.byte	8
	.value	26
	.byte	0
	.byte	9
	.value	148
	.byte	20
	.byte	7
	.value	67
	.byte	0
	.byte	8
	.value	122
	.byte	0
	.byte	8
	.value	58
	.byte	0
	.byte	9
	.value	212
	.byte	18
	.byte	7
	.value	19
	.byte	0
	.byte	8
	.value	106
	.byte	0
	.byte	8
	.value	42
	.byte	0
	.byte	9
	.value	180
	.byte	0
	.byte	8
	.value	10
	.byte	0
	.byte	8
	.value	138
	.byte	0
	.byte	8
	.value	74
	.byte	0
	.byte	9
	.value	244
	.byte	16
	.byte	7
	.value	5
	.byte	0
	.byte	8
	.value	86
	.byte	0
	.byte	8
	.value	22
	.byte	64
	.byte	8
	.value	0
	.byte	19
	.byte	7
	.value	51
	.byte	0
	.byte	8
	.value	118
	.byte	0
	.byte	8
	.value	54
	.byte	0
	.byte	9
	.value	204
	.byte	17
	.byte	7
	.value	15
	.byte	0
	.byte	8
	.value	102
	.byte	0
	.byte	8
	.value	38
	.byte	0
	.byte	9
	.value	172
	.byte	0
	.byte	8
	.value	6
	.byte	0
	.byte	8
	.value	134
	.byte	0
	.byte	8
	.value	70
	.byte	0
	.byte	9
	.value	236
	.byte	16
	.byte	7
	.value	9
	.byte	0
	.byte	8
	.value	94
	.byte	0
	.byte	8
	.value	30
	.byte	0
	.byte	9
	.value	156
	.byte	20
	.byte	7
	.value	99
	.byte	0
	.byte	8
	.value	126
	.byte	0
	.byte	8
	.value	62
	.byte	0
	.byte	9
	.value	220
	.byte	18
	.byte	7
	.value	27
	.byte	0
	.byte	8
	.value	110
	.byte	0
	.byte	8
	.value	46
	.byte	0
	.byte	9
	.value	188
	.byte	0
	.byte	8
	.value	14
	.byte	0
	.byte	8
	.value	142
	.byte	0
	.byte	8
	.value	78
	.byte	0
	.byte	9
	.value	252
	.byte	96
	.byte	7
	.value	0
	.byte	0
	.byte	8
	.value	81
	.byte	0
	.byte	8
	.value	17
	.byte	21
	.byte	8
	.value	131
	.byte	18
	.byte	7
	.value	31
	.byte	0
	.byte	8
	.value	113
	.byte	0
	.byte	8
	.value	49
	.byte	0
	.byte	9
	.value	194
	.byte	16
	.byte	7
	.value	10
	.byte	0
	.byte	8
	.value	97
	.byte	0
	.byte	8
	.value	33
	.byte	0
	.byte	9
	.value	162
	.byte	0
	.byte	8
	.value	1
	.byte	0
	.byte	8
	.value	129
	.byte	0
	.byte	8
	.value	65
	.byte	0
	.byte	9
	.value	226
	.byte	16
	.byte	7
	.value	6
	.byte	0
	.byte	8
	.value	89
	.byte	0
	.byte	8
	.value	25
	.byte	0
	.byte	9
	.value	146
	.byte	19
	.byte	7
	.value	59
	.byte	0
	.byte	8
	.value	121
	.byte	0
	.byte	8
	.value	57
	.byte	0
	.byte	9
	.value	210
	.byte	17
	.byte	7
	.value	17
	.byte	0
	.byte	8
	.value	105
	.byte	0
	.byte	8
	.value	41
	.byte	0
	.byte	9
	.value	178
	.byte	0
	.byte	8
	.value	9
	.byte	0
	.byte	8
	.value	137
	.byte	0
	.byte	8
	.value	73
	.byte	0
	.byte	9
	.value	242
	.byte	16
	.byte	7
	.value	4
	.byte	0
	.byte	8
	.value	85
	.byte	0
	.byte	8
	.value	21
	.byte	16
	.byte	8
	.value	258
	.byte	19
	.byte	7
	.value	43
	.byte	0
	.byte	8
	.value	117
	.byte	0
	.byte	8
	.value	53
	.byte	0
	.byte	9
	.value	202
	.byte	17
	.byte	7
	.value	13
	.byte	0
	.byte	8
	.value	101
	.byte	0
	.byte	8
	.value	37
	.byte	0
	.byte	9
	.value	170
	.byte	0
	.byte	8
	.value	5
	.byte	0
	.byte	8
	.value	133
	.byte	0
	.byte	8
	.value	69
	.byte	0
	.byte	9
	.value	234
	.byte	16
	.byte	7
	.value	8
	.byte	0
	.byte	8
	.value	93
	.byte	0
	.byte	8
	.value	29
	.byte	0
	.byte	9
	.value	154
	.byte	20
	.byte	7
	.value	83
	.byte	0
	.byte	8
	.value	125
	.byte	0
	.byte	8
	.value	61
	.byte	0
	.byte	9
	.value	218
	.byte	18
	.byte	7
	.value	23
	.byte	0
	.byte	8
	.value	109
	.byte	0
	.byte	8
	.value	45
	.byte	0
	.byte	9
	.value	186
	.byte	0
	.byte	8
	.value	13
	.byte	0
	.byte	8
	.value	141
	.byte	0
	.byte	8
	.value	77
	.byte	0
	.byte	9
	.value	250
	.byte	16
	.byte	7
	.value	3
	.byte	0
	.byte	8
	.value	83
	.byte	0
	.byte	8
	.value	19
	.byte	21
	.byte	8
	.value	195
	.byte	19
	.byte	7
	.value	35
	.byte	0
	.byte	8
	.value	115
	.byte	0
	.byte	8
	.value	51
	.byte	0
	.byte	9
	.value	198
	.byte	17
	.byte	7
	.value	11
	.byte	0
	.byte	8
	.value	99
	.byte	0
	.byte	8
	.value	35
	.byte	0
	.byte	9
	.value	166
	.byte	0
	.byte	8
	.value	3
	.byte	0
	.byte	8
	.value	131
	.byte	0
	.byte	8
	.value	67
	.byte	0
	.byte	9
	.value	230
	.byte	16
	.byte	7
	.value	7
	.byte	0
	.byte	8
	.value	91
	.byte	0
	.byte	8
	.value	27
	.byte	0
	.byte	9
	.value	150
	.byte	20
	.byte	7
	.value	67
	.byte	0
	.byte	8
	.value	123
	.byte	0
	.byte	8
	.value	59
	.byte	0
	.byte	9
	.value	214
	.byte	18
	.byte	7
	.value	19
	.byte	0
	.byte	8
	.value	107
	.byte	0
	.byte	8
	.value	43
	.byte	0
	.byte	9
	.value	182
	.byte	0
	.byte	8
	.value	11
	.byte	0
	.byte	8
	.value	139
	.byte	0
	.byte	8
	.value	75
	.byte	0
	.byte	9
	.value	246
	.byte	16
	.byte	7
	.value	5
	.byte	0
	.byte	8
	.value	87
	.byte	0
	.byte	8
	.value	23
	.byte	64
	.byte	8
	.value	0
	.byte	19
	.byte	7
	.value	51
	.byte	0
	.byte	8
	.value	119
	.byte	0
	.byte	8
	.value	55
	.byte	0
	.byte	9
	.value	206
	.byte	17
	.byte	7
	.value	15
	.byte	0
	.byte	8
	.value	103
	.byte	0
	.byte	8
	.value	39
	.byte	0
	.byte	9
	.value	174
	.byte	0
	.byte	8
	.value	7
	.byte	0
	.byte	8
	.value	135
	.byte	0
	.byte	8
	.value	71
	.byte	0
	.byte	9
	.value	238
	.byte	16
	.byte	7
	.value	9
	.byte	0
	.byte	8
	.value	95
	.byte	0
	.byte	8
	.value	31
	.byte	0
	.byte	9
	.value	158
	.byte	20
	.byte	7
	.value	99
	.byte	0
	.byte	8
	.value	127
	.byte	0
	.byte	8
	.value	63
	.byte	0
	.byte	9
	.value	222
	.byte	18
	.byte	7
	.value	27
	.byte	0
	.byte	8
	.value	111
	.byte	0
	.byte	8
	.value	47
	.byte	0
	.byte	9
	.value	190
	.byte	0
	.byte	8
	.value	15
	.byte	0
	.byte	8
	.value	143
	.byte	0
	.byte	8
	.value	79
	.byte	0
	.byte	9
	.value	254
	.byte	96
	.byte	7
	.value	0
	.byte	0
	.byte	8
	.value	80
	.byte	0
	.byte	8
	.value	16
	.byte	20
	.byte	8
	.value	115
	.byte	18
	.byte	7
	.value	31
	.byte	0
	.byte	8
	.value	112
	.byte	0
	.byte	8
	.value	48
	.byte	0
	.byte	9
	.value	193
	.byte	16
	.byte	7
	.value	10
	.byte	0
	.byte	8
	.value	96
	.byte	0
	.byte	8
	.value	32
	.byte	0
	.byte	9
	.value	161
	.byte	0
	.byte	8
	.value	0
	.byte	0
	.byte	8
	.value	128
	.byte	0
	.byte	8
	.value	64
	.byte	0
	.byte	9
	.value	225
	.byte	16
	.byte	7
	.value	6
	.byte	0
	.byte	8
	.value	88
	.byte	0
	.byte	8
	.value	24
	.byte	0
	.byte	9
	.value	145
	.byte	19
	.byte	7
	.value	59
	.byte	0
	.byte	8
	.value	120
	.byte	0
	.byte	8
	.value	56
	.byte	0
	.byte	9
	.value	209
	.byte	17
	.byte	7
	.value	17
	.byte	0
	.byte	8
	.value	104
	.byte	0
	.byte	8
	.value	40
	.byte	0
	.byte	9
	.value	177
	.byte	0
	.byte	8
	.value	8
	.byte	0
	.byte	8
	.value	136
	.byte	0
	.byte	8
	.value	72
	.byte	0
	.byte	9
	.value	241
	.byte	16
	.byte	7
	.value	4
	.byte	0
	.byte	8
	.value	84
	.byte	0
	.byte	8
	.value	20
	.byte	21
	.byte	8
	.value	227
	.byte	19
	.byte	7
	.value	43
	.byte	0
	.byte	8
	.value	116
	.byte	0
	.byte	8
	.value	52
	.byte	0
	.byte	9
	.value	201
	.byte	17
	.byte	7
	.value	13
	.byte	0
	.byte	8
	.value	100
	.byte	0
	.byte	8
	.value	36
	.byte	0
	.byte	9
	.value	169
	.byte	0
	.byte	8
	.value	4
	.byte	0
	.byte	8
	.value	132
	.byte	0
	.byte	8
	.value	68
	.byte	0
	.byte	9
	.value	233
	.byte	16
	.byte	7
	.value	8
	.byte	0
	.byte	8
	.value	92
	.byte	0
	.byte	8
	.value	28
	.byte	0
	.byte	9
	.value	153
	.byte	20
	.byte	7
	.value	83
	.byte	0
	.byte	8
	.value	124
	.byte	0
	.byte	8
	.value	60
	.byte	0
	.byte	9
	.value	217
	.byte	18
	.byte	7
	.value	23
	.byte	0
	.byte	8
	.value	108
	.byte	0
	.byte	8
	.value	44
	.byte	0
	.byte	9
	.value	185
	.byte	0
	.byte	8
	.value	12
	.byte	0
	.byte	8
	.value	140
	.byte	0
	.byte	8
	.value	76
	.byte	0
	.byte	9
	.value	249
	.byte	16
	.byte	7
	.value	3
	.byte	0
	.byte	8
	.value	82
	.byte	0
	.byte	8
	.value	18
	.byte	21
	.byte	8
	.value	163
	.byte	19
	.byte	7
	.value	35
	.byte	0
	.byte	8
	.value	114
	.byte	0
	.byte	8
	.value	50
	.byte	0
	.byte	9
	.value	197
	.byte	17
	.byte	7
	.value	11
	.byte	0
	.byte	8
	.value	98
	.byte	0
	.byte	8
	.value	34
	.byte	0
	.byte	9
	.value	165
	.byte	0
	.byte	8
	.value	2
	.byte	0
	.byte	8
	.value	130
	.byte	0
	.byte	8
	.value	66
	.byte	0
	.byte	9
	.value	229
	.byte	16
	.byte	7
	.value	7
	.byte	0
	.byte	8
	.value	90
	.byte	0
	.byte	8
	.value	26
	.byte	0
	.byte	9
	.value	149
	.byte	20
	.byte	7
	.value	67
	.byte	0
	.byte	8
	.value	122
	.byte	0
	.byte	8
	.value	58
	.byte	0
	.byte	9
	.value	213
	.byte	18
	.byte	7
	.value	19
	.byte	0
	.byte	8
	.value	106
	.byte	0
	.byte	8
	.value	42
	.byte	0
	.byte	9
	.value	181
	.byte	0
	.byte	8
	.value	10
	.byte	0
	.byte	8
	.value	138
	.byte	0
	.byte	8
	.value	74
	.byte	0
	.byte	9
	.value	245
	.byte	16
	.byte	7
	.value	5
	.byte	0
	.byte	8
	.value	86
	.byte	0
	.byte	8
	.value	22
	.byte	64
	.byte	8
	.value	0
	.byte	19
	.byte	7
	.value	51
	.byte	0
	.byte	8
	.value	118
	.byte	0
	.byte	8
	.value	54
	.byte	0
	.byte	9
	.value	205
	.byte	17
	.byte	7
	.value	15
	.byte	0
	.byte	8
	.value	102
	.byte	0
	.byte	8
	.value	38
	.byte	0
	.byte	9
	.value	173
	.byte	0
	.byte	8
	.value	6
	.byte	0
	.byte	8
	.value	134
	.byte	0
	.byte	8
	.value	70
	.byte	0
	.byte	9
	.value	237
	.byte	16
	.byte	7
	.value	9
	.byte	0
	.byte	8
	.value	94
	.byte	0
	.byte	8
	.value	30
	.byte	0
	.byte	9
	.value	157
	.byte	20
	.byte	7
	.value	99
	.byte	0
	.byte	8
	.value	126
	.byte	0
	.byte	8
	.value	62
	.byte	0
	.byte	9
	.value	221
	.byte	18
	.byte	7
	.value	27
	.byte	0
	.byte	8
	.value	110
	.byte	0
	.byte	8
	.value	46
	.byte	0
	.byte	9
	.value	189
	.byte	0
	.byte	8
	.value	14
	.byte	0
	.byte	8
	.value	142
	.byte	0
	.byte	8
	.value	78
	.byte	0
	.byte	9
	.value	253
	.byte	96
	.byte	7
	.value	0
	.byte	0
	.byte	8
	.value	81
	.byte	0
	.byte	8
	.value	17
	.byte	21
	.byte	8
	.value	131
	.byte	18
	.byte	7
	.value	31
	.byte	0
	.byte	8
	.value	113
	.byte	0
	.byte	8
	.value	49
	.byte	0
	.byte	9
	.value	195
	.byte	16
	.byte	7
	.value	10
	.byte	0
	.byte	8
	.value	97
	.byte	0
	.byte	8
	.value	33
	.byte	0
	.byte	9
	.value	163
	.byte	0
	.byte	8
	.value	1
	.byte	0
	.byte	8
	.value	129
	.byte	0
	.byte	8
	.value	65
	.byte	0
	.byte	9
	.value	227
	.byte	16
	.byte	7
	.value	6
	.byte	0
	.byte	8
	.value	89
	.byte	0
	.byte	8
	.value	25
	.byte	0
	.byte	9
	.value	147
	.byte	19
	.byte	7
	.value	59
	.byte	0
	.byte	8
	.value	121
	.byte	0
	.byte	8
	.value	57
	.byte	0
	.byte	9
	.value	211
	.byte	17
	.byte	7
	.value	17
	.byte	0
	.byte	8
	.value	105
	.byte	0
	.byte	8
	.value	41
	.byte	0
	.byte	9
	.value	179
	.byte	0
	.byte	8
	.value	9
	.byte	0
	.byte	8
	.value	137
	.byte	0
	.byte	8
	.value	73
	.byte	0
	.byte	9
	.value	243
	.byte	16
	.byte	7
	.value	4
	.byte	0
	.byte	8
	.value	85
	.byte	0
	.byte	8
	.value	21
	.byte	16
	.byte	8
	.value	258
	.byte	19
	.byte	7
	.value	43
	.byte	0
	.byte	8
	.value	117
	.byte	0
	.byte	8
	.value	53
	.byte	0
	.byte	9
	.value	203
	.byte	17
	.byte	7
	.value	13
	.byte	0
	.byte	8
	.value	101
	.byte	0
	.byte	8
	.value	37
	.byte	0
	.byte	9
	.value	171
	.byte	0
	.byte	8
	.value	5
	.byte	0
	.byte	8
	.value	133
	.byte	0
	.byte	8
	.value	69
	.byte	0
	.byte	9
	.value	235
	.byte	16
	.byte	7
	.value	8
	.byte	0
	.byte	8
	.value	93
	.byte	0
	.byte	8
	.value	29
	.byte	0
	.byte	9
	.value	155
	.byte	20
	.byte	7
	.value	83
	.byte	0
	.byte	8
	.value	125
	.byte	0
	.byte	8
	.value	61
	.byte	0
	.byte	9
	.value	219
	.byte	18
	.byte	7
	.value	23
	.byte	0
	.byte	8
	.value	109
	.byte	0
	.byte	8
	.value	45
	.byte	0
	.byte	9
	.value	187
	.byte	0
	.byte	8
	.value	13
	.byte	0
	.byte	8
	.value	141
	.byte	0
	.byte	8
	.value	77
	.byte	0
	.byte	9
	.value	251
	.byte	16
	.byte	7
	.value	3
	.byte	0
	.byte	8
	.value	83
	.byte	0
	.byte	8
	.value	19
	.byte	21
	.byte	8
	.value	195
	.byte	19
	.byte	7
	.value	35
	.byte	0
	.byte	8
	.value	115
	.byte	0
	.byte	8
	.value	51
	.byte	0
	.byte	9
	.value	199
	.byte	17
	.byte	7
	.value	11
	.byte	0
	.byte	8
	.value	99
	.byte	0
	.byte	8
	.value	35
	.byte	0
	.byte	9
	.value	167
	.byte	0
	.byte	8
	.value	3
	.byte	0
	.byte	8
	.value	131
	.byte	0
	.byte	8
	.value	67
	.byte	0
	.byte	9
	.value	231
	.byte	16
	.byte	7
	.value	7
	.byte	0
	.byte	8
	.value	91
	.byte	0
	.byte	8
	.value	27
	.byte	0
	.byte	9
	.value	151
	.byte	20
	.byte	7
	.value	67
	.byte	0
	.byte	8
	.value	123
	.byte	0
	.byte	8
	.value	59
	.byte	0
	.byte	9
	.value	215
	.byte	18
	.byte	7
	.value	19
	.byte	0
	.byte	8
	.value	107
	.byte	0
	.byte	8
	.value	43
	.byte	0
	.byte	9
	.value	183
	.byte	0
	.byte	8
	.value	11
	.byte	0
	.byte	8
	.value	139
	.byte	0
	.byte	8
	.value	75
	.byte	0
	.byte	9
	.value	247
	.byte	16
	.byte	7
	.value	5
	.byte	0
	.byte	8
	.value	87
	.byte	0
	.byte	8
	.value	23
	.byte	64
	.byte	8
	.value	0
	.byte	19
	.byte	7
	.value	51
	.byte	0
	.byte	8
	.value	119
	.byte	0
	.byte	8
	.value	55
	.byte	0
	.byte	9
	.value	207
	.byte	17
	.byte	7
	.value	15
	.byte	0
	.byte	8
	.value	103
	.byte	0
	.byte	8
	.value	39
	.byte	0
	.byte	9
	.value	175
	.byte	0
	.byte	8
	.value	7
	.byte	0
	.byte	8
	.value	135
	.byte	0
	.byte	8
	.value	71
	.byte	0
	.byte	9
	.value	239
	.byte	16
	.byte	7
	.value	9
	.byte	0
	.byte	8
	.value	95
	.byte	0
	.byte	8
	.value	31
	.byte	0
	.byte	9
	.value	159
	.byte	20
	.byte	7
	.value	99
	.byte	0
	.byte	8
	.value	127
	.byte	0
	.byte	8
	.value	63
	.byte	0
	.byte	9
	.value	223
	.byte	18
	.byte	7
	.value	27
	.byte	0
	.byte	8
	.value	111
	.byte	0
	.byte	8
	.value	47
	.byte	0
	.byte	9
	.value	191
	.byte	0
	.byte	8
	.value	15
	.byte	0
	.byte	8
	.value	143
	.byte	0
	.byte	8
	.value	79
	.byte	0
	.byte	9
	.value	255
	.align 32
	.type	distfix.2306, @object
	.size	distfix.2306, 128
distfix.2306:
	.byte	16
	.byte	5
	.value	1
	.byte	23
	.byte	5
	.value	257
	.byte	19
	.byte	5
	.value	17
	.byte	27
	.byte	5
	.value	4097
	.byte	17
	.byte	5
	.value	5
	.byte	25
	.byte	5
	.value	1025
	.byte	21
	.byte	5
	.value	65
	.byte	29
	.byte	5
	.value	16385
	.byte	16
	.byte	5
	.value	3
	.byte	24
	.byte	5
	.value	513
	.byte	20
	.byte	5
	.value	33
	.byte	28
	.byte	5
	.value	8193
	.byte	18
	.byte	5
	.value	9
	.byte	26
	.byte	5
	.value	2049
	.byte	22
	.byte	5
	.value	129
	.byte	64
	.byte	5
	.value	0
	.byte	16
	.byte	5
	.value	2
	.byte	23
	.byte	5
	.value	385
	.byte	19
	.byte	5
	.value	25
	.byte	27
	.byte	5
	.value	6145
	.byte	17
	.byte	5
	.value	7
	.byte	25
	.byte	5
	.value	1537
	.byte	21
	.byte	5
	.value	97
	.byte	29
	.byte	5
	.value	24577
	.byte	16
	.byte	5
	.value	4
	.byte	24
	.byte	5
	.value	769
	.byte	20
	.byte	5
	.value	49
	.byte	28
	.byte	5
	.value	12289
	.byte	18
	.byte	5
	.value	13
	.byte	26
	.byte	5
	.value	3073
	.byte	22
	.byte	5
	.value	193
	.byte	64
	.byte	5
	.value	0
	.align 32
	.type	order.2327, @object
	.size	order.2327, 38
order.2327:
	.value	16
	.value	17
	.value	18
	.value	0
	.value	8
	.value	7
	.value	9
	.value	6
	.value	10
	.value	5
	.value	11
	.value	4
	.value	12
	.value	3
	.value	13
	.value	2
	.value	14
	.value	1
	.value	15
	.text
.Letext0:
	.file 2 "zconf.h"
	.file 3 "zlib.h"
	.file 4 "inftrees.h"
	.file 5 "inflate.h"
	.file 6 "inffixed.h"
	.file 7 "/home/user/workspace/embox/./src/include/../util/dlist_debug.h"
	.section	.note.GNU-stack,"",@progbits
