	.file	"trees.c"
	.text
.Ltext0:
	.p2align 2,,3
	.type	pqdownheap, @function
pqdownheap:
.LFB29:
	.file 1 "trees.c"
	.loc 1 457 0
	.cfi_startproc
.LVL0:
	pushl	%ebp
.LCFI0:
	.cfi_def_cfa_offset 8
	.cfi_offset 5, -8
	pushl	%edi
.LCFI1:
	.cfi_def_cfa_offset 12
	.cfi_offset 7, -12
	pushl	%esi
.LCFI2:
	.cfi_def_cfa_offset 16
	.cfi_offset 6, -16
	pushl	%ebx
.LCFI3:
	.cfi_def_cfa_offset 20
	.cfi_offset 3, -20
	subl	$28, %esp
.LCFI4:
	.cfi_def_cfa_offset 48
	movl	%edx, 12(%esp)
	.loc 1 458 0
	leal	724(%ecx), %edi
	movl	12(%eax,%edi,4), %edx
.LVL1:
	movl	%edx, 24(%esp)
.LVL2:
	.loc 1 459 0
	sall	%ecx
.LVL3:
	.loc 1 460 0
	movl	5200(%eax), %ebx
	movl	%ebx, 8(%esp)
	cmpl	%ebx, %ecx
	jg	.L2
.LVL4:
	movl	12(%esp), %ebp
	leal	0(%ebp,%edx,4), %ebp
	movl	%ebp, 20(%esp)
	movl	%edi, 4(%esp)
	jmp	.L6
.LVL5:
	.p2align 2,,3
.L14:
	.loc 1 462 0
	movl	2908(%eax,%ecx,4), %edx
	movl	12(%esp), %ebx
	movw	(%ebx,%edx,4), %si
	movl	%ecx, (%esp)
.L4:
.LVL6:
	.loc 1 467 0
	movl	20(%esp), %edi
	cmpw	%si, (%edi)
	movl	4(%esp), %edi
	jb	.L2
.L16:
	.loc 1 467 0 is_stmt 0 discriminator 1
	je	.L12
	.loc 1 470 0 is_stmt 1
	movl	%edx, 12(%eax,%edi,4)
.LVL7:
	.loc 1 473 0
	movl	(%esp), %ecx
	sall	%ecx
.LVL8:
	.loc 1 460 0
	cmpl	%ecx, 8(%esp)
	jl	.L13
.L8:
	movl	(%esp), %edx
	addl	$724, %edx
	movl	%edx, 4(%esp)
.LVL9:
.L6:
	.loc 1 462 0
	cmpl	%ecx, 8(%esp)
	jle	.L14
	.loc 1 463 0 discriminator 1
	leal	1(%ecx), %edi
	movl	%edi, (%esp)
	movl	2912(%eax,%ecx,4), %edx
	movl	12(%esp), %ebp
	movw	0(%ebp,%edx,4), %si
	movl	2908(%eax,%ecx,4), %ebx
	movl	%ebx, 16(%esp)
	movl	%ebx, %edi
	movw	0(%ebp,%ebx,4), %bx
	.loc 1 462 0 discriminator 1
	cmpw	%bx, %si
	jb	.L4
	.loc 1 463 0
	je	.L15
	movl	%ebx, %esi
	movl	16(%esp), %edx
	movl	%ecx, (%esp)
	.loc 1 467 0
	movl	20(%esp), %edi
	cmpw	%si, (%edi)
	movl	4(%esp), %edi
	jae	.L16
.LVL10:
	.p2align 2,,3
.L2:
	.loc 1 475 0
	movl	24(%esp), %ebp
	movl	%ebp, 12(%eax,%edi,4)
	.loc 1 476 0
	addl	$28, %esp
	.cfi_remember_state
.LCFI5:
	.cfi_def_cfa_offset 20
	popl	%ebx
.LCFI6:
	.cfi_def_cfa_offset 16
	.cfi_restore 3
	popl	%esi
.LCFI7:
	.cfi_def_cfa_offset 12
	.cfi_restore 6
	popl	%edi
.LCFI8:
	.cfi_def_cfa_offset 8
	.cfi_restore 7
	popl	%ebp
.LCFI9:
	.cfi_def_cfa_offset 4
	.cfi_restore 5
	ret
.LVL11:
	.p2align 2,,3
.L12:
.LCFI10:
	.cfi_restore_state
	.loc 1 467 0 discriminator 1
	movb	5208(%eax,%edx), %cl
	movl	24(%esp), %ebx
	cmpb	%cl, 5208(%eax,%ebx)
	jbe	.L2
	.loc 1 470 0
	movl	%edx, 12(%eax,%edi,4)
.LVL12:
	.loc 1 473 0
	movl	(%esp), %ecx
	sall	%ecx
.LVL13:
	.loc 1 460 0
	cmpl	%ecx, 8(%esp)
	jge	.L8
.L13:
	movl	(%esp), %ebx
	leal	724(%ebx), %edi
	.loc 1 475 0
	movl	24(%esp), %ebp
	movl	%ebp, 12(%eax,%edi,4)
	.loc 1 476 0
	addl	$28, %esp
	.cfi_remember_state
.LCFI11:
	.cfi_def_cfa_offset 20
.LVL14:
	popl	%ebx
	.cfi_restore 3
.LCFI12:
	.cfi_def_cfa_offset 16
	popl	%esi
	.cfi_restore 6
.LCFI13:
	.cfi_def_cfa_offset 12
	popl	%edi
	.cfi_restore 7
.LCFI14:
	.cfi_def_cfa_offset 8
	popl	%ebp
	.cfi_restore 5
.LCFI15:
	.cfi_def_cfa_offset 4
	ret
.LVL15:
	.p2align 2,,3
.L15:
.LCFI16:
	.cfi_restore_state
	.loc 1 463 0 discriminator 1
	movb	5208(%eax,%edi), %bl
	cmpb	%bl, 5208(%eax,%edx)
	jbe	.L4
	.loc 1 463 0 is_stmt 0
	movl	%edi, %edx
	movl	%ecx, (%esp)
	jmp	.L4
	.cfi_endproc
.LFE29:
	.size	pqdownheap, .-pqdownheap
	.p2align 2,,3
	.type	build_tree, @function
build_tree:
.LFB32:
	.loc 1 620 0 is_stmt 1
	.cfi_startproc
.LVL16:
	pushl	%ebp
.LCFI17:
	.cfi_def_cfa_offset 8
	.cfi_offset 5, -8
	pushl	%edi
.LCFI18:
	.cfi_def_cfa_offset 12
	.cfi_offset 7, -12
	pushl	%esi
.LCFI19:
	.cfi_def_cfa_offset 16
	.cfi_offset 6, -16
	pushl	%ebx
.LCFI20:
	.cfi_def_cfa_offset 20
	.cfi_offset 3, -20
	subl	$76, %esp
.LCFI21:
	.cfi_def_cfa_offset 96
	movl	%eax, %ebx
	movl	%edx, 16(%esp)
	.loc 1 621 0
	movl	(%edx), %esi
	movl	%esi, 8(%esp)
.LVL17:
	.loc 1 622 0
	movl	8(%edx), %eax
.LVL18:
	movl	(%eax), %ebp
.LVL19:
	.loc 1 623 0
	movl	12(%eax), %esi
.LVL20:
	.loc 1 632 0
	movl	$0, 5200(%ebx)
	movl	$573, 5204(%ebx)
.LVL21:
	.loc 1 634 0
	testl	%esi, %esi
	jle	.L59
	movl	$-1, 40(%esp)
	xorl	%eax, %eax
	movl	$-1, %ecx
	movl	8(%esp), %edx
.LVL22:
	jmp	.L21
.LVL23:
	.p2align 2,,3
.L87:
	.loc 1 636 0
	movl	5200(%ebx), %ecx
	leal	1(%ecx), %edi
	movl	%edi, 5200(%ebx)
.LVL24:
	movl	%eax, 2912(%ebx,%ecx,4)
	.loc 1 637 0
	movb	$0, 5208(%ebx,%eax)
	movl	%eax, %ecx
.LVL25:
	.loc 1 634 0
	incl	%eax
.LVL26:
	cmpl	%esi, %eax
	je	.L86
.LVL27:
.L21:
	.loc 1 635 0
	cmpw	$0, (%edx,%eax,4)
	jne	.L87
	.loc 1 639 0
	movw	$0, 2(%edx,%eax,4)
	.loc 1 634 0
	incl	%eax
.LVL28:
	cmpl	%esi, %eax
	jne	.L21
.L86:
	movl	%ecx, 40(%esp)
	movl	5200(%ebx), %ecx
.LVL29:
.L18:
	.loc 1 634 0 is_stmt 0 discriminator 1
	testl	%ebp, %ebp
	je	.L88
	movl	40(%esp), %edi
	jmp	.L78
.LVL30:
.L61:
	.loc 1 649 0 is_stmt 1
	xorl	%eax, %eax
	xorl	%edx, %edx
.L27:
	.loc 1 649 0 is_stmt 0 discriminator 3
	movl	%edx, 2908(%ebx,%ecx,4)
.LVL31:
	.loc 1 650 0 is_stmt 1 discriminator 3
	movl	8(%esp), %ecx
	movw	$1, (%ecx,%eax)
	.loc 1 651 0 discriminator 3
	movb	$0, 5208(%ebx,%edx)
	.loc 1 652 0 discriminator 3
	decl	5800(%ebx)
	movzwl	2(%ebp,%eax), %eax
	subl	%eax, 5804(%ebx)
	movl	5200(%ebx), %ecx
.LVL32:
.L78:
	.loc 1 648 0 discriminator 1
	cmpl	$1, %ecx
	jg	.L89
	.loc 1 649 0
	incl	%ecx
	movl	%ecx, 5200(%ebx)
	cmpl	$1, %edi
	jg	.L61
	.loc 1 649 0 is_stmt 0 discriminator 1
	incl	%edi
.LVL33:
	leal	0(,%edi,4), %eax
	movl	%edi, %edx
	jmp	.L27
.L89:
	movl	%edi, 40(%esp)
.L24:
	.loc 1 655 0 is_stmt 1
	movl	16(%esp), %edx
	movl	%edi, 4(%edx)
	.loc 1 660 0
	movl	%ecx, %edi
.LVL34:
	sarl	%edi
.LVL35:
	movl	8(%esp), %ebp
.LVL36:
	.p2align 2,,3
.L29:
	.loc 1 660 0 is_stmt 0 discriminator 2
	movl	%edi, %ecx
	movl	%ebp, %edx
	movl	%ebx, %eax
	call	pqdownheap
.LVL37:
	decl	%edi
.LVL38:
	jne	.L29
	.loc 1 660 0
	movl	5200(%ebx), %eax
	jmp	.L32
.LVL39:
	.p2align 2,,3
.L91:
	.loc 1 675 0 is_stmt 1
	leal	1(%edx), %eax
.L31:
	.loc 1 675 0 is_stmt 0 discriminator 2
	movb	%al, 5208(%ebx,%esi)
	.loc 1 677 0 is_stmt 1 discriminator 2
	movw	%si, 2(%ebp)
	movl	4(%esp), %edi
.LVL40:
	movw	%si, 2(%edi)
	.loc 1 685 0 discriminator 2
	movl	%esi, 2912(%ebx)
	incl	%esi
.LVL41:
	.loc 1 686 0 discriminator 2
	movl	$1, %ecx
	movl	8(%esp), %edx
	movl	%ebx, %eax
	call	pqdownheap
.LVL42:
	.loc 1 688 0 discriminator 2
	movl	5200(%ebx), %eax
	cmpl	$1, %eax
	jle	.L90
.LVL43:
.L32:
	.loc 1 667 0
	movl	2912(%ebx), %edi
.LVL44:
	movl	2908(%ebx,%eax,4), %edx
	movl	%edx, 2912(%ebx)
	decl	%eax
	movl	%eax, 5200(%ebx)
	movl	$1, %ecx
	movl	8(%esp), %edx
	movl	%ebx, %eax
	call	pqdownheap
.LVL45:
	.loc 1 668 0
	movl	2912(%ebx), %eax
.LVL46:
	.loc 1 670 0
	movl	5204(%ebx), %edx
	movl	%edi, 2904(%ebx,%edx,4)
	.loc 1 671 0
	leal	-2(%edx), %ecx
	movl	%ecx, 5204(%ebx)
	movl	%eax, 2900(%ebx,%edx,4)
	.loc 1 674 0
	movl	8(%esp), %ebp
	leal	0(%ebp,%edi,4), %ebp
	movl	%ebp, 4(%esp)
	movl	8(%esp), %edx
	leal	(%edx,%eax,4), %ebp
	movw	0(%ebp), %dx
	movl	4(%esp), %ecx
	addw	(%ecx), %dx
	movl	8(%esp), %ecx
	movw	%dx, (%ecx,%esi,4)
	.loc 1 675 0
	movb	5208(%ebx,%edi), %dl
	movb	5208(%ebx,%eax), %al
	cmpb	%al, %dl
	jae	.L91
	.loc 1 675 0 is_stmt 0 discriminator 1
	incl	%eax
	jmp	.L31
.LVL47:
.L90:
	.loc 1 690 0 is_stmt 1
	movl	5204(%ebx), %eax
	leal	-1(%eax), %edx
	movl	%edx, 5204(%ebx)
	movl	2912(%ebx), %edx
	movl	%edx, 2904(%ebx,%eax,4)
.LVL48:
.LBB37:
.LBB38:
	.loc 1 492 0
	movl	16(%esp), %ebp
	movl	0(%ebp), %ebp
	movl	%ebp, 12(%esp)
.LVL49:
	.loc 1 493 0
	movl	16(%esp), %eax
	movl	4(%eax), %eax
	movl	%eax, 4(%esp)
.LVL50:
	.loc 1 494 0
	movl	16(%esp), %ecx
	movl	8(%ecx), %eax
	movl	(%eax), %esi
.LVL51:
	movl	%esi, 32(%esp)
.LVL52:
	.loc 1 495 0
	movl	4(%eax), %edi
	movl	%edi, 36(%esp)
.LVL53:
	.loc 1 496 0
	movl	8(%eax), %ebp
	movl	%ebp, 28(%esp)
.LVL54:
	.loc 1 497 0
	movl	16(%eax), %edi
.LVL55:
	.loc 1 505 0
	movl	$0, 2876(%ebx)
.LVL56:
	movl	$0, 2880(%ebx)
	movl	$0, 2884(%ebx)
	movl	$0, 2888(%ebx)
	movl	$0, 2892(%ebx)
	movl	$0, 2896(%ebx)
	movl	$0, 2900(%ebx)
	movl	$0, 2904(%ebx)
	.loc 1 510 0
	movl	12(%esp), %eax
	movw	$0, 2(%eax,%edx,4)
	.loc 1 512 0
	movl	5204(%ebx), %eax
	leal	1(%eax), %edx
.LVL57:
	cmpl	$572, %edx
	jg	.L33
	testl	%esi, %esi
	.loc 1 617 0
	leal	2912(%ebx,%eax,4), %esi
	leal	5200(%ebx), %ebp
	.loc 1 512 0
	je	.L92
	.loc 1 617 0
	movl	%ebp, 24(%esp)
	.loc 1 503 0
	movl	$0, 20(%esp)
	movl	%edi, 16(%esp)
	jmp	.L44
.LVL58:
	.p2align 2,,3
.L94:
	.loc 1 523 0
	subl	28(%esp), %edx
.LVL59:
	movl	36(%esp), %ebp
	movl	0(%ebp,%edx,4), %ebp
	movl	%ebp, (%esp)
.LVL60:
.L43:
	.loc 1 525 0
	movzwl	(%ecx), %ecx
.LVL61:
	addl	(%esp), %eax
.LVL62:
	imull	%ecx, %eax
	addl	%eax, 5800(%ebx)
	.loc 1 526 0
	movl	32(%esp), %edx
	movzwl	2(%edx,%edi), %eax
	addl	(%esp), %eax
	imull	%ecx, %eax
	addl	%eax, 5804(%ebx)
.LVL63:
.L42:
	addl	$4, %esi
.LVL64:
	.loc 1 512 0
	cmpl	24(%esp), %esi
	je	.L93
.LVL65:
.L44:
	.loc 1 513 0
	movl	(%esi), %edx
.LVL66:
	.loc 1 514 0
	leal	0(,%edx,4), %edi
	movl	12(%esp), %ecx
	addl	%edi, %ecx
	movzwl	2(%ecx), %eax
	movl	12(%esp), %ebp
	movzwl	2(%ebp,%eax,4), %eax
	incl	%eax
.LVL67:
	.loc 1 515 0
	cmpl	%eax, 16(%esp)
	jge	.L41
.LVL68:
	incl	20(%esp)
.LVL69:
	movl	16(%esp), %eax
.LVL70:
.L41:
	.loc 1 516 0
	movw	%ax, 2(%ecx)
	.loc 1 519 0
	cmpl	%edx, 4(%esp)
	jl	.L42
	.loc 1 521 0
	incw	2876(%ebx,%eax,2)
.LVL71:
	.loc 1 523 0
	cmpl	%edx, 28(%esp)
	jle	.L94
	.loc 1 522 0
	movl	$0, (%esp)
	jmp	.L43
.LVL72:
.L33:
.LBE38:
.LBE37:
.LBB42:
.LBB43:
	.loc 1 589 0
	movl	2876(%ebx), %eax
	sall	%eax
.LVL73:
	movw	%ax, 46(%esp)
.LVL74:
	addw	2878(%ebx), %ax
.LVL75:
	sall	%eax
.LVL76:
	movw	%ax, 48(%esp)
.LVL77:
	addl	2880(%ebx), %eax
.LVL78:
	sall	%eax
.LVL79:
	movw	%ax, 50(%esp)
.LVL80:
	addw	2882(%ebx), %ax
.LVL81:
	sall	%eax
.LVL82:
	movw	%ax, 52(%esp)
.LVL83:
	addl	2884(%ebx), %eax
.LVL84:
	sall	%eax
.LVL85:
	movw	%ax, 54(%esp)
.LVL86:
	addw	2886(%ebx), %ax
.LVL87:
	sall	%eax
.LVL88:
	movw	%ax, 56(%esp)
.LVL89:
	addl	2888(%ebx), %eax
.LVL90:
	sall	%eax
.LVL91:
	movw	%ax, 58(%esp)
.LVL92:
	addw	2890(%ebx), %ax
.LVL93:
	sall	%eax
.LVL94:
	movw	%ax, 60(%esp)
.LVL95:
	addl	2892(%ebx), %eax
.LVL96:
	sall	%eax
.LVL97:
	movw	%ax, 62(%esp)
.LVL98:
	addw	2894(%ebx), %ax
.LVL99:
	sall	%eax
.LVL100:
	movw	%ax, 64(%esp)
.LVL101:
	addl	2896(%ebx), %eax
.LVL102:
	sall	%eax
.LVL103:
	movw	%ax, 66(%esp)
.LVL104:
	addw	2898(%ebx), %ax
.LVL105:
	sall	%eax
.LVL106:
	movw	%ax, 68(%esp)
.LVL107:
	addl	2900(%ebx), %eax
.LVL108:
	sall	%eax
.LVL109:
	movw	%ax, 70(%esp)
.LVL110:
	addw	2902(%ebx), %ax
.LVL111:
	sall	%eax
.LVL112:
	movw	%ax, 72(%esp)
.LVL113:
	addl	2904(%ebx), %eax
.LVL114:
	sall	%eax
.LVL115:
	movw	%ax, 74(%esp)
.LVL116:
	.loc 1 598 0
	cmpl	$-1, 40(%esp)
	je	.L17
	xorl	%esi, %esi
	movl	40(%esp), %ebp
	movl	8(%esp), %edi
.LVL117:
	.p2align 2,,3
.L47:
.LBB44:
	.loc 1 599 0
	movzwl	2(%edi,%esi,4), %edx
.LVL118:
	.loc 1 600 0
	testl	%edx, %edx
	je	.L57
	.loc 1 602 0
	movw	44(%esp,%edx,2), %ax
	movzwl	%ax, %ecx
	incl	%eax
	movw	%ax, 44(%esp,%edx,2)
.LVL119:
	.loc 1 617 0
	decl	%edx
.LVL120:
.LBE44:
	.loc 1 1158 0
	xorl	%ebx, %ebx
.LVL121:
	.p2align 2,,3
.L58:
.LBB47:
.LBB45:
.LBB46:
	.loc 1 1160 0
	movl	%ecx, %eax
	andl	$1, %eax
	orl	%ebx, %eax
.LVL122:
	.loc 1 1161 0
	shrl	%ecx
.LVL123:
	leal	(%eax,%eax), %ebx
.LVL124:
	decl	%edx
	.loc 1 1162 0
	cmpl	$-1, %edx
	jne	.L58
	.loc 1 1163 0
	shrl	%ebx
.LVL125:
.LBE46:
.LBE45:
	.loc 1 602 0
	movw	%bx, (%edi,%esi,4)
.LVL126:
.L57:
.LBE47:
	.loc 1 598 0
	incl	%esi
.LVL127:
	cmpl	%ebp, %esi
	jle	.L47
.LVL128:
.L17:
.LBE43:
.LBE42:
	.loc 1 699 0
	addl	$76, %esp
	.cfi_remember_state
.LCFI22:
	.cfi_def_cfa_offset 20
	popl	%ebx
.LCFI23:
	.cfi_def_cfa_offset 16
	.cfi_restore 3
	popl	%esi
.LCFI24:
	.cfi_def_cfa_offset 12
	.cfi_restore 6
	popl	%edi
.LCFI25:
	.cfi_def_cfa_offset 8
	.cfi_restore 7
	popl	%ebp
.LCFI26:
	.cfi_def_cfa_offset 4
	.cfi_restore 5
	ret
.LVL129:
.L93:
.LCFI27:
	.cfi_restore_state
	movl	16(%esp), %edi
.LBB49:
.LBB39:
	.loc 1 512 0
	movl	$573, %eax
.LVL130:
.L45:
	.loc 1 528 0
	movl	20(%esp), %edx
	testl	%edx, %edx
	je	.L33
.LBE39:
.LBE49:
.LBB50:
.LBB48:
	.loc 1 598 0
	leal	-1(%edi), %ecx
	movl	%ecx, 16(%esp)
	leal	1431(%edi), %ebp
	leal	1432(%edi), %esi
	movl	%edi, 24(%esp)
	movl	20(%esp), %edi
.LVL131:
.L51:
.LBE48:
.LBE50:
.LBB51:
.LBB40:
	.loc 1 536 0
	movw	12(%ebx,%ebp,2), %cx
	movl	16(%esp), %edx
	testw	%cx, %cx
	jne	.L49
.LVL132:
	.p2align 2,,3
.L50:
	decl	%edx
.LVL133:
	movw	2876(%ebx,%edx,2), %cx
	testw	%cx, %cx
	je	.L50
.L49:
	.loc 1 537 0
	decl	%ecx
	movw	%cx, 2876(%ebx,%edx,2)
	.loc 1 538 0
	addw	$2, 2878(%ebx,%edx,2)
	.loc 1 539 0
	decw	12(%ebx,%esi,2)
	.loc 1 543 0
	subl	$2, %edi
.LVL134:
	.loc 1 544 0
	testl	%edi, %edi
	jg	.L51
	movl	24(%esp), %edi
.LVL135:
	.loc 1 551 0
	testl	%edi, %edi
	je	.L33
.LVL136:
	.p2align 2,,3
.L80:
	.loc 1 552 0
	movzwl	2876(%ebx,%edi,2), %edx
	.p2align 2,,3
.L85:
.LVL137:
	.loc 1 553 0
	testl	%edx, %edx
	je	.L52
.L95:
	.loc 1 554 0
	decl	%eax
.LVL138:
	movl	2908(%ebx,%eax,4), %ecx
.LVL139:
	.loc 1 555 0
	cmpl	%ecx, 4(%esp)
	jl	.L85
	.loc 1 556 0
	movl	12(%esp), %esi
	leal	(%esi,%ecx,4), %ecx
	movzwl	2(%ecx), %esi
	cmpl	%esi, %edi
	je	.L54
	.loc 1 558 0
	movl	%edi, %ebp
	subl	%esi, %ebp
	movl	%ebp, %esi
	.loc 1 559 0
	movzwl	(%ecx), %ebp
	imull	%ebp, %esi
	.loc 1 558 0
	addl	%esi, 5800(%ebx)
	.loc 1 560 0
	movw	%di, 2(%ecx)
.L54:
	.loc 1 562 0
	decl	%edx
.LVL140:
	.loc 1 553 0
	testl	%edx, %edx
	jne	.L95
.LVL141:
.L52:
	.loc 1 551 0
	movl	16(%esp), %edi
.LVL142:
	testl	%edi, %edi
	je	.L33
	movl	%edi, %edx
.LVL143:
	decl	%edx
	movl	%edx, 16(%esp)
	jmp	.L80
.LVL144:
.L88:
	movl	40(%esp), %edx
	jmp	.L77
.LVL145:
.L60:
.LBE40:
.LBE51:
	.loc 1 649 0
	xorl	%ecx, %ecx
	xorl	%eax, %eax
.L25:
	movl	%eax, 2908(%ebx,%edi,4)
.LVL146:
	.loc 1 650 0
	movl	8(%esp), %edi
	movw	$1, (%edi,%ecx)
	.loc 1 651 0
	movb	$0, 5208(%ebx,%eax)
	.loc 1 652 0
	decl	5800(%ebx)
	movl	5200(%ebx), %ecx
.LVL147:
.L77:
	.loc 1 648 0
	cmpl	$1, %ecx
	jg	.L82
	.loc 1 649 0
	leal	1(%ecx), %edi
	movl	%edi, 5200(%ebx)
	cmpl	$1, %edx
	jg	.L60
	leal	1(%edx), %eax
.LVL148:
	leal	0(,%eax,4), %ecx
	movl	%eax, %edx
	jmp	.L25
.LVL149:
.L82:
	movl	%edx, 40(%esp)
	movl	%edx, %edi
	jmp	.L24
.LVL150:
.L92:
	.loc 1 503 0
	movl	$0, 20(%esp)
	movl	%edi, 32(%esp)
	movl	%ebp, 16(%esp)
	movl	12(%esp), %ebp
	jmp	.L39
.LVL151:
	.p2align 2,,3
.L97:
.LBB52:
.LBB41:
	.loc 1 522 0
	movl	$0, 24(%esp)
.LVL152:
.L38:
	.loc 1 525 0
	addl	24(%esp), %eax
.LVL153:
	movzwl	(%ecx), %edx
	imull	%edx, %eax
	addl	%eax, 5800(%ebx)
.LVL154:
.L36:
	.loc 1 523 0
	addl	$4, %esi
.LVL155:
	.loc 1 512 0
	cmpl	16(%esp), %esi
	je	.L96
.LVL156:
.L39:
	.loc 1 513 0
	movl	(%esi), %edx
.LVL157:
	.loc 1 514 0
	leal	0(%ebp,%edx,4), %ecx
	movzwl	2(%ecx), %eax
	movzwl	2(%ebp,%eax,4), %eax
	incl	%eax
.LVL158:
	.loc 1 515 0
	cmpl	%eax, 32(%esp)
	jge	.L35
.LVL159:
	incl	20(%esp)
.LVL160:
	movl	32(%esp), %eax
.LVL161:
.L35:
	.loc 1 516 0
	movw	%ax, 2(%ecx)
	.loc 1 519 0
	cmpl	%edx, 4(%esp)
	jl	.L36
	.loc 1 521 0
	incw	2876(%ebx,%eax,2)
.LVL162:
	.loc 1 523 0
	cmpl	%edx, 28(%esp)
	jg	.L97
	subl	28(%esp), %edx
	movl	36(%esp), %edi
	movl	(%edi,%edx,4), %edi
	movl	%edi, 24(%esp)
.LVL163:
	jmp	.L38
.LVL164:
.L96:
	movl	32(%esp), %edi
	.loc 1 512 0
	movl	$573, %eax
	jmp	.L45
.LVL165:
.L59:
.LBE41:
.LBE52:
	.loc 1 634 0
	xorl	%ecx, %ecx
	.loc 1 625 0
	movl	$-1, 40(%esp)
	jmp	.L18
	.cfi_endproc
.LFE32:
	.size	build_tree, .-build_tree
	.p2align 2,,3
	.type	scan_tree, @function
scan_tree:
.LFB33:
	.loc 1 709 0
	.cfi_startproc
.LVL166:
	pushl	%ebp
.LCFI28:
	.cfi_def_cfa_offset 8
	.cfi_offset 5, -8
	pushl	%edi
.LCFI29:
	.cfi_def_cfa_offset 12
	.cfi_offset 7, -12
	pushl	%esi
.LCFI30:
	.cfi_def_cfa_offset 16
	.cfi_offset 6, -16
	pushl	%ebx
.LCFI31:
	.cfi_def_cfa_offset 20
	.cfi_offset 3, -20
	subl	$16, %esp
.LCFI32:
	.cfi_def_cfa_offset 36
	movl	%edx, 4(%esp)
	movl	%ecx, 8(%esp)
.LVL167:
	.loc 1 713 0
	movzwl	2(%edx), %ecx
.LVL168:
	.loc 1 716 0
	cmpl	$1, %ecx
	sbbl	%ebp, %ebp
	addl	$4, %ebp
	cmpl	$1, %ecx
	sbbl	%edi, %edi
	andl	$131, %edi
	addl	$7, %edi
.LVL169:
	.loc 1 719 0
	movl	8(%esp), %ebx
	movw	$-1, 6(%edx,%ebx,4)
.LVL170:
	.loc 1 721 0
	testl	%ebx, %ebx
	js	.L98
	xorl	%edx, %edx
.LVL171:
	movl	$-1, 12(%esp)
	xorl	%ebx, %ebx
	movl	%ebp, (%esp)
	jmp	.L108
.LVL172:
	.p2align 2,,3
.L114:
	.loc 1 726 0
	addw	%dx, 2684(%eax,%ecx,4)
.L104:
.LVL173:
	.loc 1 736 0
	testl	%esi, %esi
	je	.L110
.L115:
	.loc 1 738 0
	cmpl	%esi, %ecx
	je	.L113
	movl	%ecx, 12(%esp)
	.loc 1 741 0
	movl	$4, (%esp)
	movl	$7, %edi
.LVL174:
	.loc 1 735 0
	xorl	%edx, %edx
.LVL175:
.L102:
	.loc 1 721 0
	incl	%ebx
.LVL176:
	cmpl	%ebx, 8(%esp)
	jl	.L98
.L112:
	.loc 1 722 0
	movl	%esi, %ecx
.LVL177:
.L108:
	movl	4(%esp), %ebp
	movzwl	6(%ebp,%ebx,4), %esi
.LVL178:
	.loc 1 723 0
	incl	%edx
.LVL179:
	cmpl	%edi, %edx
	jge	.L101
	.loc 1 723 0 is_stmt 0 discriminator 1
	cmpl	%esi, %ecx
	je	.L102
.L101:
	.loc 1 725 0 is_stmt 1
	cmpl	(%esp), %edx
	jl	.L114
	.loc 1 727 0
	testl	%ecx, %ecx
	je	.L105
	.loc 1 728 0
	cmpl	%ecx, 12(%esp)
	je	.L106
	.loc 1 728 0 is_stmt 0 discriminator 1
	incw	2684(%eax,%ecx,4)
.L106:
	.loc 1 729 0 is_stmt 1
	incw	2748(%eax)
.LVL180:
	.loc 1 736 0
	testl	%esi, %esi
	jne	.L115
.L110:
	movl	%ecx, 12(%esp)
	.loc 1 737 0
	movl	$3, (%esp)
	movl	$138, %edi
.LVL181:
	.loc 1 735 0
	xorl	%edx, %edx
.LVL182:
	.loc 1 721 0
	incl	%ebx
.LVL183:
	cmpl	%ebx, 8(%esp)
	jge	.L112
.LVL184:
.L98:
	.loc 1 744 0
	addl	$16, %esp
	.cfi_remember_state
.LCFI33:
	.cfi_def_cfa_offset 20
	popl	%ebx
.LCFI34:
	.cfi_def_cfa_offset 16
	.cfi_restore 3
	popl	%esi
.LCFI35:
	.cfi_def_cfa_offset 12
	.cfi_restore 6
	popl	%edi
.LCFI36:
	.cfi_def_cfa_offset 8
	.cfi_restore 7
.LVL185:
	popl	%ebp
.LCFI37:
	.cfi_def_cfa_offset 4
	.cfi_restore 5
	ret
.LVL186:
	.p2align 2,,3
.L105:
.LCFI38:
	.cfi_restore_state
	.loc 1 730 0
	cmpl	$10, %edx
	jg	.L107
	.loc 1 731 0
	incw	2752(%eax)
	jmp	.L104
.LVL187:
	.p2align 2,,3
.L113:
	.loc 1 738 0
	movl	%esi, 12(%esp)
	.loc 1 739 0
	movl	$3, (%esp)
	movl	$6, %edi
.LVL188:
	.loc 1 735 0
	xorl	%edx, %edx
	jmp	.L102
.LVL189:
	.p2align 2,,3
.L107:
	.loc 1 733 0
	incw	2756(%eax)
	jmp	.L104
	.cfi_endproc
.LFE33:
	.size	scan_tree, .-scan_tree
	.p2align 2,,3
	.type	send_tree, @function
send_tree:
.LFB34:
	.loc 1 754 0
	.cfi_startproc
.LVL190:
	pushl	%ebp
.LCFI39:
	.cfi_def_cfa_offset 8
	.cfi_offset 5, -8
	pushl	%edi
.LCFI40:
	.cfi_def_cfa_offset 12
	.cfi_offset 7, -12
	pushl	%esi
.LCFI41:
	.cfi_def_cfa_offset 16
	.cfi_offset 6, -16
	pushl	%ebx
.LCFI42:
	.cfi_def_cfa_offset 20
	.cfi_offset 3, -20
	subl	$24, %esp
.LCFI43:
	.cfi_def_cfa_offset 44
	movl	%edx, 16(%esp)
	movl	%ecx, 20(%esp)
.LVL191:
	.loc 1 758 0
	movzwl	2(%edx), %edx
.LVL192:
	movl	%edx, 4(%esp)
.LVL193:
	.loc 1 761 0
	cmpl	$1, %edx
	sbbl	%ebx, %ebx
	addl	$4, %ebx
	cmpl	$1, %edx
	sbbl	%ecx, %ecx
.LVL194:
	andl	$131, %ecx
	addl	$7, %ecx
.LVL195:
	.loc 1 766 0
	movl	20(%esp), %esi
	testl	%esi, %esi
	js	.L116
	xorl	%edx, %edx
.LVL196:
	movl	$-1, %esi
	movl	$0, 8(%esp)
.LVL197:
	.p2align 2,,3
.L140:
	.loc 1 767 0
	movl	8(%esp), %ebp
	movl	16(%esp), %edi
	movzwl	6(%edi,%ebp,4), %ebp
	movl	%ebp, 12(%esp)
.LVL198:
	.loc 1 768 0
	leal	1(%edx), %ebp
.LVL199:
	cmpl	%ecx, %ebp
	jge	.L119
	.loc 1 768 0 is_stmt 0 discriminator 1
	movl	12(%esp), %edi
	cmpl	%edi, 4(%esp)
	je	.L142
.L119:
	.loc 1 770 0 is_stmt 1
	cmpl	%ebx, %ebp
	jge	.L121
	movl	5820(%eax), %ecx
.LVL200:
	movl	5816(%eax), %ebx
.LVL201:
	movl	4(%esp), %edx
	leal	668(%edx), %esi
	jmp	.L124
.LVL202:
	.p2align 2,,3
.L147:
.LBB53:
.LBB54:
	.loc 1 771 0 discriminator 1
	movl	%edi, (%esp)
.LVL203:
	sall	%cl, %edi
.LVL204:
	orl	%edi, %ebx
	movw	%bx, 5816(%eax)
	movl	20(%eax), %edi
	movl	8(%eax), %ecx
	movb	%bl, (%ecx,%edi)
	movl	8(%eax), %ecx
	movzbl	5817(%eax), %ebx
	movb	%bl, 1(%ecx,%edi)
	addl	$2, %edi
	movl	%edi, 20(%eax)
	movl	5820(%eax), %edi
	movl	$16, %ecx
	subl	%edi, %ecx
	movl	(%esp), %ebx
	sarl	%cl, %ebx
	movl	%ebx, %ecx
	movw	%cx, 5816(%eax)
	leal	-16(%edx,%edi), %ecx
	movl	%ecx, 5820(%eax)
.LVL205:
.LBE54:
.LBE53:
	decl	%ebp
.LVL206:
	je	.L125
.LVL207:
.L124:
.LBB56:
	movzwl	14(%eax,%esi,4), %edx
.LVL208:
	movl	$16, %edi
	subl	%edx, %edi
	cmpl	%ecx, %edi
.LBB55:
	movzwl	12(%eax,%esi,4), %edi
.LBE55:
	jl	.L147
	.loc 1 771 0 is_stmt 0 discriminator 2
	sall	%cl, %edi
	orl	%edi, %ebx
	movw	%bx, 5816(%eax)
	addl	%edx, %ecx
	movl	%ecx, 5820(%eax)
.LVL209:
.LBE56:
	decl	%ebp
.LVL210:
	jne	.L124
.LVL211:
.L125:
	.loc 1 787 0 is_stmt 1
	movl	12(%esp), %ecx
	testl	%ecx, %ecx
	je	.L143
.L150:
	.loc 1 789 0
	movl	12(%esp), %ebp
	cmpl	%ebp, 4(%esp)
	je	.L148
	movl	4(%esp), %esi
	.loc 1 792 0
	movl	$4, %ebx
	movl	$7, %ecx
	.loc 1 786 0
	xorl	%edx, %edx
.LVL212:
.L120:
	.loc 1 766 0
	incl	8(%esp)
.LVL213:
	movl	8(%esp), %edi
	cmpl	%edi, 20(%esp)
	jl	.L116
.LVL214:
.L145:
	.loc 1 767 0
	movl	12(%esp), %edi
.LVL215:
	movl	%edi, 4(%esp)
	jmp	.L140
.LVL216:
	.p2align 2,,3
.L121:
	.loc 1 773 0
	movl	4(%esp), %ebx
.LVL217:
	testl	%ebx, %ebx
	je	.L126
	.loc 1 774 0
	cmpl	4(%esp), %esi
	je	.L149
.LBB57:
	.loc 1 775 0
	movl	4(%esp), %ebx
	addl	$668, %ebx
	movzwl	14(%eax,%ebx,4), %edi
.LVL218:
	movl	5820(%eax), %ecx
.LVL219:
	movl	$16, %esi
	subl	%edi, %esi
	cmpl	%esi, %ecx
	jle	.L129
.LBB58:
	.loc 1 775 0 is_stmt 0 discriminator 1
	movzwl	12(%eax,%ebx,4), %ebp
.LVL220:
	movl	%ebp, %esi
	sall	%cl, %esi
	movl	5816(%eax), %ecx
	orl	%esi, %ecx
	movw	%cx, 5816(%eax)
	movl	20(%eax), %esi
	movl	8(%eax), %ebx
	movb	%cl, (%ebx,%esi)
	movl	8(%eax), %ecx
	movzbl	5817(%eax), %ebx
	movb	%bl, 1(%ecx,%esi)
	addl	$2, %esi
	movl	%esi, 20(%eax)
	movl	5820(%eax), %esi
	movl	$16, %ecx
	subl	%esi, %ecx
	sarl	%cl, %ebp
.LVL221:
	movl	%ebp, %ebx
	movw	%bp, 5816(%eax)
	leal	-16(%edi,%esi), %ecx
	movl	%ecx, 5820(%eax)
.LVL222:
.L128:
.LBE58:
.LBE57:
.LBB59:
	.loc 1 778 0 is_stmt 1
	movzwl	2750(%eax), %edi
.LVL223:
	movl	$16, %esi
	subl	%edi, %esi
	cmpl	%ecx, %esi
	jge	.L130
.LBB60:
	.loc 1 778 0 is_stmt 0 discriminator 1
	movzwl	2748(%eax), %ebp
.LVL224:
	movl	%ebp, %esi
	sall	%cl, %esi
	orl	%esi, %ebx
	movw	%bx, 5816(%eax)
	movl	20(%eax), %esi
	movl	8(%eax), %ecx
	movb	%bl, (%ecx,%esi)
	movl	8(%eax), %ecx
	movzbl	5817(%eax), %ebx
	movb	%bl, 1(%ecx,%esi)
	addl	$2, %esi
	movl	%esi, 20(%eax)
	movl	5820(%eax), %esi
	movl	$16, %ecx
	subl	%esi, %ecx
	sarl	%cl, %ebp
.LVL225:
	movl	%ebp, %ebx
	movw	%bp, 5816(%eax)
	leal	-16(%edi,%esi), %ecx
	movl	%ecx, 5820(%eax)
.L131:
.LVL226:
.LBE60:
.LBE59:
.LBB61:
.LBB62:
	subl	$3, %edx
.LVL227:
.LBE62:
	cmpl	$14, %ecx
	jle	.L132
.LVL228:
.LBB63:
	movzwl	%dx, %edi
.LVL229:
	movl	%edi, %ebp
	sall	%cl, %ebp
	orl	%ebp, %ebx
	movw	%bx, 5816(%eax)
	movl	20(%eax), %edx
.LVL230:
	movl	8(%eax), %ecx
	movb	%bl, (%ecx,%edx)
	movl	8(%eax), %ecx
	movzbl	5817(%eax), %ebx
	movb	%bl, 1(%ecx,%edx)
	addl	$2, %edx
	movl	%edx, 20(%eax)
	movl	5820(%eax), %ebx
	movl	$16, %ecx
	subl	%ebx, %ecx
	sarl	%cl, %edi
	movw	%di, 5816(%eax)
	subl	$14, %ebx
	movl	%ebx, 5820(%eax)
.LVL231:
.LBE63:
.LBE61:
	.loc 1 787 0 is_stmt 1 discriminator 1
	movl	12(%esp), %ecx
	testl	%ecx, %ecx
	jne	.L150
.LVL232:
	.p2align 2,,3
.L143:
	.loc 1 787 0 is_stmt 0
	movl	4(%esp), %esi
	.loc 1 788 0 is_stmt 1
	movl	$3, %ebx
	movl	$138, %ecx
	.loc 1 786 0
	xorl	%edx, %edx
.LVL233:
	.loc 1 766 0
	incl	8(%esp)
.LVL234:
	movl	8(%esp), %edi
	cmpl	%edi, 20(%esp)
	jge	.L145
.LVL235:
.L116:
	.loc 1 795 0
	addl	$24, %esp
	.cfi_remember_state
.LCFI44:
	.cfi_def_cfa_offset 20
	popl	%ebx
.LCFI45:
	.cfi_def_cfa_offset 16
	.cfi_restore 3
.LVL236:
	popl	%esi
.LCFI46:
	.cfi_def_cfa_offset 12
	.cfi_restore 6
	popl	%edi
.LCFI47:
	.cfi_def_cfa_offset 8
	.cfi_restore 7
	popl	%ebp
.LCFI48:
	.cfi_def_cfa_offset 4
	.cfi_restore 5
	ret
.LVL237:
	.p2align 2,,3
.L126:
.LCFI49:
	.cfi_restore_state
	.loc 1 780 0
	cmpl	$10, %ebp
	jg	.L133
.LBB64:
	.loc 1 781 0
	movzwl	2754(%eax), %edi
.LVL238:
	movl	5820(%eax), %ecx
.LVL239:
	movl	$16, %ebx
	subl	%edi, %ebx
	cmpl	%ebx, %ecx
.LBB65:
	movzwl	2752(%eax), %ebx
.LBE65:
	jle	.L134
.LBB66:
	.loc 1 781 0 is_stmt 0 discriminator 1
	movl	%ebx, (%esp)
.LVL240:
	sall	%cl, %ebx
.LVL241:
	orl	5816(%eax), %ebx
	movw	%bx, 5816(%eax)
	movl	20(%eax), %esi
	movl	8(%eax), %ecx
	movb	%bl, (%ecx,%esi)
	movl	8(%eax), %ecx
	movzbl	5817(%eax), %ebx
	movb	%bl, 1(%ecx,%esi)
	addl	$2, %esi
	movl	%esi, 20(%eax)
	movl	5820(%eax), %esi
	movl	$16, %ecx
	subl	%esi, %ecx
	movl	(%esp), %ebx
	sarl	%cl, %ebx
	movl	%ebx, %ecx
	movw	%cx, 5816(%eax)
	leal	-16(%edi,%esi), %ecx
	movl	%ecx, 5820(%eax)
.LVL242:
.LBE66:
.LBE64:
.LBB67:
	cmpl	$13, %ecx
	jle	.L136
.LVL243:
.L151:
.LBB68:
	subl	$2, %edx
.LVL244:
	movzwl	%dx, %esi
	movl	%esi, %edi
.LVL245:
	sall	%cl, %edi
	orl	%edi, %ebx
	movw	%bx, 5816(%eax)
	movl	20(%eax), %edx
	movl	8(%eax), %ecx
	movb	%bl, (%ecx,%edx)
	movl	8(%eax), %ecx
	movzbl	5817(%eax), %ebx
	movb	%bl, 1(%ecx,%edx)
	addl	$2, %edx
	movl	%edx, 20(%eax)
	movl	5820(%eax), %ebx
	movl	$16, %ecx
	subl	%ebx, %ecx
	sarl	%cl, %esi
	movw	%si, 5816(%eax)
	subl	$13, %ebx
	movl	%ebx, 5820(%eax)
	jmp	.L125
.LVL246:
	.p2align 2,,3
.L142:
.LBE68:
.LBE67:
	.loc 1 768 0 is_stmt 1
	movl	%ebp, %edx
	jmp	.L120
.LVL247:
	.p2align 2,,3
.L148:
	.loc 1 789 0
	movl	%ebp, %esi
	.loc 1 790 0
	movl	$3, %ebx
	movl	$6, %ecx
	.loc 1 786 0
	xorl	%edx, %edx
	jmp	.L120
.LVL248:
	.p2align 2,,3
.L132:
.LBB69:
	.loc 1 778 0 discriminator 2
	movzwl	%dx, %esi
	sall	%cl, %esi
	orl	%esi, %ebx
	movw	%bx, 5816(%eax)
	addl	$2, %ecx
	movl	%ecx, 5820(%eax)
	jmp	.L125
.LVL249:
	.p2align 2,,3
.L130:
.LBE69:
.LBB70:
	movzwl	2748(%eax), %esi
	sall	%cl, %esi
	orl	%esi, %ebx
	movw	%bx, 5816(%eax)
	addl	%edi, %ecx
	movl	%ecx, 5820(%eax)
	jmp	.L131
.LVL250:
	.p2align 2,,3
.L133:
.LBE70:
.LBB71:
	.loc 1 784 0
	movzwl	2758(%eax), %edi
.LVL251:
	movl	5820(%eax), %ecx
.LVL252:
	movl	$16, %ebx
	subl	%edi, %ebx
	cmpl	%ebx, %ecx
.LBB72:
	movzwl	2756(%eax), %ebx
.LBE72:
	jle	.L137
.LBB73:
	.loc 1 784 0 is_stmt 0 discriminator 1
	movl	%ebx, (%esp)
.LVL253:
	sall	%cl, %ebx
.LVL254:
	orl	5816(%eax), %ebx
	movw	%bx, 5816(%eax)
	movl	20(%eax), %esi
	movl	8(%eax), %ecx
	movb	%bl, (%ecx,%esi)
	movl	8(%eax), %ecx
	movzbl	5817(%eax), %ebx
	movb	%bl, 1(%ecx,%esi)
	addl	$2, %esi
	movl	%esi, 20(%eax)
	movl	5820(%eax), %esi
	movl	$16, %ecx
	subl	%esi, %ecx
	movl	(%esp), %ebx
	sarl	%cl, %ebx
	movl	%ebx, %ecx
	movw	%cx, 5816(%eax)
	leal	-16(%edi,%esi), %ecx
	movl	%ecx, 5820(%eax)
.LVL255:
.L138:
.LBE73:
.LBE71:
.LBB74:
	cmpl	$9, %ecx
	jle	.L139
.LVL256:
.LBB75:
	subl	$10, %edx
.LVL257:
	movzwl	%dx, %esi
	movl	%esi, %edi
.LVL258:
	sall	%cl, %edi
	orl	%edi, %ebx
	movw	%bx, 5816(%eax)
	movl	20(%eax), %edx
	movl	8(%eax), %ecx
	movb	%bl, (%ecx,%edx)
	movl	8(%eax), %ecx
	movzbl	5817(%eax), %ebx
	movb	%bl, 1(%ecx,%edx)
	addl	$2, %edx
	movl	%edx, 20(%eax)
	movl	5820(%eax), %ebx
	movl	$16, %ecx
	subl	%ebx, %ecx
	sarl	%cl, %esi
	movw	%si, 5816(%eax)
	subl	$9, %ebx
	movl	%ebx, 5820(%eax)
	jmp	.L125
.LVL259:
	.p2align 2,,3
.L129:
.LBE75:
.LBE74:
.LBB76:
	.loc 1 775 0 is_stmt 1 discriminator 2
	movzwl	12(%eax,%ebx,4), %ebx
	sall	%cl, %ebx
	orl	5816(%eax), %ebx
	movw	%bx, 5816(%eax)
	addl	%edi, %ecx
	movl	%ecx, 5820(%eax)
	jmp	.L128
.LVL260:
	.p2align 2,,3
.L149:
.LBE76:
	.loc 1 774 0
	movl	5820(%eax), %ecx
.LVL261:
	movl	5816(%eax), %ebx
	movl	%ebp, %edx
	jmp	.L128
.LVL262:
	.p2align 2,,3
.L134:
.LBB77:
	.loc 1 781 0 discriminator 2
	sall	%cl, %ebx
	orl	5816(%eax), %ebx
	movw	%bx, 5816(%eax)
	addl	%edi, %ecx
	movl	%ecx, 5820(%eax)
.LVL263:
.LBE77:
.LBB78:
	cmpl	$13, %ecx
	jg	.L151
.L136:
	subl	$3, %ebp
.LVL264:
	movzwl	%bp, %ebp
.LVL265:
	sall	%cl, %ebp
	orl	%ebp, %ebx
	movw	%bx, 5816(%eax)
	addl	$3, %ecx
	movl	%ecx, 5820(%eax)
	jmp	.L125
.LVL266:
	.p2align 2,,3
.L139:
.LBE78:
.LBB79:
	.loc 1 784 0 discriminator 2
	subl	$11, %ebp
.LVL267:
	movzwl	%bp, %ebp
.LVL268:
	sall	%cl, %ebp
	orl	%ebp, %ebx
	movw	%bx, 5816(%eax)
	addl	$7, %ecx
	movl	%ecx, 5820(%eax)
	jmp	.L125
.LVL269:
	.p2align 2,,3
.L137:
.LBE79:
.LBB80:
	sall	%cl, %ebx
	orl	5816(%eax), %ebx
	movw	%bx, 5816(%eax)
	addl	%edi, %ecx
	movl	%ecx, 5820(%eax)
	jmp	.L138
.LBE80:
	.cfi_endproc
.LFE34:
	.size	send_tree, .-send_tree
	.p2align 2,,3
	.type	compress_block, @function
compress_block:
.LFB42:
	.loc 1 1064 0
	.cfi_startproc
.LVL270:
	pushl	%ebp
.LCFI50:
	.cfi_def_cfa_offset 8
	.cfi_offset 5, -8
	pushl	%edi
.LCFI51:
	.cfi_def_cfa_offset 12
	.cfi_offset 7, -12
	pushl	%esi
.LCFI52:
	.cfi_def_cfa_offset 16
	.cfi_offset 6, -16
	pushl	%ebx
.LCFI53:
	.cfi_def_cfa_offset 20
	.cfi_offset 3, -20
	subl	$28, %esp
.LCFI54:
	.cfi_def_cfa_offset 48
	movl	%edx, 16(%esp)
	movl	%ecx, 24(%esp)
.LVL271:
	.loc 1 1071 0
	movl	5792(%eax), %ebp
	testl	%ebp, %ebp
	movl	5820(%eax), %ecx
.LVL272:
	movl	5816(%eax), %ebx
	je	.L154
	xorl	%edx, %edx
.LVL273:
	jmp	.L167
.LVL274:
	.p2align 2,,3
.L171:
.LBB81:
	.loc 1 1075 0
	movl	16(%esp), %edi
.LVL275:
	leal	(%edi,%esi,4), %esi
.LVL276:
	movzwl	2(%esi), %edi
.LVL277:
	movl	$16, %ebp
	subl	%edi, %ebp
.LBB82:
	movzwl	(%esi), %esi
.LBE82:
	cmpl	%ecx, %ebp
	jge	.L156
.LVL278:
.LBB83:
	.loc 1 1075 0 is_stmt 0 discriminator 1
	movl	%esi, %ebp
	sall	%cl, %ebp
	orl	%ebp, %ebx
	movw	%bx, 5816(%eax)
	movl	20(%eax), %ebp
	movl	8(%eax), %ecx
	movb	%bl, (%ecx,%ebp)
	movl	8(%eax), %ecx
	movzbl	5817(%eax), %ebx
	movb	%bl, 1(%ecx,%ebp)
	addl	$2, %ebp
	movl	%ebp, 20(%eax)
	movl	5820(%eax), %ebp
	movl	$16, %ecx
	subl	%ebp, %ecx
	sarl	%cl, %esi
.LVL279:
	movl	%esi, %ebx
	movw	%si, 5816(%eax)
	leal	-16(%edi,%ebp), %ecx
	movl	%ecx, 5820(%eax)
.LVL280:
.L157:
.LBE83:
.LBE81:
	.loc 1 1102 0 is_stmt 1
	cmpl	5792(%eax), %edx
	jae	.L154
.LVL281:
.L167:
	.loc 1 1072 0
	movl	5796(%eax), %esi
	movzwl	(%esi,%edx,2), %esi
	movl	%esi, 4(%esp)
.LVL282:
	.loc 1 1073 0
	movl	5784(%eax), %esi
.LVL283:
	movzbl	(%esi,%edx), %esi
.LVL284:
	incl	%edx
.LVL285:
	.loc 1 1074 0
	movl	4(%esp), %edi
	testl	%edi, %edi
	je	.L171
	.loc 1 1079 0
	movzbl	_length_code(%esi), %edi
	movl	%edi, 8(%esp)
.LVL286:
.LBB84:
	.loc 1 1080 0
	movl	16(%esp), %ebp
	leal	1028(%ebp,%edi,4), %ebp
	movl	%ebp, (%esp)
	movzwl	2(%ebp), %edi
.LVL287:
	movl	%edi, 12(%esp)
.LVL288:
	movl	$16, %ebp
	subl	%edi, %ebp
	cmpl	%ecx, %ebp
	jge	.L158
.LBB85:
	.loc 1 1080 0 is_stmt 0 discriminator 1
	movl	(%esp), %edi
.LVL289:
	movzwl	(%edi), %ebp
.LVL290:
	movl	%ebp, %edi
	sall	%cl, %edi
	orl	%edi, %ebx
	movw	%bx, 5816(%eax)
	movl	20(%eax), %edi
	movl	8(%eax), %ecx
	movb	%bl, (%ecx,%edi)
	movl	8(%eax), %ecx
	movzbl	5817(%eax), %ebx
	movb	%bl, 1(%ecx,%edi)
	addl	$2, %edi
	movl	%edi, 20(%eax)
	movl	5820(%eax), %edi
	movl	$16, %ecx
	subl	%edi, %ecx
	sarl	%cl, %ebp
.LVL291:
	movl	%ebp, %ebx
	movw	%bp, 5816(%eax)
	movl	12(%esp), %ebp
	leal	-16(%ebp,%edi), %ecx
	movl	%ecx, 5820(%eax)
.L159:
.LBE85:
.LBE84:
	.loc 1 1081 0 is_stmt 1
	movl	8(%esp), %ebp
	movl	extra_lbits(,%ebp,4), %edi
.LVL292:
	.loc 1 1082 0
	testl	%edi, %edi
	je	.L160
	.loc 1 1083 0
	subl	base_length(,%ebp,4), %esi
.LVL293:
.LBB86:
	.loc 1 1084 0
	movl	$16, %ebp
	subl	%edi, %ebp
	cmpl	%ecx, %ebp
	jge	.L161
.LVL294:
.LBB87:
	.loc 1 1084 0 is_stmt 0 discriminator 1
	movzwl	%si, %ebp
	movl	%ebp, %esi
.LVL295:
	sall	%cl, %esi
	orl	%esi, %ebx
	movw	%bx, 5816(%eax)
	movl	20(%eax), %esi
	movl	8(%eax), %ecx
	movb	%bl, (%ecx,%esi)
	movl	8(%eax), %ecx
	movzbl	5817(%eax), %ebx
	movb	%bl, 1(%ecx,%esi)
	addl	$2, %esi
	movl	%esi, 20(%eax)
	movl	5820(%eax), %esi
	movl	$16, %ecx
	subl	%esi, %ecx
	sarl	%cl, %ebp
	movl	%ebp, %ebx
	movw	%bp, 5816(%eax)
	leal	-16(%edi,%esi), %ecx
	movl	%ecx, 5820(%eax)
.LVL296:
.L160:
.LBE87:
.LBE86:
	.loc 1 1086 0 is_stmt 1
	movl	4(%esp), %edi
	decl	%edi
	movl	%edi, 8(%esp)
.LVL297:
	.loc 1 1087 0
	cmpl	$255, %edi
	ja	.L162
	.loc 1 1087 0 is_stmt 0 discriminator 1
	movzbl	_dist_code(%edi), %edi
.LVL298:
.L163:
.LBB88:
	.loc 1 1090 0 is_stmt 1 discriminator 3
	movl	24(%esp), %ebp
	leal	0(%ebp,%edi,4), %esi
	movzwl	2(%esi), %ebp
	movl	%ebp, 20(%esp)
.LVL299:
	movl	$16, %ebp
.LVL300:
	subl	20(%esp), %ebp
	cmpl	%ecx, %ebp
	jge	.L164
.LBB89:
	.loc 1 1090 0 is_stmt 0 discriminator 1
	movzwl	(%esi), %ebp
.LVL301:
	movl	%ebp, %esi
	sall	%cl, %esi
	orl	%esi, %ebx
	movw	%bx, 5816(%eax)
	movl	20(%eax), %esi
	movl	8(%eax), %ecx
	movb	%bl, (%ecx,%esi)
	movl	8(%eax), %ecx
	movzbl	5817(%eax), %ebx
	movb	%bl, 1(%ecx,%esi)
	addl	$2, %esi
	movl	%esi, 20(%eax)
	movl	5820(%eax), %esi
	movl	$16, %ecx
	subl	%esi, %ecx
	sarl	%cl, %ebp
.LVL302:
	movl	%ebp, %ebx
	movw	%bp, 5816(%eax)
	movl	20(%esp), %ebp
	leal	-16(%ebp,%esi), %ecx
	movl	%ecx, 5820(%eax)
.L165:
.LBE89:
.LBE88:
	.loc 1 1091 0 is_stmt 1
	movl	extra_dbits(,%edi,4), %esi
.LVL303:
	.loc 1 1092 0
	testl	%esi, %esi
	je	.L157
	.loc 1 1093 0
	movl	8(%esp), %ebp
	subl	base_dist(,%edi,4), %ebp
.LVL304:
.LBB90:
	.loc 1 1094 0
	movl	$16, %edi
.LVL305:
	subl	%esi, %edi
.LBB91:
	movzwl	%bp, %ebp
.LVL306:
.LBE91:
	cmpl	%ecx, %edi
	jge	.L166
.LVL307:
.LBB92:
	.loc 1 1094 0 is_stmt 0 discriminator 1
	movl	%ebp, %edi
	sall	%cl, %edi
	orl	%edi, %ebx
	movw	%bx, 5816(%eax)
	movl	20(%eax), %edi
	movl	8(%eax), %ecx
	movb	%bl, (%ecx,%edi)
	movl	8(%eax), %ecx
	movzbl	5817(%eax), %ebx
	movb	%bl, 1(%ecx,%edi)
	addl	$2, %edi
	movl	%edi, 20(%eax)
	movl	5820(%eax), %edi
	movl	$16, %ecx
	subl	%edi, %ecx
	sarl	%cl, %ebp
.LVL308:
	movl	%ebp, %ebx
	movw	%bp, 5816(%eax)
	leal	-16(%esi,%edi), %ecx
	movl	%ecx, 5820(%eax)
.LBE92:
.LBE90:
	.loc 1 1102 0 is_stmt 1 discriminator 1
	cmpl	5792(%eax), %edx
	jb	.L167
.LVL309:
	.p2align 2,,3
.L154:
.LBB93:
	.loc 1 1104 0
	movl	16(%esp), %ebp
	movzwl	1026(%ebp), %edx
.LVL310:
	movl	$16, %esi
	movl	%esi, %edi
	subl	%edx, %edi
	cmpl	%ecx, %edi
	jl	.L172
	.loc 1 1104 0 is_stmt 0 discriminator 2
	movzwl	1024(%ebp), %esi
	sall	%cl, %esi
	orl	%esi, %ebx
	movw	%bx, 5816(%eax)
	addl	%edx, %ecx
	movl	%ecx, 5820(%eax)
.LBE93:
	.loc 1 1105 0 is_stmt 1 discriminator 2
	addl	$28, %esp
	.cfi_remember_state
.LCFI55:
	.cfi_def_cfa_offset 20
	popl	%ebx
.LCFI56:
	.cfi_def_cfa_offset 16
	.cfi_restore 3
	popl	%esi
.LCFI57:
	.cfi_def_cfa_offset 12
	.cfi_restore 6
	popl	%edi
.LCFI58:
	.cfi_def_cfa_offset 8
	.cfi_restore 7
	popl	%ebp
.LCFI59:
	.cfi_def_cfa_offset 4
	.cfi_restore 5
	ret
.LVL311:
	.p2align 2,,3
.L158:
.LCFI60:
	.cfi_restore_state
.LBB95:
	.loc 1 1080 0 discriminator 2
	movl	(%esp), %ebp
	movzwl	0(%ebp), %edi
.LVL312:
	sall	%cl, %edi
	orl	%edi, %ebx
	movw	%bx, 5816(%eax)
	addl	12(%esp), %ecx
	movl	%ecx, 5820(%eax)
	jmp	.L159
.LVL313:
	.p2align 2,,3
.L156:
.LBE95:
.LBB96:
	.loc 1 1075 0 discriminator 2
	sall	%cl, %esi
	orl	%esi, %ebx
	movw	%bx, 5816(%eax)
	addl	%edi, %ecx
	movl	%ecx, 5820(%eax)
	jmp	.L157
.LVL314:
	.p2align 2,,3
.L164:
.LBE96:
.LBB97:
	.loc 1 1090 0 discriminator 2
	movzwl	(%esi), %esi
	sall	%cl, %esi
	orl	%esi, %ebx
	movw	%bx, 5816(%eax)
	addl	20(%esp), %ecx
	movl	%ecx, 5820(%eax)
	jmp	.L165
.LVL315:
	.p2align 2,,3
.L162:
	movl	%edi, %esi
.LBE97:
	.loc 1 1087 0 discriminator 2
	shrl	$7, %esi
	movzbl	_dist_code+256(%esi), %edi
	jmp	.L163
.LVL316:
	.p2align 2,,3
.L166:
.LBB98:
	.loc 1 1094 0 discriminator 2
	sall	%cl, %ebp
	orl	%ebp, %ebx
	movw	%bx, 5816(%eax)
	addl	%esi, %ecx
	movl	%ecx, 5820(%eax)
	jmp	.L157
.LVL317:
	.p2align 2,,3
.L161:
.LBE98:
.LBB99:
	.loc 1 1084 0 discriminator 2
	movzwl	%si, %esi
.LVL318:
	sall	%cl, %esi
	orl	%esi, %ebx
	movw	%bx, 5816(%eax)
	addl	%edi, %ecx
	movl	%ecx, 5820(%eax)
	jmp	.L160
.LVL319:
	.p2align 2,,3
.L172:
.LBE99:
.LBB100:
.LBB94:
	.loc 1 1104 0 discriminator 1
	movzwl	1024(%ebp), %edi
.LVL320:
	movl	%edi, %ebp
	sall	%cl, %ebp
	orl	%ebp, %ebx
	movw	%bx, 5816(%eax)
	movl	20(%eax), %ebp
	movl	8(%eax), %ecx
	movb	%bl, (%ecx,%ebp)
	movl	8(%eax), %ecx
	movzbl	5817(%eax), %ebx
	movb	%bl, 1(%ecx,%ebp)
	addl	$2, %ebp
	movl	%ebp, 20(%eax)
	movl	5820(%eax), %ebx
	movl	%esi, %ecx
	subl	%ebx, %ecx
	sarl	%cl, %edi
.LVL321:
	movw	%di, 5816(%eax)
	leal	-16(%edx,%ebx), %edx
.LVL322:
	movl	%edx, 5820(%eax)
.LBE94:
.LBE100:
	.loc 1 1105 0 discriminator 1
	addl	$28, %esp
.LCFI61:
	.cfi_def_cfa_offset 20
	popl	%ebx
	.cfi_restore 3
.LCFI62:
	.cfi_def_cfa_offset 16
	popl	%esi
	.cfi_restore 6
.LCFI63:
	.cfi_def_cfa_offset 12
	popl	%edi
	.cfi_restore 7
.LCFI64:
	.cfi_def_cfa_offset 8
	popl	%ebp
	.cfi_restore 5
.LCFI65:
	.cfi_def_cfa_offset 4
	ret
	.cfi_endproc
.LFE42:
	.size	compress_block, .-compress_block
	.p2align 2,,3
	.globl	_tr_init
	.hidden	_tr_init
	.type	_tr_init, @function
_tr_init:
.LFB27:
	.loc 1 383 0
	.cfi_startproc
.LVL323:
	movl	4(%esp), %edx
	.loc 1 386 0
	leal	148(%edx), %eax
	movl	%eax, 2840(%edx)
	.loc 1 387 0
	movl	$static_l_desc, 2848(%edx)
	.loc 1 389 0
	leal	2440(%edx), %eax
	movl	%eax, 2852(%edx)
	.loc 1 390 0
	movl	$static_d_desc, 2860(%edx)
	.loc 1 392 0
	leal	2684(%edx), %eax
	movl	%eax, 2864(%edx)
	.loc 1 393 0
	movl	$static_bl_desc, 2872(%edx)
	.loc 1 395 0
	movw	$0, 5816(%edx)
	.loc 1 396 0
	movl	$0, 5820(%edx)
.LVL324:
	.loc 1 415 0
	xorl	%eax, %eax
.LVL325:
	.p2align 2,,3
.L174:
.LBB101:
.LBB102:
	movw	$0, 148(%edx,%eax,4)
	incl	%eax
.LVL326:
	cmpl	$286, %eax
	jne	.L174
	xorw	%ax, %ax
.LVL327:
	.p2align 2,,3
.L175:
	.loc 1 416 0
	movw	$0, 2440(%edx,%eax,4)
	incl	%eax
.LVL328:
	cmpl	$30, %eax
	jne	.L175
	xorb	%al, %al
.LVL329:
	.p2align 2,,3
.L176:
	.loc 1 417 0
	movw	$0, 2684(%edx,%eax,4)
	incl	%eax
.LVL330:
	cmpl	$19, %eax
	jne	.L176
	.loc 1 419 0
	movw	$1, 1172(%edx)
	.loc 1 420 0
	movl	$0, 5804(%edx)
	movl	$0, 5800(%edx)
	.loc 1 421 0
	movl	$0, 5808(%edx)
	movl	$0, 5792(%edx)
.LBE102:
.LBE101:
	.loc 1 404 0
	ret
	.cfi_endproc
.LFE27:
	.size	_tr_init, .-_tr_init
	.p2align 2,,3
	.globl	_tr_stored_block
	.hidden	_tr_stored_block
	.type	_tr_stored_block, @function
_tr_stored_block:
.LFB37:
	.loc 1 870 0
	.cfi_startproc
.LVL331:
	pushl	%ebp
.LCFI66:
	.cfi_def_cfa_offset 8
	.cfi_offset 5, -8
	pushl	%edi
.LCFI67:
	.cfi_def_cfa_offset 12
	.cfi_offset 7, -12
	pushl	%esi
.LCFI68:
	.cfi_def_cfa_offset 16
	.cfi_offset 6, -16
	pushl	%ebx
.LCFI69:
	.cfi_def_cfa_offset 20
	.cfi_offset 3, -20
	movl	20(%esp), %eax
	movl	28(%esp), %edx
	movl	32(%esp), %ebx
.LVL332:
.LBB109:
	.loc 1 871 0
	movl	5820(%eax), %ecx
.LBB110:
	movzwl	%bx, %ebx
.LBE110:
	cmpl	$13, %ecx
	jg	.L189
	.loc 1 871 0 is_stmt 0 discriminator 2
	sall	%cl, %ebx
	orl	5816(%eax), %ebx
	movw	%bx, 5816(%eax)
	addl	$3, %ecx
	movl	%ecx, 5820(%eax)
.L182:
.LVL333:
.LBE109:
.LBB112:
.LBB113:
.LBB114:
.LBB115:
	.loc 1 1189 0 is_stmt 1
	cmpl	$8, %ecx
	jle	.L183
	.loc 1 1190 0
	movl	20(%eax), %ecx
	movl	8(%eax), %esi
	movb	%bl, (%esi,%ecx)
	movl	8(%eax), %edi
	movzbl	5817(%eax), %esi
	movl	%esi, %ebx
	movb	%bl, 1(%edi,%ecx)
	addl	$2, %ecx
	movl	%ecx, 20(%eax)
.L184:
	.loc 1 1194 0
	movw	$0, 5816(%eax)
	.loc 1 1195 0
	movl	$0, 5820(%eax)
.LBE115:
.LBE114:
	.loc 1 1214 0
	movl	20(%eax), %ebx
	movl	8(%eax), %ecx
	movb	%dl, (%ecx,%ebx)
	movl	8(%eax), %esi
	movl	%edx, %edi
	shrw	$8, %di
	movl	%edi, %ecx
	movb	%cl, 1(%esi,%ebx)
	.loc 1 1215 0
	movl	8(%eax), %esi
	movb	%dl, %cl
	notl	%ecx
	movb	%cl, 2(%esi,%ebx)
	movl	8(%eax), %esi
	movl	%edx, %ecx
	notl	%ecx
	shrw	$8, %cx
	movb	%cl, 3(%esi,%ebx)
	leal	4(%ebx), %ecx
	movl	%ecx, 20(%eax)
.LVL334:
	.loc 1 1223 0
	testl	%edx, %edx
	je	.L180
	.loc 1 865 0
	movl	24(%esp), %esi
	subl	%ebx, %esi
.LVL335:
	.p2align 2,,3
.L187:
	.loc 1 1224 0
	movl	8(%eax), %edi
	movb	-4(%esi,%ecx), %bl
	movb	%bl, (%edi,%ecx)
	incl	%ecx
	movl	%ecx, 20(%eax)
	.loc 1 1223 0
	decl	%edx
	jne	.L187
.L180:
.LBE113:
.LBE112:
	.loc 1 877 0
	popl	%ebx
	.cfi_remember_state
.LCFI70:
	.cfi_def_cfa_offset 16
	.cfi_restore 3
	popl	%esi
.LCFI71:
	.cfi_def_cfa_offset 12
	.cfi_restore 6
	popl	%edi
.LCFI72:
	.cfi_def_cfa_offset 8
	.cfi_restore 7
	popl	%ebp
.LCFI73:
	.cfi_def_cfa_offset 4
	.cfi_restore 5
	ret
.LVL336:
	.p2align 2,,3
.L183:
.LCFI74:
	.cfi_restore_state
.LBB119:
.LBB118:
.LBB117:
.LBB116:
	.loc 1 1191 0
	testl	%ecx, %ecx
	jle	.L184
	.loc 1 1192 0
	movl	20(%eax), %ecx
	movl	8(%eax), %esi
	movb	%bl, (%esi,%ecx)
	incl	%ecx
	movl	%ecx, 20(%eax)
	jmp	.L184
.LVL337:
	.p2align 2,,3
.L189:
.LBE116:
.LBE117:
.LBE118:
.LBE119:
.LBB120:
.LBB111:
	.loc 1 871 0 discriminator 1
	movl	%ebx, %esi
	sall	%cl, %esi
	movl	5816(%eax), %ecx
	orl	%esi, %ecx
	movw	%cx, 5816(%eax)
	movl	20(%eax), %esi
	movl	8(%eax), %edi
	movb	%cl, (%edi,%esi)
	movl	8(%eax), %ebp
	movzbl	5817(%eax), %edi
	movl	%edi, %ecx
	movb	%cl, 1(%ebp,%esi)
	addl	$2, %esi
	movl	%esi, 20(%eax)
	movl	5820(%eax), %esi
	movl	$16, %ecx
	subl	%esi, %ecx
	sarl	%cl, %ebx
.LVL338:
	movl	%ebx, %ecx
	movw	%cx, 5816(%eax)
	leal	-13(%esi), %ecx
	movl	%ecx, 5820(%eax)
	jmp	.L182
.LBE111:
.LBE120:
	.cfi_endproc
.LFE37:
	.size	_tr_stored_block, .-_tr_stored_block
	.p2align 2,,3
	.globl	_tr_flush_bits
	.hidden	_tr_flush_bits
	.type	_tr_flush_bits, @function
_tr_flush_bits:
.LFB38:
	.loc 1 884 0
	.cfi_startproc
.LVL339:
	pushl	%ebx
.LCFI75:
	.cfi_def_cfa_offset 8
	.cfi_offset 3, -8
	movl	8(%esp), %eax
.LVL340:
.LBB125:
.LBB126:
	.loc 1 1172 0
	movl	5820(%eax), %edx
	cmpl	$16, %edx
	je	.L193
	.loc 1 1176 0
	cmpl	$7, %edx
	jle	.L190
	.loc 1 1177 0
	movl	20(%eax), %edx
	movl	8(%eax), %ecx
	movl	5816(%eax), %ebx
	movb	%bl, (%ecx,%edx)
	incl	%edx
	movl	%edx, 20(%eax)
	.loc 1 1178 0
	shrw	$8, 5816(%eax)
	.loc 1 1179 0
	subl	$8, 5820(%eax)
.L190:
.LBE126:
.LBE125:
	.loc 1 886 0
	popl	%ebx
	.cfi_remember_state
.LCFI76:
	.cfi_def_cfa_offset 4
	.cfi_restore 3
	ret
	.p2align 2,,3
.L193:
.LCFI77:
	.cfi_restore_state
.LVL341:
.LBB130:
.LBB129:
.LBB127:
.LBB128:
	.loc 1 1173 0
	movl	20(%eax), %edx
	movl	8(%eax), %ecx
	movl	5816(%eax), %ebx
	movb	%bl, (%ecx,%edx)
	movl	8(%eax), %ecx
	movzbl	5817(%eax), %ebx
	movb	%bl, 1(%ecx,%edx)
	addl	$2, %edx
	movl	%edx, 20(%eax)
	.loc 1 1174 0
	movw	$0, 5816(%eax)
	.loc 1 1175 0
	movl	$0, 5820(%eax)
.LBE128:
.LBE127:
.LBE129:
.LBE130:
	.loc 1 886 0
	popl	%ebx
	.cfi_restore 3
.LCFI78:
	.cfi_def_cfa_offset 4
	ret
	.cfi_endproc
.LFE38:
	.size	_tr_flush_bits, .-_tr_flush_bits
	.p2align 2,,3
	.globl	_tr_align
	.hidden	_tr_align
	.type	_tr_align, @function
_tr_align:
.LFB39:
	.loc 1 894 0
	.cfi_startproc
.LVL342:
	pushl	%esi
.LCFI79:
	.cfi_def_cfa_offset 8
	.cfi_offset 6, -8
	pushl	%ebx
.LCFI80:
	.cfi_def_cfa_offset 12
	.cfi_offset 3, -12
	movl	12(%esp), %eax
.LVL343:
.LBB139:
	.loc 1 895 0
	movl	5820(%eax), %ecx
.LBB140:
	movl	$2, %edx
.LBE140:
	cmpl	$13, %ecx
	jle	.L195
.LVL344:
.LBB141:
	.loc 1 895 0 is_stmt 0 discriminator 1
	movl	%edx, %ebx
	sall	%cl, %ebx
	movl	5816(%eax), %ecx
	orl	%ebx, %ecx
	movw	%cx, 5816(%eax)
	movl	20(%eax), %esi
	movl	8(%eax), %ebx
	movb	%cl, (%ebx,%esi)
	movl	8(%eax), %ecx
	movzbl	5817(%eax), %ebx
	movb	%bl, 1(%ecx,%esi)
	addl	$2, %esi
	movl	%esi, 20(%eax)
	movl	5820(%eax), %ebx
	movl	$16, %ecx
	subl	%ebx, %ecx
	sarl	%cl, %edx
	movl	%edx, %ecx
	movw	%cx, 5816(%eax)
	subl	$13, %ebx
	movl	%ebx, 5820(%eax)
.LVL345:
.LBE141:
.LBE139:
.LBB142:
	.loc 1 896 0 is_stmt 1 discriminator 1
	cmpl	$9, %ebx
	jg	.L201
.LVL346:
.L197:
	.loc 1 896 0 is_stmt 0 discriminator 2
	addl	$7, %ebx
	movl	%ebx, 5820(%eax)
.LVL347:
.LBE142:
.LBB144:
.LBB145:
	.loc 1 1172 0 is_stmt 1 discriminator 2
	cmpl	$16, %ebx
	je	.L202
.L199:
	.loc 1 1176 0
	cmpl	$7, %ebx
	jle	.L194
	.loc 1 1177 0
	movl	20(%eax), %ecx
	movl	8(%eax), %ebx
	movb	%dl, (%ebx,%ecx)
	incl	%ecx
	movl	%ecx, 20(%eax)
	.loc 1 1178 0
	shrw	$8, 5816(%eax)
	.loc 1 1179 0
	subl	$8, 5820(%eax)
.L194:
.LBE145:
.LBE144:
	.loc 1 901 0
	popl	%ebx
	.cfi_remember_state
.LCFI81:
	.cfi_def_cfa_offset 8
	.cfi_restore 3
	popl	%esi
.LCFI82:
	.cfi_def_cfa_offset 4
	.cfi_restore 6
	ret
.LVL348:
	.p2align 2,,3
.L195:
.LCFI83:
	.cfi_restore_state
.LBB149:
	.loc 1 895 0 discriminator 2
	sall	%cl, %edx
	orl	5816(%eax), %edx
	movw	%dx, 5816(%eax)
	leal	3(%ecx), %ebx
	movl	%ebx, 5820(%eax)
.LVL349:
.LBE149:
.LBB150:
	.loc 1 896 0 discriminator 2
	cmpl	$9, %ebx
	jle	.L197
.L201:
.LVL350:
.LBB143:
	.loc 1 896 0 is_stmt 0 discriminator 1
	movl	20(%eax), %ecx
	movl	8(%eax), %ebx
	movb	%dl, (%ebx,%ecx)
	movl	8(%eax), %edx
	movzbl	5817(%eax), %ebx
	movb	%bl, 1(%edx,%ecx)
	addl	$2, %ecx
	movl	%ecx, 20(%eax)
	movw	$0, 5816(%eax)
	movl	5820(%eax), %ebx
	subl	$9, %ebx
	movl	%ebx, 5820(%eax)
	xorl	%edx, %edx
.LVL351:
.LBE143:
.LBE150:
.LBB151:
.LBB148:
	.loc 1 1172 0 is_stmt 1 discriminator 1
	cmpl	$16, %ebx
	jne	.L199
.LVL352:
.L202:
.LBB146:
.LBB147:
	.loc 1 1173 0
	movl	20(%eax), %ecx
	movl	8(%eax), %ebx
	movb	%dl, (%ebx,%ecx)
	movl	8(%eax), %edx
	movzbl	5817(%eax), %ebx
	movb	%bl, 1(%edx,%ecx)
	addl	$2, %ecx
	movl	%ecx, 20(%eax)
	.loc 1 1174 0
	movw	$0, 5816(%eax)
	.loc 1 1175 0
	movl	$0, 5820(%eax)
.LBE147:
.LBE146:
.LBE148:
.LBE151:
	.loc 1 901 0
	popl	%ebx
	.cfi_restore 3
.LCFI84:
	.cfi_def_cfa_offset 8
	popl	%esi
	.cfi_restore 6
.LCFI85:
	.cfi_def_cfa_offset 4
	ret
	.cfi_endproc
.LFE39:
	.size	_tr_align, .-_tr_align
	.p2align 2,,3
	.globl	_tr_flush_block
	.hidden	_tr_flush_block
	.type	_tr_flush_block, @function
_tr_flush_block:
.LFB40:
	.loc 1 912 0
	.cfi_startproc
.LVL353:
	pushl	%ebp
.LCFI86:
	.cfi_def_cfa_offset 8
	.cfi_offset 5, -8
	pushl	%edi
.LCFI87:
	.cfi_def_cfa_offset 12
	.cfi_offset 7, -12
	pushl	%esi
.LCFI88:
	.cfi_def_cfa_offset 16
	.cfi_offset 6, -16
	pushl	%ebx
.LCFI89:
	.cfi_def_cfa_offset 20
	.cfi_offset 3, -20
	subl	$24, %esp
.LCFI90:
	.cfi_def_cfa_offset 44
	movl	44(%esp), %ebx
	movl	52(%esp), %esi
.LVL354:
	.loc 1 917 0
	movl	132(%ebx), %eax
	testl	%eax, %eax
	jle	.L204
	.loc 1 920 0
	movl	(%ebx), %ecx
	cmpl	$2, 44(%ecx)
	je	.L265
.L205:
	.loc 1 924 0
	leal	2840(%ebx), %edx
	movl	%ebx, %eax
	call	build_tree
	.loc 1 928 0
	leal	2852(%ebx), %edx
	movl	%ebx, %eax
	call	build_tree
.LVL355:
.LBB174:
.LBB175:
	.loc 1 807 0
	movl	2844(%ebx), %ecx
	leal	148(%ebx), %edx
	movl	%ebx, %eax
	call	scan_tree
	.loc 1 808 0
	movl	2856(%ebx), %ecx
	leal	2440(%ebx), %edx
	movl	%ebx, %eax
	call	scan_tree
	.loc 1 811 0
	leal	2864(%ebx), %edx
	movl	%ebx, %eax
	call	build_tree
.LVL356:
	.loc 1 821 0
	cmpw	$0, 2746(%ebx)
	jne	.L241
.LVL357:
	cmpw	$0, 2690(%ebx)
	jne	.L242
.LVL358:
	cmpw	$0, 2742(%ebx)
	jne	.L243
.LVL359:
	cmpw	$0, 2694(%ebx)
	jne	.L244
.LVL360:
	cmpw	$0, 2738(%ebx)
	jne	.L245
.LVL361:
	cmpw	$0, 2698(%ebx)
	jne	.L246
.LVL362:
	cmpw	$0, 2734(%ebx)
	jne	.L247
.LVL363:
	cmpw	$0, 2702(%ebx)
	jne	.L248
.LVL364:
	cmpw	$0, 2730(%ebx)
	jne	.L249
.LVL365:
	cmpw	$0, 2706(%ebx)
	jne	.L250
.LVL366:
	cmpw	$0, 2726(%ebx)
	jne	.L251
.LVL367:
	cmpw	$0, 2710(%ebx)
	jne	.L252
.LVL368:
	cmpw	$0, 2722(%ebx)
	jne	.L253
.LVL369:
	cmpw	$0, 2714(%ebx)
	jne	.L254
.LVL370:
	cmpw	$0, 2718(%ebx)
	jne	.L255
.LVL371:
	cmpw	$0, 2686(%ebx)
	jne	.L266
	movl	$9, %ecx
	movl	$3, %edi
	movl	$2, %eax
.LVL372:
.L211:
	.loc 1 824 0
	movl	5800(%ebx), %edx
	leal	14(%ecx,%edx), %edx
	movl	%edx, 5800(%ebx)
.LVL373:
.LBE175:
.LBE174:
	.loc 1 941 0
	addl	$10, %edx
	shrl	$3, %edx
.LVL374:
	.loc 1 942 0
	movl	5804(%ebx), %ecx
	addl	$10, %ecx
	shrl	$3, %ecx
.LVL375:
	.loc 1 948 0
	cmpl	%ecx, %edx
	jb	.L212
	movl	%ecx, %edx
.LVL376:
.L212:
	.loc 1 958 0
	leal	4(%esi), %ebp
	cmpl	%ebp, %edx
	jb	.L213
	.loc 1 958 0 is_stmt 0 discriminator 1
	movl	48(%esp), %ebp
	testl	%ebp, %ebp
	je	.L213
	.loc 1 967 0 is_stmt 1
	movl	56(%esp), %ebp
	movl	%ebp, 12(%esp)
	movl	%esi, 8(%esp)
	movl	48(%esp), %esi
	movl	%esi, 4(%esp)
	movl	%ebx, (%esp)
	call	_tr_stored_block
.LVL377:
.L219:
	.loc 1 914 0
	xorl	%eax, %eax
.LVL378:
	.p2align 2,,3
.L214:
.LBB177:
.LBB178:
	.loc 1 415 0
	movw	$0, 148(%ebx,%eax,4)
	incl	%eax
.LVL379:
	cmpl	$286, %eax
	jne	.L214
	xorw	%ax, %ax
.LVL380:
	.p2align 2,,3
.L231:
	.loc 1 416 0
	movw	$0, 2440(%ebx,%eax,4)
	incl	%eax
.LVL381:
	cmpl	$30, %eax
	jne	.L231
	xorb	%al, %al
.LVL382:
	.p2align 2,,3
.L232:
	.loc 1 417 0
	movw	$0, 2684(%ebx,%eax,4)
	incl	%eax
.LVL383:
	cmpl	$19, %eax
	jne	.L232
	.loc 1 419 0
	movw	$1, 1172(%ebx)
	.loc 1 420 0
	movl	$0, 5804(%ebx)
	movl	$0, 5800(%ebx)
	.loc 1 421 0
	movl	$0, 5808(%ebx)
	movl	$0, 5792(%ebx)
.LBE178:
.LBE177:
	.loc 1 996 0
	movl	56(%esp), %eax
.LVL384:
	testl	%eax, %eax
	je	.L203
.LVL385:
.LBB179:
.LBB180:
	.loc 1 1189 0
	movl	5820(%ebx), %eax
	cmpl	$8, %eax
	jle	.L234
	.loc 1 1190 0
	movl	20(%ebx), %eax
	movl	8(%ebx), %edx
	movl	5816(%ebx), %ecx
	movb	%cl, (%edx,%eax)
	movl	8(%ebx), %edx
	movzbl	5817(%ebx), %ecx
	movb	%cl, 1(%edx,%eax)
	addl	$2, %eax
	movl	%eax, 20(%ebx)
.L235:
	.loc 1 1194 0
	movw	$0, 5816(%ebx)
	.loc 1 1195 0
	movl	$0, 5820(%ebx)
.LVL386:
.L203:
.LBE180:
.LBE179:
	.loc 1 1004 0
	addl	$24, %esp
	.cfi_remember_state
.LCFI91:
	.cfi_def_cfa_offset 20
	popl	%ebx
.LCFI92:
	.cfi_def_cfa_offset 16
	.cfi_restore 3
	popl	%esi
.LCFI93:
	.cfi_def_cfa_offset 12
	.cfi_restore 6
	popl	%edi
.LCFI94:
	.cfi_def_cfa_offset 8
	.cfi_restore 7
	popl	%ebp
.LCFI95:
	.cfi_def_cfa_offset 4
	.cfi_restore 5
	ret
.LVL387:
.L213:
.LCFI96:
	.cfi_restore_state
	.loc 1 972 0
	cmpl	$4, 136(%ebx)
	je	.L215
	.loc 1 972 0 is_stmt 0 discriminator 1
	cmpl	%edx, %ecx
	je	.L215
.LVL388:
.LBB182:
	.loc 1 981 0 is_stmt 1
	movl	5820(%ebx), %ecx
.LVL389:
	cmpl	$13, %ecx
	jg	.L267
	.loc 1 981 0 is_stmt 0 discriminator 2
	movl	56(%esp), %edx
.LVL390:
	addl	$4, %edx
	movzwl	%dx, %edx
	sall	%cl, %edx
	orl	5816(%ebx), %edx
	movw	%dx, 5816(%ebx)
	addl	$3, %ecx
	movl	%ecx, 5820(%ebx)
.L221:
.LBE182:
	.loc 1 982 0 is_stmt 1
	movl	2856(%ebx), %esi
	movl	%esi, 16(%esp)
	movl	2844(%ebx), %ebp
	movl	%ebp, 20(%esp)
.LVL391:
.LBB184:
.LBB185:
.LBB186:
	.loc 1 846 0
	cmpl	$11, %ecx
	jle	.L222
.LVL392:
.LBB187:
	movl	%ebp, %esi
	subl	$256, %esi
	movzwl	%si, %ebp
	movl	%ebp, %esi
	sall	%cl, %esi
	orl	%esi, %edx
	movw	%dx, 5816(%ebx)
	movl	20(%ebx), %esi
	movl	8(%ebx), %ecx
	movb	%dl, (%ecx,%esi)
	movl	8(%ebx), %edx
	movzbl	5817(%ebx), %ecx
	movb	%cl, 1(%edx,%esi)
	addl	$2, %esi
	movl	%esi, 20(%ebx)
	movl	5820(%ebx), %esi
	movl	$16, %ecx
	subl	%esi, %ecx
	sarl	%cl, %ebp
	movl	%ebp, %edx
	movw	%bp, 5816(%ebx)
	leal	-11(%esi), %ecx
	movl	%ecx, 5820(%ebx)
.LVL393:
.LBE187:
.LBE186:
.LBB188:
	.loc 1 847 0
	cmpl	$11, %ecx
	jle	.L224
.LVL394:
.L273:
.LBB189:
	movzwl	16(%esp), %ebp
	movl	%ebp, %esi
	sall	%cl, %esi
	orl	%esi, %edx
	movw	%dx, 5816(%ebx)
	movl	20(%ebx), %esi
	movl	8(%ebx), %ecx
	movb	%dl, (%ecx,%esi)
	movl	8(%ebx), %edx
	movzbl	5817(%ebx), %ecx
	movb	%cl, 1(%edx,%esi)
	addl	$2, %esi
	movl	%esi, 20(%ebx)
	movl	5820(%ebx), %esi
	movl	$16, %ecx
	subl	%esi, %ecx
	sarl	%cl, %ebp
	movl	%ebp, %edx
	movw	%bp, 5816(%ebx)
	leal	-11(%esi), %ecx
	movl	%ecx, 5820(%ebx)
.LVL395:
.LBE189:
.LBE188:
.LBB190:
	.loc 1 848 0
	cmpl	$12, %ecx
	jle	.L226
.LVL396:
.L274:
.LBB191:
	subl	$3, %eax
.LVL397:
	movzwl	%ax, %esi
	movl	%esi, %ebp
	sall	%cl, %ebp
	orl	%ebp, %edx
	movw	%dx, 5816(%ebx)
	movl	20(%ebx), %ecx
	movl	8(%ebx), %eax
.LVL398:
	movb	%dl, (%eax,%ecx)
	movl	8(%ebx), %eax
	movzbl	5817(%ebx), %edx
	movb	%dl, 1(%eax,%ecx)
	addl	$2, %ecx
	movl	%ecx, 20(%ebx)
	movl	5820(%ebx), %eax
	movl	$16, %ecx
	subl	%eax, %ecx
	sarl	%cl, %esi
	movl	%esi, %edx
	movw	%si, 5816(%ebx)
	leal	-12(%eax), %ecx
	movl	%ecx, 5820(%ebx)
.L228:
.LVL399:
.LBE191:
.LBE190:
.LBE185:
.LBE184:
	.loc 1 914 0
	xorl	%eax, %eax
	jmp	.L227
.LVL400:
	.p2align 2,,3
.L269:
.LBB201:
.LBB199:
.LBB192:
.LBB193:
	.loc 1 851 0
	movl	%esi, %ebp
	sall	%cl, %ebp
	orl	%ebp, %edx
	movw	%dx, 5816(%ebx)
	movl	20(%ebx), %ebp
	movl	8(%ebx), %ecx
	movb	%dl, (%ecx,%ebp)
	movl	8(%ebx), %edx
	movzbl	5817(%ebx), %ecx
	movb	%cl, 1(%edx,%ebp)
	addl	$2, %ebp
	movl	%ebp, 20(%ebx)
	movl	5820(%ebx), %ebp
	movl	$16, %ecx
	subl	%ebp, %ecx
	sarl	%cl, %esi
.LVL401:
	movl	%esi, %edx
	movw	%si, 5816(%ebx)
	leal	-13(%ebp), %ecx
	movl	%ecx, 5820(%ebx)
.LBE193:
.LBE192:
	.loc 1 849 0
	incl	%eax
.LVL402:
	cmpl	%edi, %eax
	jge	.L268
.LVL403:
.L227:
.LBB195:
.LBB194:
	.loc 1 851 0
	movzbl	bl_order(%eax), %esi
	movzwl	2686(%ebx,%esi,4), %esi
.LBE194:
	cmpl	$13, %ecx
	jg	.L269
	sall	%cl, %esi
	orl	%esi, %edx
	movw	%dx, 5816(%ebx)
	addl	$3, %ecx
	movl	%ecx, 5820(%ebx)
.LBE195:
	.loc 1 849 0
	incl	%eax
.LVL404:
	cmpl	%edi, %eax
	jl	.L227
.L268:
	.loc 1 855 0
	leal	148(%ebx), %esi
	movl	20(%esp), %ecx
	movl	%esi, %edx
	movl	%ebx, %eax
.LVL405:
	call	send_tree
.LVL406:
	.loc 1 858 0
	leal	2440(%ebx), %edi
.LVL407:
	movl	16(%esp), %ecx
	movl	%edi, %edx
	movl	%ebx, %eax
	call	send_tree
.LBE199:
.LBE201:
	.loc 1 984 0
	movl	%edi, %ecx
	movl	%esi, %edx
	movl	%ebx, %eax
	call	compress_block
	jmp	.L219
.LVL408:
.L215:
.LBB202:
	.loc 1 974 0
	movl	5820(%ebx), %ecx
.LVL409:
	cmpl	$13, %ecx
	jg	.L270
	.loc 1 974 0 is_stmt 0 discriminator 2
	movl	56(%esp), %eax
.LVL410:
	addl	$2, %eax
	movzwl	%ax, %eax
	sall	%cl, %eax
	orw	%ax, 5816(%ebx)
	addl	$3, %ecx
	movl	%ecx, 5820(%ebx)
.LVL411:
.L218:
.LBE202:
	.loc 1 975 0 is_stmt 1
	movl	$static_dtree, %ecx
	movl	$static_ltree, %edx
	movl	%ebx, %eax
	call	compress_block
	jmp	.L219
.LVL412:
.L234:
.LBB204:
.LBB181:
	.loc 1 1191 0
	testl	%eax, %eax
	jle	.L235
	.loc 1 1192 0
	movl	20(%ebx), %eax
	movl	8(%ebx), %edx
	movl	5816(%ebx), %ecx
	movb	%cl, (%edx,%eax)
	incl	%eax
	movl	%eax, 20(%ebx)
	jmp	.L235
.LVL413:
.L204:
.LBE181:
.LBE204:
	.loc 1 952 0
	leal	5(%esi), %ecx
.LVL414:
	movl	%ecx, %edx
	movl	$1, %edi
	.loc 1 914 0
	xorl	%eax, %eax
	jmp	.L212
.LVL415:
.L265:
	.loc 1 920 0
	xorl	%eax, %eax
	movl	$-201342849, %edx
	.p2align 2,,3
.L208:
.LBB205:
.LBB206:
	.loc 1 1132 0
	testb	$1, %dl
	je	.L206
	cmpw	$0, 148(%ebx,%eax,4)
	jne	.L236
.L206:
	.loc 1 1131 0
	incl	%eax
.LVL416:
	shrl	%edx
.LVL417:
	cmpl	$32, %eax
	jne	.L208
	.loc 1 1136 0
	cmpw	$0, 184(%ebx)
	jne	.L240
	cmpw	$0, 188(%ebx)
	jne	.L240
	.loc 1 1137 0
	cmpw	$0, 200(%ebx)
	jne	.L240
	jmp	.L258
	.p2align 2,,3
.L272:
	.loc 1 1139 0
	incl	%eax
.LVL418:
	cmpl	$256, %eax
	je	.L271
.L258:
	.loc 1 1140 0
	cmpw	$0, 148(%ebx,%eax,4)
	je	.L272
.L240:
	.loc 1 1141 0
	movl	$1, %eax
.LVL419:
.L207:
.LBE206:
.LBE205:
	.loc 1 921 0
	movl	%eax, 44(%ecx)
	jmp	.L205
.LVL420:
.L267:
.LBB209:
.LBB183:
	.loc 1 981 0 discriminator 1
	movl	56(%esp), %ebp
	addl	$4, %ebp
	movzwl	%bp, %ebp
	movl	%ebp, 16(%esp)
	sall	%cl, %ebp
	movl	5816(%ebx), %ecx
	orl	%ebp, %ecx
	movw	%cx, 5816(%ebx)
	movl	20(%ebx), %edx
.LVL421:
	movl	8(%ebx), %esi
	movb	%cl, (%esi,%edx)
	movzbl	5817(%ebx), %esi
	movl	%esi, %ecx
	movl	8(%ebx), %ebp
	movb	%cl, 1(%ebp,%edx)
	addl	$2, %edx
	movl	%edx, 20(%ebx)
	movl	5820(%ebx), %esi
	movl	$16, %ecx
	subl	%esi, %ecx
	movl	16(%esp), %ebp
	sarl	%cl, %ebp
	movl	%ebp, %edx
	movw	%bp, 5816(%ebx)
	leal	-13(%esi), %ecx
	movl	%ecx, 5820(%ebx)
	jmp	.L221
.LVL422:
.L270:
.LBE183:
.LBE209:
.LBB210:
.LBB203:
	.loc 1 974 0 discriminator 1
	movl	56(%esp), %edx
.LVL423:
	addl	$2, %edx
	movzwl	%dx, %edx
	movl	%edx, %ebp
	sall	%cl, %ebp
	movl	5816(%ebx), %ecx
	orl	%ebp, %ecx
	movw	%cx, 5816(%ebx)
	movl	20(%ebx), %eax
.LVL424:
	movl	8(%ebx), %esi
	movb	%cl, (%esi,%eax)
	movl	8(%ebx), %edi
	movzbl	5817(%ebx), %esi
	movl	%esi, %ecx
	movb	%cl, 1(%edi,%eax)
	addl	$2, %eax
	movl	%eax, 20(%ebx)
	movl	5820(%ebx), %eax
	movl	$16, %ecx
	subl	%eax, %ecx
	sarl	%cl, %edx
	movw	%dx, 5816(%ebx)
	subl	$13, %eax
	movl	%eax, 5820(%ebx)
	jmp	.L218
.LVL425:
.L222:
.LBE203:
.LBE210:
.LBB211:
.LBB200:
.LBB196:
	.loc 1 846 0
	movl	20(%esp), %esi
.LVL426:
	subl	$256, %esi
	movzwl	%si, %esi
	sall	%cl, %esi
	orl	%esi, %edx
	movw	%dx, 5816(%ebx)
	addl	$5, %ecx
	movl	%ecx, 5820(%ebx)
.LVL427:
.LBE196:
.LBB197:
	.loc 1 847 0
	cmpl	$11, %ecx
	jg	.L273
.LVL428:
.L224:
	movzwl	16(%esp), %esi
	sall	%cl, %esi
	orl	%esi, %edx
	movw	%dx, 5816(%ebx)
	addl	$5, %ecx
	movl	%ecx, 5820(%ebx)
.LVL429:
.LBE197:
.LBB198:
	.loc 1 848 0
	cmpl	$12, %ecx
	jg	.L274
.L226:
	leal	-4(%edi), %eax
.LVL430:
	movzwl	%ax, %eax
	sall	%cl, %eax
	orl	%eax, %edx
	movw	%dx, 5816(%ebx)
	addl	$4, %ecx
	movl	%ecx, 5820(%ebx)
	jmp	.L228
.LVL431:
.L236:
.LBE198:
.LBE200:
.LBE211:
.LBB212:
.LBB207:
	.loc 1 1133 0
	xorl	%eax, %eax
	jmp	.L207
.LVL432:
.L249:
.LBE207:
.LBE212:
.LBB213:
.LBB176:
	.loc 1 820 0
	movl	$10, %eax
.LVL433:
.L210:
	.loc 1 821 0
	leal	1(%eax), %edi
	leal	(%edi,%edi,2), %ecx
	jmp	.L211
.LVL434:
.L245:
	.loc 1 820 0
	movl	$14, %eax
	jmp	.L210
.LVL435:
.L244:
	movl	$15, %eax
	jmp	.L210
.LVL436:
.L243:
	movl	$16, %eax
	jmp	.L210
.LVL437:
.L247:
	movl	$12, %eax
	jmp	.L210
.LVL438:
.L242:
	movl	$17, %eax
	jmp	.L210
.LVL439:
.L241:
	movl	$18, %eax
	jmp	.L210
.LVL440:
.L246:
	movl	$13, %eax
	jmp	.L210
.LVL441:
.L250:
	movl	$9, %eax
	jmp	.L210
.LVL442:
.L251:
	movl	$8, %eax
	jmp	.L210
.LVL443:
.L252:
	movl	$7, %eax
	jmp	.L210
.LVL444:
.L253:
	movl	$6, %eax
	jmp	.L210
.LVL445:
.L248:
	movl	$11, %eax
	jmp	.L210
.LVL446:
.L266:
	.loc 1 821 0
	movl	$3, %eax
	jmp	.L210
.LVL447:
.L254:
	.loc 1 820 0
	movl	$5, %eax
	jmp	.L210
.LVL448:
.L255:
	movl	$4, %eax
	jmp	.L210
.LVL449:
.L271:
.LBE176:
.LBE213:
.LBB214:
.LBB208:
	.loc 1 1146 0
	xorw	%ax, %ax
.LVL450:
	jmp	.L207
.LBE208:
.LBE214:
	.cfi_endproc
.LFE40:
	.size	_tr_flush_block, .-_tr_flush_block
	.p2align 2,,3
	.globl	_tr_tally
	.hidden	_tr_tally
	.type	_tr_tally, @function
_tr_tally:
.LFB41:
	.loc 1 1014 0
	.cfi_startproc
.LVL451:
	pushl	%esi
.LCFI97:
	.cfi_def_cfa_offset 8
	.cfi_offset 6, -8
	pushl	%ebx
.LCFI98:
	.cfi_def_cfa_offset 12
	.cfi_offset 3, -12
	movl	12(%esp), %eax
	movl	16(%esp), %ecx
	movl	20(%esp), %ebx
	.loc 1 1015 0
	movl	5792(%eax), %edx
	movl	5796(%eax), %esi
	movw	%cx, (%esi,%edx,2)
	.loc 1 1016 0
	movl	5784(%eax), %esi
	movb	%bl, (%esi,%edx)
	incl	%edx
	movl	%edx, 5792(%eax)
	.loc 1 1017 0
	testl	%ecx, %ecx
	je	.L280
	.loc 1 1021 0
	incl	5808(%eax)
	.loc 1 1023 0
	decl	%ecx
.LVL452:
	.loc 1 1028 0
	movzbl	_length_code(%ebx), %ebx
	incw	1176(%eax,%ebx,4)
	.loc 1 1029 0
	cmpl	$255, %ecx
	jbe	.L281
	.loc 1 1029 0 is_stmt 0 discriminator 2
	shrl	$7, %ecx
.LVL453:
	movzbl	_dist_code+256(%ecx), %ecx
.L279:
	.loc 1 1029 0 discriminator 3
	incw	2440(%eax,%ecx,4)
.L277:
	.loc 1 1050 0 is_stmt 1
	movl	5788(%eax), %eax
	decl	%eax
	cmpl	%eax, %edx
	sete	%al
	movzbl	%al, %eax
	.loc 1 1055 0
	popl	%ebx
	.cfi_remember_state
.LCFI99:
	.cfi_def_cfa_offset 8
	.cfi_restore 3
	popl	%esi
.LCFI100:
	.cfi_def_cfa_offset 4
	.cfi_restore 6
	ret
.LVL454:
	.p2align 2,,3
.L281:
.LCFI101:
	.cfi_restore_state
	.loc 1 1029 0 discriminator 1
	movzbl	_dist_code(%ecx), %ecx
.LVL455:
	jmp	.L279
.LVL456:
	.p2align 2,,3
.L280:
	.loc 1 1019 0
	incw	148(%eax,%ebx,4)
	jmp	.L277
	.cfi_endproc
.LFE41:
	.size	_tr_tally, .-_tr_tally
	.hidden	_length_code
	.globl	_length_code
	.section	.rodata
	.align 32
	.type	_length_code, @object
	.size	_length_code, 256
_length_code:
	.byte	0
	.byte	1
	.byte	2
	.byte	3
	.byte	4
	.byte	5
	.byte	6
	.byte	7
	.byte	8
	.byte	8
	.byte	9
	.byte	9
	.byte	10
	.byte	10
	.byte	11
	.byte	11
	.byte	12
	.byte	12
	.byte	12
	.byte	12
	.byte	13
	.byte	13
	.byte	13
	.byte	13
	.byte	14
	.byte	14
	.byte	14
	.byte	14
	.byte	15
	.byte	15
	.byte	15
	.byte	15
	.byte	16
	.byte	16
	.byte	16
	.byte	16
	.byte	16
	.byte	16
	.byte	16
	.byte	16
	.byte	17
	.byte	17
	.byte	17
	.byte	17
	.byte	17
	.byte	17
	.byte	17
	.byte	17
	.byte	18
	.byte	18
	.byte	18
	.byte	18
	.byte	18
	.byte	18
	.byte	18
	.byte	18
	.byte	19
	.byte	19
	.byte	19
	.byte	19
	.byte	19
	.byte	19
	.byte	19
	.byte	19
	.byte	20
	.byte	20
	.byte	20
	.byte	20
	.byte	20
	.byte	20
	.byte	20
	.byte	20
	.byte	20
	.byte	20
	.byte	20
	.byte	20
	.byte	20
	.byte	20
	.byte	20
	.byte	20
	.byte	21
	.byte	21
	.byte	21
	.byte	21
	.byte	21
	.byte	21
	.byte	21
	.byte	21
	.byte	21
	.byte	21
	.byte	21
	.byte	21
	.byte	21
	.byte	21
	.byte	21
	.byte	21
	.byte	22
	.byte	22
	.byte	22
	.byte	22
	.byte	22
	.byte	22
	.byte	22
	.byte	22
	.byte	22
	.byte	22
	.byte	22
	.byte	22
	.byte	22
	.byte	22
	.byte	22
	.byte	22
	.byte	23
	.byte	23
	.byte	23
	.byte	23
	.byte	23
	.byte	23
	.byte	23
	.byte	23
	.byte	23
	.byte	23
	.byte	23
	.byte	23
	.byte	23
	.byte	23
	.byte	23
	.byte	23
	.byte	24
	.byte	24
	.byte	24
	.byte	24
	.byte	24
	.byte	24
	.byte	24
	.byte	24
	.byte	24
	.byte	24
	.byte	24
	.byte	24
	.byte	24
	.byte	24
	.byte	24
	.byte	24
	.byte	24
	.byte	24
	.byte	24
	.byte	24
	.byte	24
	.byte	24
	.byte	24
	.byte	24
	.byte	24
	.byte	24
	.byte	24
	.byte	24
	.byte	24
	.byte	24
	.byte	24
	.byte	24
	.byte	25
	.byte	25
	.byte	25
	.byte	25
	.byte	25
	.byte	25
	.byte	25
	.byte	25
	.byte	25
	.byte	25
	.byte	25
	.byte	25
	.byte	25
	.byte	25
	.byte	25
	.byte	25
	.byte	25
	.byte	25
	.byte	25
	.byte	25
	.byte	25
	.byte	25
	.byte	25
	.byte	25
	.byte	25
	.byte	25
	.byte	25
	.byte	25
	.byte	25
	.byte	25
	.byte	25
	.byte	25
	.byte	26
	.byte	26
	.byte	26
	.byte	26
	.byte	26
	.byte	26
	.byte	26
	.byte	26
	.byte	26
	.byte	26
	.byte	26
	.byte	26
	.byte	26
	.byte	26
	.byte	26
	.byte	26
	.byte	26
	.byte	26
	.byte	26
	.byte	26
	.byte	26
	.byte	26
	.byte	26
	.byte	26
	.byte	26
	.byte	26
	.byte	26
	.byte	26
	.byte	26
	.byte	26
	.byte	26
	.byte	26
	.byte	27
	.byte	27
	.byte	27
	.byte	27
	.byte	27
	.byte	27
	.byte	27
	.byte	27
	.byte	27
	.byte	27
	.byte	27
	.byte	27
	.byte	27
	.byte	27
	.byte	27
	.byte	27
	.byte	27
	.byte	27
	.byte	27
	.byte	27
	.byte	27
	.byte	27
	.byte	27
	.byte	27
	.byte	27
	.byte	27
	.byte	27
	.byte	27
	.byte	27
	.byte	27
	.byte	27
	.byte	28
	.hidden	_dist_code
	.globl	_dist_code
	.align 32
	.type	_dist_code, @object
	.size	_dist_code, 512
_dist_code:
	.byte	0
	.byte	1
	.byte	2
	.byte	3
	.byte	4
	.byte	4
	.byte	5
	.byte	5
	.byte	6
	.byte	6
	.byte	6
	.byte	6
	.byte	7
	.byte	7
	.byte	7
	.byte	7
	.byte	8
	.byte	8
	.byte	8
	.byte	8
	.byte	8
	.byte	8
	.byte	8
	.byte	8
	.byte	9
	.byte	9
	.byte	9
	.byte	9
	.byte	9
	.byte	9
	.byte	9
	.byte	9
	.byte	10
	.byte	10
	.byte	10
	.byte	10
	.byte	10
	.byte	10
	.byte	10
	.byte	10
	.byte	10
	.byte	10
	.byte	10
	.byte	10
	.byte	10
	.byte	10
	.byte	10
	.byte	10
	.byte	11
	.byte	11
	.byte	11
	.byte	11
	.byte	11
	.byte	11
	.byte	11
	.byte	11
	.byte	11
	.byte	11
	.byte	11
	.byte	11
	.byte	11
	.byte	11
	.byte	11
	.byte	11
	.byte	12
	.byte	12
	.byte	12
	.byte	12
	.byte	12
	.byte	12
	.byte	12
	.byte	12
	.byte	12
	.byte	12
	.byte	12
	.byte	12
	.byte	12
	.byte	12
	.byte	12
	.byte	12
	.byte	12
	.byte	12
	.byte	12
	.byte	12
	.byte	12
	.byte	12
	.byte	12
	.byte	12
	.byte	12
	.byte	12
	.byte	12
	.byte	12
	.byte	12
	.byte	12
	.byte	12
	.byte	12
	.byte	13
	.byte	13
	.byte	13
	.byte	13
	.byte	13
	.byte	13
	.byte	13
	.byte	13
	.byte	13
	.byte	13
	.byte	13
	.byte	13
	.byte	13
	.byte	13
	.byte	13
	.byte	13
	.byte	13
	.byte	13
	.byte	13
	.byte	13
	.byte	13
	.byte	13
	.byte	13
	.byte	13
	.byte	13
	.byte	13
	.byte	13
	.byte	13
	.byte	13
	.byte	13
	.byte	13
	.byte	13
	.byte	14
	.byte	14
	.byte	14
	.byte	14
	.byte	14
	.byte	14
	.byte	14
	.byte	14
	.byte	14
	.byte	14
	.byte	14
	.byte	14
	.byte	14
	.byte	14
	.byte	14
	.byte	14
	.byte	14
	.byte	14
	.byte	14
	.byte	14
	.byte	14
	.byte	14
	.byte	14
	.byte	14
	.byte	14
	.byte	14
	.byte	14
	.byte	14
	.byte	14
	.byte	14
	.byte	14
	.byte	14
	.byte	14
	.byte	14
	.byte	14
	.byte	14
	.byte	14
	.byte	14
	.byte	14
	.byte	14
	.byte	14
	.byte	14
	.byte	14
	.byte	14
	.byte	14
	.byte	14
	.byte	14
	.byte	14
	.byte	14
	.byte	14
	.byte	14
	.byte	14
	.byte	14
	.byte	14
	.byte	14
	.byte	14
	.byte	14
	.byte	14
	.byte	14
	.byte	14
	.byte	14
	.byte	14
	.byte	14
	.byte	14
	.byte	15
	.byte	15
	.byte	15
	.byte	15
	.byte	15
	.byte	15
	.byte	15
	.byte	15
	.byte	15
	.byte	15
	.byte	15
	.byte	15
	.byte	15
	.byte	15
	.byte	15
	.byte	15
	.byte	15
	.byte	15
	.byte	15
	.byte	15
	.byte	15
	.byte	15
	.byte	15
	.byte	15
	.byte	15
	.byte	15
	.byte	15
	.byte	15
	.byte	15
	.byte	15
	.byte	15
	.byte	15
	.byte	15
	.byte	15
	.byte	15
	.byte	15
	.byte	15
	.byte	15
	.byte	15
	.byte	15
	.byte	15
	.byte	15
	.byte	15
	.byte	15
	.byte	15
	.byte	15
	.byte	15
	.byte	15
	.byte	15
	.byte	15
	.byte	15
	.byte	15
	.byte	15
	.byte	15
	.byte	15
	.byte	15
	.byte	15
	.byte	15
	.byte	15
	.byte	15
	.byte	15
	.byte	15
	.byte	15
	.byte	15
	.byte	0
	.byte	0
	.byte	16
	.byte	17
	.byte	18
	.byte	18
	.byte	19
	.byte	19
	.byte	20
	.byte	20
	.byte	20
	.byte	20
	.byte	21
	.byte	21
	.byte	21
	.byte	21
	.byte	22
	.byte	22
	.byte	22
	.byte	22
	.byte	22
	.byte	22
	.byte	22
	.byte	22
	.byte	23
	.byte	23
	.byte	23
	.byte	23
	.byte	23
	.byte	23
	.byte	23
	.byte	23
	.byte	24
	.byte	24
	.byte	24
	.byte	24
	.byte	24
	.byte	24
	.byte	24
	.byte	24
	.byte	24
	.byte	24
	.byte	24
	.byte	24
	.byte	24
	.byte	24
	.byte	24
	.byte	24
	.byte	25
	.byte	25
	.byte	25
	.byte	25
	.byte	25
	.byte	25
	.byte	25
	.byte	25
	.byte	25
	.byte	25
	.byte	25
	.byte	25
	.byte	25
	.byte	25
	.byte	25
	.byte	25
	.byte	26
	.byte	26
	.byte	26
	.byte	26
	.byte	26
	.byte	26
	.byte	26
	.byte	26
	.byte	26
	.byte	26
	.byte	26
	.byte	26
	.byte	26
	.byte	26
	.byte	26
	.byte	26
	.byte	26
	.byte	26
	.byte	26
	.byte	26
	.byte	26
	.byte	26
	.byte	26
	.byte	26
	.byte	26
	.byte	26
	.byte	26
	.byte	26
	.byte	26
	.byte	26
	.byte	26
	.byte	26
	.byte	27
	.byte	27
	.byte	27
	.byte	27
	.byte	27
	.byte	27
	.byte	27
	.byte	27
	.byte	27
	.byte	27
	.byte	27
	.byte	27
	.byte	27
	.byte	27
	.byte	27
	.byte	27
	.byte	27
	.byte	27
	.byte	27
	.byte	27
	.byte	27
	.byte	27
	.byte	27
	.byte	27
	.byte	27
	.byte	27
	.byte	27
	.byte	27
	.byte	27
	.byte	27
	.byte	27
	.byte	27
	.byte	28
	.byte	28
	.byte	28
	.byte	28
	.byte	28
	.byte	28
	.byte	28
	.byte	28
	.byte	28
	.byte	28
	.byte	28
	.byte	28
	.byte	28
	.byte	28
	.byte	28
	.byte	28
	.byte	28
	.byte	28
	.byte	28
	.byte	28
	.byte	28
	.byte	28
	.byte	28
	.byte	28
	.byte	28
	.byte	28
	.byte	28
	.byte	28
	.byte	28
	.byte	28
	.byte	28
	.byte	28
	.byte	28
	.byte	28
	.byte	28
	.byte	28
	.byte	28
	.byte	28
	.byte	28
	.byte	28
	.byte	28
	.byte	28
	.byte	28
	.byte	28
	.byte	28
	.byte	28
	.byte	28
	.byte	28
	.byte	28
	.byte	28
	.byte	28
	.byte	28
	.byte	28
	.byte	28
	.byte	28
	.byte	28
	.byte	28
	.byte	28
	.byte	28
	.byte	28
	.byte	28
	.byte	28
	.byte	28
	.byte	28
	.byte	29
	.byte	29
	.byte	29
	.byte	29
	.byte	29
	.byte	29
	.byte	29
	.byte	29
	.byte	29
	.byte	29
	.byte	29
	.byte	29
	.byte	29
	.byte	29
	.byte	29
	.byte	29
	.byte	29
	.byte	29
	.byte	29
	.byte	29
	.byte	29
	.byte	29
	.byte	29
	.byte	29
	.byte	29
	.byte	29
	.byte	29
	.byte	29
	.byte	29
	.byte	29
	.byte	29
	.byte	29
	.byte	29
	.byte	29
	.byte	29
	.byte	29
	.byte	29
	.byte	29
	.byte	29
	.byte	29
	.byte	29
	.byte	29
	.byte	29
	.byte	29
	.byte	29
	.byte	29
	.byte	29
	.byte	29
	.byte	29
	.byte	29
	.byte	29
	.byte	29
	.byte	29
	.byte	29
	.byte	29
	.byte	29
	.byte	29
	.byte	29
	.byte	29
	.byte	29
	.byte	29
	.byte	29
	.byte	29
	.byte	29
	.data
	.align 4
	.type	static_l_desc, @object
	.size	static_l_desc, 20
static_l_desc:
	.long	static_ltree
	.long	extra_lbits
	.long	257
	.long	286
	.long	15
	.align 4
	.type	static_d_desc, @object
	.size	static_d_desc, 20
static_d_desc:
	.long	static_dtree
	.long	extra_dbits
	.long	0
	.long	30
	.long	15
	.align 4
	.type	static_bl_desc, @object
	.size	static_bl_desc, 20
static_bl_desc:
	.long	0
	.long	extra_blbits
	.long	0
	.long	19
	.long	7
	.section	.rodata
	.align 32
	.type	static_dtree, @object
	.size	static_dtree, 120
static_dtree:
	.value	0
	.value	5
	.value	16
	.value	5
	.value	8
	.value	5
	.value	24
	.value	5
	.value	4
	.value	5
	.value	20
	.value	5
	.value	12
	.value	5
	.value	28
	.value	5
	.value	2
	.value	5
	.value	18
	.value	5
	.value	10
	.value	5
	.value	26
	.value	5
	.value	6
	.value	5
	.value	22
	.value	5
	.value	14
	.value	5
	.value	30
	.value	5
	.value	1
	.value	5
	.value	17
	.value	5
	.value	9
	.value	5
	.value	25
	.value	5
	.value	5
	.value	5
	.value	21
	.value	5
	.value	13
	.value	5
	.value	29
	.value	5
	.value	3
	.value	5
	.value	19
	.value	5
	.value	11
	.value	5
	.value	27
	.value	5
	.value	7
	.value	5
	.value	23
	.value	5
	.align 32
	.type	extra_dbits, @object
	.size	extra_dbits, 120
extra_dbits:
	.long	0
	.long	0
	.long	0
	.long	0
	.long	1
	.long	1
	.long	2
	.long	2
	.long	3
	.long	3
	.long	4
	.long	4
	.long	5
	.long	5
	.long	6
	.long	6
	.long	7
	.long	7
	.long	8
	.long	8
	.long	9
	.long	9
	.long	10
	.long	10
	.long	11
	.long	11
	.long	12
	.long	12
	.long	13
	.long	13
	.align 32
	.type	static_ltree, @object
	.size	static_ltree, 1152
static_ltree:
	.value	12
	.value	8
	.value	140
	.value	8
	.value	76
	.value	8
	.value	204
	.value	8
	.value	44
	.value	8
	.value	172
	.value	8
	.value	108
	.value	8
	.value	236
	.value	8
	.value	28
	.value	8
	.value	156
	.value	8
	.value	92
	.value	8
	.value	220
	.value	8
	.value	60
	.value	8
	.value	188
	.value	8
	.value	124
	.value	8
	.value	252
	.value	8
	.value	2
	.value	8
	.value	130
	.value	8
	.value	66
	.value	8
	.value	194
	.value	8
	.value	34
	.value	8
	.value	162
	.value	8
	.value	98
	.value	8
	.value	226
	.value	8
	.value	18
	.value	8
	.value	146
	.value	8
	.value	82
	.value	8
	.value	210
	.value	8
	.value	50
	.value	8
	.value	178
	.value	8
	.value	114
	.value	8
	.value	242
	.value	8
	.value	10
	.value	8
	.value	138
	.value	8
	.value	74
	.value	8
	.value	202
	.value	8
	.value	42
	.value	8
	.value	170
	.value	8
	.value	106
	.value	8
	.value	234
	.value	8
	.value	26
	.value	8
	.value	154
	.value	8
	.value	90
	.value	8
	.value	218
	.value	8
	.value	58
	.value	8
	.value	186
	.value	8
	.value	122
	.value	8
	.value	250
	.value	8
	.value	6
	.value	8
	.value	134
	.value	8
	.value	70
	.value	8
	.value	198
	.value	8
	.value	38
	.value	8
	.value	166
	.value	8
	.value	102
	.value	8
	.value	230
	.value	8
	.value	22
	.value	8
	.value	150
	.value	8
	.value	86
	.value	8
	.value	214
	.value	8
	.value	54
	.value	8
	.value	182
	.value	8
	.value	118
	.value	8
	.value	246
	.value	8
	.value	14
	.value	8
	.value	142
	.value	8
	.value	78
	.value	8
	.value	206
	.value	8
	.value	46
	.value	8
	.value	174
	.value	8
	.value	110
	.value	8
	.value	238
	.value	8
	.value	30
	.value	8
	.value	158
	.value	8
	.value	94
	.value	8
	.value	222
	.value	8
	.value	62
	.value	8
	.value	190
	.value	8
	.value	126
	.value	8
	.value	254
	.value	8
	.value	1
	.value	8
	.value	129
	.value	8
	.value	65
	.value	8
	.value	193
	.value	8
	.value	33
	.value	8
	.value	161
	.value	8
	.value	97
	.value	8
	.value	225
	.value	8
	.value	17
	.value	8
	.value	145
	.value	8
	.value	81
	.value	8
	.value	209
	.value	8
	.value	49
	.value	8
	.value	177
	.value	8
	.value	113
	.value	8
	.value	241
	.value	8
	.value	9
	.value	8
	.value	137
	.value	8
	.value	73
	.value	8
	.value	201
	.value	8
	.value	41
	.value	8
	.value	169
	.value	8
	.value	105
	.value	8
	.value	233
	.value	8
	.value	25
	.value	8
	.value	153
	.value	8
	.value	89
	.value	8
	.value	217
	.value	8
	.value	57
	.value	8
	.value	185
	.value	8
	.value	121
	.value	8
	.value	249
	.value	8
	.value	5
	.value	8
	.value	133
	.value	8
	.value	69
	.value	8
	.value	197
	.value	8
	.value	37
	.value	8
	.value	165
	.value	8
	.value	101
	.value	8
	.value	229
	.value	8
	.value	21
	.value	8
	.value	149
	.value	8
	.value	85
	.value	8
	.value	213
	.value	8
	.value	53
	.value	8
	.value	181
	.value	8
	.value	117
	.value	8
	.value	245
	.value	8
	.value	13
	.value	8
	.value	141
	.value	8
	.value	77
	.value	8
	.value	205
	.value	8
	.value	45
	.value	8
	.value	173
	.value	8
	.value	109
	.value	8
	.value	237
	.value	8
	.value	29
	.value	8
	.value	157
	.value	8
	.value	93
	.value	8
	.value	221
	.value	8
	.value	61
	.value	8
	.value	189
	.value	8
	.value	125
	.value	8
	.value	253
	.value	8
	.value	19
	.value	9
	.value	275
	.value	9
	.value	147
	.value	9
	.value	403
	.value	9
	.value	83
	.value	9
	.value	339
	.value	9
	.value	211
	.value	9
	.value	467
	.value	9
	.value	51
	.value	9
	.value	307
	.value	9
	.value	179
	.value	9
	.value	435
	.value	9
	.value	115
	.value	9
	.value	371
	.value	9
	.value	243
	.value	9
	.value	499
	.value	9
	.value	11
	.value	9
	.value	267
	.value	9
	.value	139
	.value	9
	.value	395
	.value	9
	.value	75
	.value	9
	.value	331
	.value	9
	.value	203
	.value	9
	.value	459
	.value	9
	.value	43
	.value	9
	.value	299
	.value	9
	.value	171
	.value	9
	.value	427
	.value	9
	.value	107
	.value	9
	.value	363
	.value	9
	.value	235
	.value	9
	.value	491
	.value	9
	.value	27
	.value	9
	.value	283
	.value	9
	.value	155
	.value	9
	.value	411
	.value	9
	.value	91
	.value	9
	.value	347
	.value	9
	.value	219
	.value	9
	.value	475
	.value	9
	.value	59
	.value	9
	.value	315
	.value	9
	.value	187
	.value	9
	.value	443
	.value	9
	.value	123
	.value	9
	.value	379
	.value	9
	.value	251
	.value	9
	.value	507
	.value	9
	.value	7
	.value	9
	.value	263
	.value	9
	.value	135
	.value	9
	.value	391
	.value	9
	.value	71
	.value	9
	.value	327
	.value	9
	.value	199
	.value	9
	.value	455
	.value	9
	.value	39
	.value	9
	.value	295
	.value	9
	.value	167
	.value	9
	.value	423
	.value	9
	.value	103
	.value	9
	.value	359
	.value	9
	.value	231
	.value	9
	.value	487
	.value	9
	.value	23
	.value	9
	.value	279
	.value	9
	.value	151
	.value	9
	.value	407
	.value	9
	.value	87
	.value	9
	.value	343
	.value	9
	.value	215
	.value	9
	.value	471
	.value	9
	.value	55
	.value	9
	.value	311
	.value	9
	.value	183
	.value	9
	.value	439
	.value	9
	.value	119
	.value	9
	.value	375
	.value	9
	.value	247
	.value	9
	.value	503
	.value	9
	.value	15
	.value	9
	.value	271
	.value	9
	.value	143
	.value	9
	.value	399
	.value	9
	.value	79
	.value	9
	.value	335
	.value	9
	.value	207
	.value	9
	.value	463
	.value	9
	.value	47
	.value	9
	.value	303
	.value	9
	.value	175
	.value	9
	.value	431
	.value	9
	.value	111
	.value	9
	.value	367
	.value	9
	.value	239
	.value	9
	.value	495
	.value	9
	.value	31
	.value	9
	.value	287
	.value	9
	.value	159
	.value	9
	.value	415
	.value	9
	.value	95
	.value	9
	.value	351
	.value	9
	.value	223
	.value	9
	.value	479
	.value	9
	.value	63
	.value	9
	.value	319
	.value	9
	.value	191
	.value	9
	.value	447
	.value	9
	.value	127
	.value	9
	.value	383
	.value	9
	.value	255
	.value	9
	.value	511
	.value	9
	.value	0
	.value	7
	.value	64
	.value	7
	.value	32
	.value	7
	.value	96
	.value	7
	.value	16
	.value	7
	.value	80
	.value	7
	.value	48
	.value	7
	.value	112
	.value	7
	.value	8
	.value	7
	.value	72
	.value	7
	.value	40
	.value	7
	.value	104
	.value	7
	.value	24
	.value	7
	.value	88
	.value	7
	.value	56
	.value	7
	.value	120
	.value	7
	.value	4
	.value	7
	.value	68
	.value	7
	.value	36
	.value	7
	.value	100
	.value	7
	.value	20
	.value	7
	.value	84
	.value	7
	.value	52
	.value	7
	.value	116
	.value	7
	.value	3
	.value	8
	.value	131
	.value	8
	.value	67
	.value	8
	.value	195
	.value	8
	.value	35
	.value	8
	.value	163
	.value	8
	.value	99
	.value	8
	.value	227
	.value	8
	.align 32
	.type	extra_lbits, @object
	.size	extra_lbits, 116
extra_lbits:
	.long	0
	.long	0
	.long	0
	.long	0
	.long	0
	.long	0
	.long	0
	.long	0
	.long	1
	.long	1
	.long	1
	.long	1
	.long	2
	.long	2
	.long	2
	.long	2
	.long	3
	.long	3
	.long	3
	.long	3
	.long	4
	.long	4
	.long	4
	.long	4
	.long	5
	.long	5
	.long	5
	.long	5
	.long	0
	.align 4
	.type	bl_order, @object
	.size	bl_order, 19
bl_order:
	.byte	16
	.byte	17
	.byte	18
	.byte	0
	.byte	8
	.byte	7
	.byte	9
	.byte	6
	.byte	10
	.byte	5
	.byte	11
	.byte	4
	.byte	12
	.byte	3
	.byte	13
	.byte	2
	.byte	14
	.byte	1
	.byte	15
	.align 32
	.type	base_length, @object
	.size	base_length, 116
base_length:
	.long	0
	.long	1
	.long	2
	.long	3
	.long	4
	.long	5
	.long	6
	.long	7
	.long	8
	.long	10
	.long	12
	.long	14
	.long	16
	.long	20
	.long	24
	.long	28
	.long	32
	.long	40
	.long	48
	.long	56
	.long	64
	.long	80
	.long	96
	.long	112
	.long	128
	.long	160
	.long	192
	.long	224
	.long	0
	.align 32
	.type	base_dist, @object
	.size	base_dist, 120
base_dist:
	.long	0
	.long	1
	.long	2
	.long	3
	.long	4
	.long	6
	.long	8
	.long	12
	.long	16
	.long	24
	.long	32
	.long	48
	.long	64
	.long	96
	.long	128
	.long	192
	.long	256
	.long	384
	.long	512
	.long	768
	.long	1024
	.long	1536
	.long	2048
	.long	3072
	.long	4096
	.long	6144
	.long	8192
	.long	12288
	.long	16384
	.long	24576
	.align 32
	.type	extra_blbits, @object
	.size	extra_blbits, 76
extra_blbits:
	.long	0
	.long	0
	.long	0
	.long	0
	.long	0
	.long	0
	.long	0
	.long	0
	.long	0
	.long	0
	.long	0
	.long	0
	.long	0
	.long	0
	.long	0
	.long	0
	.long	2
	.long	3
	.long	7
	.text
.Letext0:
	.file 2 "zconf.h"
	.file 3 "zlib.h"
	.file 4 "deflate.h"
	.file 5 "zutil.h"
	.file 6 "trees.h"
	.file 7 "/home/anton/workspace/embox-trunk/./src/include/../util/dlist_debug.h"
	.section	.note.GNU-stack,"",@progbits
